
Do_An_NKD.elf:     file format elf32-littlearm

Sections:
Idx Name          Size      VMA       LMA       File off  Algn
  0 .isr_vector   00000188  08000000  08000000  00001000  2**0
                  CONTENTS, ALLOC, LOAD, READONLY, DATA
  1 .text         0000b6bc  08000190  08000190  00001190  2**4
                  CONTENTS, ALLOC, LOAD, READONLY, CODE
  2 .rodata       000281f0  0800b850  0800b850  0000c850  2**3
                  CONTENTS, ALLOC, LOAD, READONLY, DATA
  3 .ARM.extab    00000000  08033a40  08033a40  000352d4  2**0
                  CONTENTS, READONLY
  4 .ARM          00000008  08033a40  08033a40  00034a40  2**2
                  CONTENTS, ALLOC, LOAD, READONLY, DATA
  5 .preinit_array 00000000  08033a48  08033a48  000352d4  2**0
                  CONTENTS, ALLOC, LOAD, DATA
  6 .init_array   00000004  08033a48  08033a48  00034a48  2**2
                  CONTENTS, ALLOC, LOAD, READONLY, DATA
  7 .fini_array   00000004  08033a4c  08033a4c  00034a4c  2**2
                  CONTENTS, ALLOC, LOAD, READONLY, DATA
  8 .data         000002d4  20000000  08033a50  00035000  2**2
                  CONTENTS, ALLOC, LOAD, DATA
  9 .ccmram       00000000  10000000  10000000  000352d4  2**0
                  CONTENTS
 10 .bss          00000ab4  200002d4  200002d4  000352d4  2**2
                  ALLOC
 11 ._user_heap_stack 00000600  20000d88  20000d88  000352d4  2**0
                  ALLOC
 12 .ARM.attributes 00000030  00000000  00000000  000352d4  2**0
                  CONTENTS, READONLY
 13 .debug_info   00011f1c  00000000  00000000  00035304  2**0
                  CONTENTS, READONLY, DEBUGGING, OCTETS
 14 .debug_abbrev 00002cbc  00000000  00000000  00047220  2**0
                  CONTENTS, READONLY, DEBUGGING, OCTETS
 15 .debug_aranges 000011f0  00000000  00000000  00049ee0  2**3
                  CONTENTS, READONLY, DEBUGGING, OCTETS
 16 .debug_macro  00023a27  00000000  00000000  0004b0d0  2**0
                  CONTENTS, READONLY, DEBUGGING, OCTETS
 17 .debug_line   00013d37  00000000  00000000  0006eaf7  2**0
                  CONTENTS, READONLY, DEBUGGING, OCTETS
 18 .debug_str    000ceff5  00000000  00000000  0008282e  2**0
                  CONTENTS, READONLY, DEBUGGING, OCTETS
 19 .comment      00000043  00000000  00000000  00151823  2**0
                  CONTENTS, READONLY
 20 .debug_rnglists 00000de7  00000000  00000000  00151866  2**0
                  CONTENTS, READONLY, DEBUGGING, OCTETS
 21 .debug_frame  00005d0c  00000000  00000000  00152650  2**2
                  CONTENTS, READONLY, DEBUGGING, OCTETS
 22 .debug_line_str 00000065  00000000  00000000  0015835c  2**0
                  CONTENTS, READONLY, DEBUGGING, OCTETS

Disassembly of section .text:

08000190 <__do_global_dtors_aux>:
 8000190:	b510      	push	{r4, lr}
 8000192:	4c05      	ldr	r4, [pc, #20]	@ (80001a8 <__do_global_dtors_aux+0x18>)
 8000194:	7823      	ldrb	r3, [r4, #0]
 8000196:	b933      	cbnz	r3, 80001a6 <__do_global_dtors_aux+0x16>
 8000198:	4b04      	ldr	r3, [pc, #16]	@ (80001ac <__do_global_dtors_aux+0x1c>)
 800019a:	b113      	cbz	r3, 80001a2 <__do_global_dtors_aux+0x12>
 800019c:	4804      	ldr	r0, [pc, #16]	@ (80001b0 <__do_global_dtors_aux+0x20>)
 800019e:	f3af 8000 	nop.w
 80001a2:	2301      	movs	r3, #1
 80001a4:	7023      	strb	r3, [r4, #0]
 80001a6:	bd10      	pop	{r4, pc}
 80001a8:	200002d4 	.word	0x200002d4
 80001ac:	00000000 	.word	0x00000000
 80001b0:	0800b834 	.word	0x0800b834

080001b4 <frame_dummy>:
 80001b4:	b508      	push	{r3, lr}
 80001b6:	4b03      	ldr	r3, [pc, #12]	@ (80001c4 <frame_dummy+0x10>)
 80001b8:	b11b      	cbz	r3, 80001c2 <frame_dummy+0xe>
 80001ba:	4903      	ldr	r1, [pc, #12]	@ (80001c8 <frame_dummy+0x14>)
 80001bc:	4803      	ldr	r0, [pc, #12]	@ (80001cc <frame_dummy+0x18>)
 80001be:	f3af 8000 	nop.w
 80001c2:	bd08      	pop	{r3, pc}
 80001c4:	00000000 	.word	0x00000000
 80001c8:	200002d8 	.word	0x200002d8
 80001cc:	0800b834 	.word	0x0800b834

080001d0 <strcmp>:
 80001d0:	f810 2b01 	ldrb.w	r2, [r0], #1
 80001d4:	f811 3b01 	ldrb.w	r3, [r1], #1
 80001d8:	2a01      	cmp	r2, #1
 80001da:	bf28      	it	cs
 80001dc:	429a      	cmpcs	r2, r3
 80001de:	d0f7      	beq.n	80001d0 <strcmp>
 80001e0:	1ad0      	subs	r0, r2, r3
 80001e2:	4770      	bx	lr

080001e4 <strlen>:
 80001e4:	4603      	mov	r3, r0
 80001e6:	f813 2b01 	ldrb.w	r2, [r3], #1
 80001ea:	2a00      	cmp	r2, #0
 80001ec:	d1fb      	bne.n	80001e6 <strlen+0x2>
 80001ee:	1a18      	subs	r0, r3, r0
 80001f0:	3801      	subs	r0, #1
 80001f2:	4770      	bx	lr
	...

08000200 <memchr>:
 8000200:	f001 01ff 	and.w	r1, r1, #255	@ 0xff
 8000204:	2a10      	cmp	r2, #16
 8000206:	db2b      	blt.n	8000260 <memchr+0x60>
 8000208:	f010 0f07 	tst.w	r0, #7
 800020c:	d008      	beq.n	8000220 <memchr+0x20>
 800020e:	f810 3b01 	ldrb.w	r3, [r0], #1
 8000212:	3a01      	subs	r2, #1
 8000214:	428b      	cmp	r3, r1
 8000216:	d02d      	beq.n	8000274 <memchr+0x74>
 8000218:	f010 0f07 	tst.w	r0, #7
 800021c:	b342      	cbz	r2, 8000270 <memchr+0x70>
 800021e:	d1f6      	bne.n	800020e <memchr+0xe>
 8000220:	b4f0      	push	{r4, r5, r6, r7}
 8000222:	ea41 2101 	orr.w	r1, r1, r1, lsl #8
 8000226:	ea41 4101 	orr.w	r1, r1, r1, lsl #16
 800022a:	f022 0407 	bic.w	r4, r2, #7
 800022e:	f07f 0700 	mvns.w	r7, #0
 8000232:	2300      	movs	r3, #0
 8000234:	e8f0 5602 	ldrd	r5, r6, [r0], #8
 8000238:	3c08      	subs	r4, #8
 800023a:	ea85 0501 	eor.w	r5, r5, r1
 800023e:	ea86 0601 	eor.w	r6, r6, r1
 8000242:	fa85 f547 	uadd8	r5, r5, r7
 8000246:	faa3 f587 	sel	r5, r3, r7
 800024a:	fa86 f647 	uadd8	r6, r6, r7
 800024e:	faa5 f687 	sel	r6, r5, r7
 8000252:	b98e      	cbnz	r6, 8000278 <memchr+0x78>
 8000254:	d1ee      	bne.n	8000234 <memchr+0x34>
 8000256:	bcf0      	pop	{r4, r5, r6, r7}
 8000258:	f001 01ff 	and.w	r1, r1, #255	@ 0xff
 800025c:	f002 0207 	and.w	r2, r2, #7
 8000260:	b132      	cbz	r2, 8000270 <memchr+0x70>
 8000262:	f810 3b01 	ldrb.w	r3, [r0], #1
 8000266:	3a01      	subs	r2, #1
 8000268:	ea83 0301 	eor.w	r3, r3, r1
 800026c:	b113      	cbz	r3, 8000274 <memchr+0x74>
 800026e:	d1f8      	bne.n	8000262 <memchr+0x62>
 8000270:	2000      	movs	r0, #0
 8000272:	4770      	bx	lr
 8000274:	3801      	subs	r0, #1
 8000276:	4770      	bx	lr
 8000278:	2d00      	cmp	r5, #0
 800027a:	bf06      	itte	eq
 800027c:	4635      	moveq	r5, r6
 800027e:	3803      	subeq	r0, #3
 8000280:	3807      	subne	r0, #7
 8000282:	f015 0f01 	tst.w	r5, #1
 8000286:	d107      	bne.n	8000298 <memchr+0x98>
 8000288:	3001      	adds	r0, #1
 800028a:	f415 7f80 	tst.w	r5, #256	@ 0x100
 800028e:	bf02      	ittt	eq
 8000290:	3001      	addeq	r0, #1
 8000292:	f415 3fc0 	tsteq.w	r5, #98304	@ 0x18000
 8000296:	3001      	addeq	r0, #1
 8000298:	bcf0      	pop	{r4, r5, r6, r7}
 800029a:	3801      	subs	r0, #1
 800029c:	4770      	bx	lr
 800029e:	bf00      	nop

080002a0 <__aeabi_drsub>:
 80002a0:	f081 4100 	eor.w	r1, r1, #2147483648	@ 0x80000000
 80002a4:	e002      	b.n	80002ac <__adddf3>
 80002a6:	bf00      	nop

080002a8 <__aeabi_dsub>:
 80002a8:	f083 4300 	eor.w	r3, r3, #2147483648	@ 0x80000000

080002ac <__adddf3>:
 80002ac:	b530      	push	{r4, r5, lr}
 80002ae:	ea4f 0441 	mov.w	r4, r1, lsl #1
 80002b2:	ea4f 0543 	mov.w	r5, r3, lsl #1
 80002b6:	ea94 0f05 	teq	r4, r5
 80002ba:	bf08      	it	eq
 80002bc:	ea90 0f02 	teqeq	r0, r2
 80002c0:	bf1f      	itttt	ne
 80002c2:	ea54 0c00 	orrsne.w	ip, r4, r0
 80002c6:	ea55 0c02 	orrsne.w	ip, r5, r2
 80002ca:	ea7f 5c64 	mvnsne.w	ip, r4, asr #21
 80002ce:	ea7f 5c65 	mvnsne.w	ip, r5, asr #21
 80002d2:	f000 80e2 	beq.w	800049a <__adddf3+0x1ee>
 80002d6:	ea4f 5454 	mov.w	r4, r4, lsr #21
 80002da:	ebd4 5555 	rsbs	r5, r4, r5, lsr #21
 80002de:	bfb8      	it	lt
 80002e0:	426d      	neglt	r5, r5
 80002e2:	dd0c      	ble.n	80002fe <__adddf3+0x52>
 80002e4:	442c      	add	r4, r5
 80002e6:	ea80 0202 	eor.w	r2, r0, r2
 80002ea:	ea81 0303 	eor.w	r3, r1, r3
 80002ee:	ea82 0000 	eor.w	r0, r2, r0
 80002f2:	ea83 0101 	eor.w	r1, r3, r1
 80002f6:	ea80 0202 	eor.w	r2, r0, r2
 80002fa:	ea81 0303 	eor.w	r3, r1, r3
 80002fe:	2d36      	cmp	r5, #54	@ 0x36
 8000300:	bf88      	it	hi
 8000302:	bd30      	pophi	{r4, r5, pc}
 8000304:	f011 4f00 	tst.w	r1, #2147483648	@ 0x80000000
 8000308:	ea4f 3101 	mov.w	r1, r1, lsl #12
 800030c:	f44f 1c80 	mov.w	ip, #1048576	@ 0x100000
 8000310:	ea4c 3111 	orr.w	r1, ip, r1, lsr #12
 8000314:	d002      	beq.n	800031c <__adddf3+0x70>
 8000316:	4240      	negs	r0, r0
 8000318:	eb61 0141 	sbc.w	r1, r1, r1, lsl #1
 800031c:	f013 4f00 	tst.w	r3, #2147483648	@ 0x80000000
 8000320:	ea4f 3303 	mov.w	r3, r3, lsl #12
 8000324:	ea4c 3313 	orr.w	r3, ip, r3, lsr #12
 8000328:	d002      	beq.n	8000330 <__adddf3+0x84>
 800032a:	4252      	negs	r2, r2
 800032c:	eb63 0343 	sbc.w	r3, r3, r3, lsl #1
 8000330:	ea94 0f05 	teq	r4, r5
 8000334:	f000 80a7 	beq.w	8000486 <__adddf3+0x1da>
 8000338:	f1a4 0401 	sub.w	r4, r4, #1
 800033c:	f1d5 0e20 	rsbs	lr, r5, #32
 8000340:	db0d      	blt.n	800035e <__adddf3+0xb2>
 8000342:	fa02 fc0e 	lsl.w	ip, r2, lr
 8000346:	fa22 f205 	lsr.w	r2, r2, r5
 800034a:	1880      	adds	r0, r0, r2
 800034c:	f141 0100 	adc.w	r1, r1, #0
 8000350:	fa03 f20e 	lsl.w	r2, r3, lr
 8000354:	1880      	adds	r0, r0, r2
 8000356:	fa43 f305 	asr.w	r3, r3, r5
 800035a:	4159      	adcs	r1, r3
 800035c:	e00e      	b.n	800037c <__adddf3+0xd0>
 800035e:	f1a5 0520 	sub.w	r5, r5, #32
 8000362:	f10e 0e20 	add.w	lr, lr, #32
 8000366:	2a01      	cmp	r2, #1
 8000368:	fa03 fc0e 	lsl.w	ip, r3, lr
 800036c:	bf28      	it	cs
 800036e:	f04c 0c02 	orrcs.w	ip, ip, #2
 8000372:	fa43 f305 	asr.w	r3, r3, r5
 8000376:	18c0      	adds	r0, r0, r3
 8000378:	eb51 71e3 	adcs.w	r1, r1, r3, asr #31
 800037c:	f001 4500 	and.w	r5, r1, #2147483648	@ 0x80000000
 8000380:	d507      	bpl.n	8000392 <__adddf3+0xe6>
 8000382:	f04f 0e00 	mov.w	lr, #0
 8000386:	f1dc 0c00 	rsbs	ip, ip, #0
 800038a:	eb7e 0000 	sbcs.w	r0, lr, r0
 800038e:	eb6e 0101 	sbc.w	r1, lr, r1
 8000392:	f5b1 1f80 	cmp.w	r1, #1048576	@ 0x100000
 8000396:	d31b      	bcc.n	80003d0 <__adddf3+0x124>
 8000398:	f5b1 1f00 	cmp.w	r1, #2097152	@ 0x200000
 800039c:	d30c      	bcc.n	80003b8 <__adddf3+0x10c>
 800039e:	0849      	lsrs	r1, r1, #1
 80003a0:	ea5f 0030 	movs.w	r0, r0, rrx
 80003a4:	ea4f 0c3c 	mov.w	ip, ip, rrx
 80003a8:	f104 0401 	add.w	r4, r4, #1
 80003ac:	ea4f 5244 	mov.w	r2, r4, lsl #21
 80003b0:	f512 0f80 	cmn.w	r2, #4194304	@ 0x400000
 80003b4:	f080 809a 	bcs.w	80004ec <__adddf3+0x240>
 80003b8:	f1bc 4f00 	cmp.w	ip, #2147483648	@ 0x80000000
 80003bc:	bf08      	it	eq
 80003be:	ea5f 0c50 	movseq.w	ip, r0, lsr #1
 80003c2:	f150 0000 	adcs.w	r0, r0, #0
 80003c6:	eb41 5104 	adc.w	r1, r1, r4, lsl #20
 80003ca:	ea41 0105 	orr.w	r1, r1, r5
 80003ce:	bd30      	pop	{r4, r5, pc}
 80003d0:	ea5f 0c4c 	movs.w	ip, ip, lsl #1
 80003d4:	4140      	adcs	r0, r0
 80003d6:	eb41 0101 	adc.w	r1, r1, r1
 80003da:	3c01      	subs	r4, #1
 80003dc:	bf28      	it	cs
 80003de:	f5b1 1f80 	cmpcs.w	r1, #1048576	@ 0x100000
 80003e2:	d2e9      	bcs.n	80003b8 <__adddf3+0x10c>
 80003e4:	f091 0f00 	teq	r1, #0
 80003e8:	bf04      	itt	eq
 80003ea:	4601      	moveq	r1, r0
 80003ec:	2000      	moveq	r0, #0
 80003ee:	fab1 f381 	clz	r3, r1
 80003f2:	bf08      	it	eq
 80003f4:	3320      	addeq	r3, #32
 80003f6:	f1a3 030b 	sub.w	r3, r3, #11
 80003fa:	f1b3 0220 	subs.w	r2, r3, #32
 80003fe:	da0c      	bge.n	800041a <__adddf3+0x16e>
 8000400:	320c      	adds	r2, #12
 8000402:	dd08      	ble.n	8000416 <__adddf3+0x16a>
 8000404:	f102 0c14 	add.w	ip, r2, #20
 8000408:	f1c2 020c 	rsb	r2, r2, #12
 800040c:	fa01 f00c 	lsl.w	r0, r1, ip
 8000410:	fa21 f102 	lsr.w	r1, r1, r2
 8000414:	e00c      	b.n	8000430 <__adddf3+0x184>
 8000416:	f102 0214 	add.w	r2, r2, #20
 800041a:	bfd8      	it	le
 800041c:	f1c2 0c20 	rsble	ip, r2, #32
 8000420:	fa01 f102 	lsl.w	r1, r1, r2
 8000424:	fa20 fc0c 	lsr.w	ip, r0, ip
 8000428:	bfdc      	itt	le
 800042a:	ea41 010c 	orrle.w	r1, r1, ip
 800042e:	4090      	lslle	r0, r2
 8000430:	1ae4      	subs	r4, r4, r3
 8000432:	bfa2      	ittt	ge
 8000434:	eb01 5104 	addge.w	r1, r1, r4, lsl #20
 8000438:	4329      	orrge	r1, r5
 800043a:	bd30      	popge	{r4, r5, pc}
 800043c:	ea6f 0404 	mvn.w	r4, r4
 8000440:	3c1f      	subs	r4, #31
 8000442:	da1c      	bge.n	800047e <__adddf3+0x1d2>
 8000444:	340c      	adds	r4, #12
 8000446:	dc0e      	bgt.n	8000466 <__adddf3+0x1ba>
 8000448:	f104 0414 	add.w	r4, r4, #20
 800044c:	f1c4 0220 	rsb	r2, r4, #32
 8000450:	fa20 f004 	lsr.w	r0, r0, r4
 8000454:	fa01 f302 	lsl.w	r3, r1, r2
 8000458:	ea40 0003 	orr.w	r0, r0, r3
 800045c:	fa21 f304 	lsr.w	r3, r1, r4
 8000460:	ea45 0103 	orr.w	r1, r5, r3
 8000464:	bd30      	pop	{r4, r5, pc}
 8000466:	f1c4 040c 	rsb	r4, r4, #12
 800046a:	f1c4 0220 	rsb	r2, r4, #32
 800046e:	fa20 f002 	lsr.w	r0, r0, r2
 8000472:	fa01 f304 	lsl.w	r3, r1, r4
 8000476:	ea40 0003 	orr.w	r0, r0, r3
 800047a:	4629      	mov	r1, r5
 800047c:	bd30      	pop	{r4, r5, pc}
 800047e:	fa21 f004 	lsr.w	r0, r1, r4
 8000482:	4629      	mov	r1, r5
 8000484:	bd30      	pop	{r4, r5, pc}
 8000486:	f094 0f00 	teq	r4, #0
 800048a:	f483 1380 	eor.w	r3, r3, #1048576	@ 0x100000
 800048e:	bf06      	itte	eq
 8000490:	f481 1180 	eoreq.w	r1, r1, #1048576	@ 0x100000
 8000494:	3401      	addeq	r4, #1
 8000496:	3d01      	subne	r5, #1
 8000498:	e74e      	b.n	8000338 <__adddf3+0x8c>
 800049a:	ea7f 5c64 	mvns.w	ip, r4, asr #21
 800049e:	bf18      	it	ne
 80004a0:	ea7f 5c65 	mvnsne.w	ip, r5, asr #21
 80004a4:	d029      	beq.n	80004fa <__adddf3+0x24e>
 80004a6:	ea94 0f05 	teq	r4, r5
 80004aa:	bf08      	it	eq
 80004ac:	ea90 0f02 	teqeq	r0, r2
 80004b0:	d005      	beq.n	80004be <__adddf3+0x212>
 80004b2:	ea54 0c00 	orrs.w	ip, r4, r0
 80004b6:	bf04      	itt	eq
 80004b8:	4619      	moveq	r1, r3
 80004ba:	4610      	moveq	r0, r2
 80004bc:	bd30      	pop	{r4, r5, pc}
 80004be:	ea91 0f03 	teq	r1, r3
 80004c2:	bf1e      	ittt	ne
 80004c4:	2100      	movne	r1, #0
 80004c6:	2000      	movne	r0, #0
 80004c8:	bd30      	popne	{r4, r5, pc}
 80004ca:	ea5f 5c54 	movs.w	ip, r4, lsr #21
 80004ce:	d105      	bne.n	80004dc <__adddf3+0x230>
 80004d0:	0040      	lsls	r0, r0, #1
 80004d2:	4149      	adcs	r1, r1
 80004d4:	bf28      	it	cs
 80004d6:	f041 4100 	orrcs.w	r1, r1, #2147483648	@ 0x80000000
 80004da:	bd30      	pop	{r4, r5, pc}
 80004dc:	f514 0480 	adds.w	r4, r4, #4194304	@ 0x400000
 80004e0:	bf3c      	itt	cc
 80004e2:	f501 1180 	addcc.w	r1, r1, #1048576	@ 0x100000
 80004e6:	bd30      	popcc	{r4, r5, pc}
 80004e8:	f001 4500 	and.w	r5, r1, #2147483648	@ 0x80000000
 80004ec:	f045 41fe 	orr.w	r1, r5, #2130706432	@ 0x7f000000
 80004f0:	f441 0170 	orr.w	r1, r1, #15728640	@ 0xf00000
 80004f4:	f04f 0000 	mov.w	r0, #0
 80004f8:	bd30      	pop	{r4, r5, pc}
 80004fa:	ea7f 5c64 	mvns.w	ip, r4, asr #21
 80004fe:	bf1a      	itte	ne
 8000500:	4619      	movne	r1, r3
 8000502:	4610      	movne	r0, r2
 8000504:	ea7f 5c65 	mvnseq.w	ip, r5, asr #21
 8000508:	bf1c      	itt	ne
 800050a:	460b      	movne	r3, r1
 800050c:	4602      	movne	r2, r0
 800050e:	ea50 3401 	orrs.w	r4, r0, r1, lsl #12
 8000512:	bf06      	itte	eq
 8000514:	ea52 3503 	orrseq.w	r5, r2, r3, lsl #12
 8000518:	ea91 0f03 	teqeq	r1, r3
 800051c:	f441 2100 	orrne.w	r1, r1, #524288	@ 0x80000
 8000520:	bd30      	pop	{r4, r5, pc}
 8000522:	bf00      	nop

08000524 <__aeabi_ui2d>:
 8000524:	f090 0f00 	teq	r0, #0
 8000528:	bf04      	itt	eq
 800052a:	2100      	moveq	r1, #0
 800052c:	4770      	bxeq	lr
 800052e:	b530      	push	{r4, r5, lr}
 8000530:	f44f 6480 	mov.w	r4, #1024	@ 0x400
 8000534:	f104 0432 	add.w	r4, r4, #50	@ 0x32
 8000538:	f04f 0500 	mov.w	r5, #0
 800053c:	f04f 0100 	mov.w	r1, #0
 8000540:	e750      	b.n	80003e4 <__adddf3+0x138>
 8000542:	bf00      	nop

08000544 <__aeabi_i2d>:
 8000544:	f090 0f00 	teq	r0, #0
 8000548:	bf04      	itt	eq
 800054a:	2100      	moveq	r1, #0
 800054c:	4770      	bxeq	lr
 800054e:	b530      	push	{r4, r5, lr}
 8000550:	f44f 6480 	mov.w	r4, #1024	@ 0x400
 8000554:	f104 0432 	add.w	r4, r4, #50	@ 0x32
 8000558:	f010 4500 	ands.w	r5, r0, #2147483648	@ 0x80000000
 800055c:	bf48      	it	mi
 800055e:	4240      	negmi	r0, r0
 8000560:	f04f 0100 	mov.w	r1, #0
 8000564:	e73e      	b.n	80003e4 <__adddf3+0x138>
 8000566:	bf00      	nop

08000568 <__aeabi_f2d>:
 8000568:	0042      	lsls	r2, r0, #1
 800056a:	ea4f 01e2 	mov.w	r1, r2, asr #3
 800056e:	ea4f 0131 	mov.w	r1, r1, rrx
 8000572:	ea4f 7002 	mov.w	r0, r2, lsl #28
 8000576:	bf1f      	itttt	ne
 8000578:	f012 437f 	andsne.w	r3, r2, #4278190080	@ 0xff000000
 800057c:	f093 4f7f 	teqne	r3, #4278190080	@ 0xff000000
 8000580:	f081 5160 	eorne.w	r1, r1, #939524096	@ 0x38000000
 8000584:	4770      	bxne	lr
 8000586:	f032 427f 	bics.w	r2, r2, #4278190080	@ 0xff000000
 800058a:	bf08      	it	eq
 800058c:	4770      	bxeq	lr
 800058e:	f093 4f7f 	teq	r3, #4278190080	@ 0xff000000
 8000592:	bf04      	itt	eq
 8000594:	f441 2100 	orreq.w	r1, r1, #524288	@ 0x80000
 8000598:	4770      	bxeq	lr
 800059a:	b530      	push	{r4, r5, lr}
 800059c:	f44f 7460 	mov.w	r4, #896	@ 0x380
 80005a0:	f001 4500 	and.w	r5, r1, #2147483648	@ 0x80000000
 80005a4:	f021 4100 	bic.w	r1, r1, #2147483648	@ 0x80000000
 80005a8:	e71c      	b.n	80003e4 <__adddf3+0x138>
 80005aa:	bf00      	nop

080005ac <__aeabi_ul2d>:
 80005ac:	ea50 0201 	orrs.w	r2, r0, r1
 80005b0:	bf08      	it	eq
 80005b2:	4770      	bxeq	lr
 80005b4:	b530      	push	{r4, r5, lr}
 80005b6:	f04f 0500 	mov.w	r5, #0
 80005ba:	e00a      	b.n	80005d2 <__aeabi_l2d+0x16>

080005bc <__aeabi_l2d>:
 80005bc:	ea50 0201 	orrs.w	r2, r0, r1
 80005c0:	bf08      	it	eq
 80005c2:	4770      	bxeq	lr
 80005c4:	b530      	push	{r4, r5, lr}
 80005c6:	f011 4500 	ands.w	r5, r1, #2147483648	@ 0x80000000
 80005ca:	d502      	bpl.n	80005d2 <__aeabi_l2d+0x16>
 80005cc:	4240      	negs	r0, r0
 80005ce:	eb61 0141 	sbc.w	r1, r1, r1, lsl #1
 80005d2:	f44f 6480 	mov.w	r4, #1024	@ 0x400
 80005d6:	f104 0432 	add.w	r4, r4, #50	@ 0x32
 80005da:	ea5f 5c91 	movs.w	ip, r1, lsr #22
 80005de:	f43f aed8 	beq.w	8000392 <__adddf3+0xe6>
 80005e2:	f04f 0203 	mov.w	r2, #3
 80005e6:	ea5f 0cdc 	movs.w	ip, ip, lsr #3
 80005ea:	bf18      	it	ne
 80005ec:	3203      	addne	r2, #3
 80005ee:	ea5f 0cdc 	movs.w	ip, ip, lsr #3
 80005f2:	bf18      	it	ne
 80005f4:	3203      	addne	r2, #3
 80005f6:	eb02 02dc 	add.w	r2, r2, ip, lsr #3
 80005fa:	f1c2 0320 	rsb	r3, r2, #32
 80005fe:	fa00 fc03 	lsl.w	ip, r0, r3
 8000602:	fa20 f002 	lsr.w	r0, r0, r2
 8000606:	fa01 fe03 	lsl.w	lr, r1, r3
 800060a:	ea40 000e 	orr.w	r0, r0, lr
 800060e:	fa21 f102 	lsr.w	r1, r1, r2
 8000612:	4414      	add	r4, r2
 8000614:	e6bd      	b.n	8000392 <__adddf3+0xe6>
 8000616:	bf00      	nop

08000618 <__aeabi_dmul>:
 8000618:	b570      	push	{r4, r5, r6, lr}
 800061a:	f04f 0cff 	mov.w	ip, #255	@ 0xff
 800061e:	f44c 6ce0 	orr.w	ip, ip, #1792	@ 0x700
 8000622:	ea1c 5411 	ands.w	r4, ip, r1, lsr #20
 8000626:	bf1d      	ittte	ne
 8000628:	ea1c 5513 	andsne.w	r5, ip, r3, lsr #20
 800062c:	ea94 0f0c 	teqne	r4, ip
 8000630:	ea95 0f0c 	teqne	r5, ip
 8000634:	f000 f8de 	bleq	80007f4 <__aeabi_dmul+0x1dc>
 8000638:	442c      	add	r4, r5
 800063a:	ea81 0603 	eor.w	r6, r1, r3
 800063e:	ea21 514c 	bic.w	r1, r1, ip, lsl #21
 8000642:	ea23 534c 	bic.w	r3, r3, ip, lsl #21
 8000646:	ea50 3501 	orrs.w	r5, r0, r1, lsl #12
 800064a:	bf18      	it	ne
 800064c:	ea52 3503 	orrsne.w	r5, r2, r3, lsl #12
 8000650:	f441 1180 	orr.w	r1, r1, #1048576	@ 0x100000
 8000654:	f443 1380 	orr.w	r3, r3, #1048576	@ 0x100000
 8000658:	d038      	beq.n	80006cc <__aeabi_dmul+0xb4>
 800065a:	fba0 ce02 	umull	ip, lr, r0, r2
 800065e:	f04f 0500 	mov.w	r5, #0
 8000662:	fbe1 e502 	umlal	lr, r5, r1, r2
 8000666:	f006 4200 	and.w	r2, r6, #2147483648	@ 0x80000000
 800066a:	fbe0 e503 	umlal	lr, r5, r0, r3
 800066e:	f04f 0600 	mov.w	r6, #0
 8000672:	fbe1 5603 	umlal	r5, r6, r1, r3
 8000676:	f09c 0f00 	teq	ip, #0
 800067a:	bf18      	it	ne
 800067c:	f04e 0e01 	orrne.w	lr, lr, #1
 8000680:	f1a4 04ff 	sub.w	r4, r4, #255	@ 0xff
 8000684:	f5b6 7f00 	cmp.w	r6, #512	@ 0x200
 8000688:	f564 7440 	sbc.w	r4, r4, #768	@ 0x300
 800068c:	d204      	bcs.n	8000698 <__aeabi_dmul+0x80>
 800068e:	ea5f 0e4e 	movs.w	lr, lr, lsl #1
 8000692:	416d      	adcs	r5, r5
 8000694:	eb46 0606 	adc.w	r6, r6, r6
 8000698:	ea42 21c6 	orr.w	r1, r2, r6, lsl #11
 800069c:	ea41 5155 	orr.w	r1, r1, r5, lsr #21
 80006a0:	ea4f 20c5 	mov.w	r0, r5, lsl #11
 80006a4:	ea40 505e 	orr.w	r0, r0, lr, lsr #21
 80006a8:	ea4f 2ece 	mov.w	lr, lr, lsl #11
 80006ac:	f1b4 0cfd 	subs.w	ip, r4, #253	@ 0xfd
 80006b0:	bf88      	it	hi
 80006b2:	f5bc 6fe0 	cmphi.w	ip, #1792	@ 0x700
 80006b6:	d81e      	bhi.n	80006f6 <__aeabi_dmul+0xde>
 80006b8:	f1be 4f00 	cmp.w	lr, #2147483648	@ 0x80000000
 80006bc:	bf08      	it	eq
 80006be:	ea5f 0e50 	movseq.w	lr, r0, lsr #1
 80006c2:	f150 0000 	adcs.w	r0, r0, #0
 80006c6:	eb41 5104 	adc.w	r1, r1, r4, lsl #20
 80006ca:	bd70      	pop	{r4, r5, r6, pc}
 80006cc:	f006 4600 	and.w	r6, r6, #2147483648	@ 0x80000000
 80006d0:	ea46 0101 	orr.w	r1, r6, r1
 80006d4:	ea40 0002 	orr.w	r0, r0, r2
 80006d8:	ea81 0103 	eor.w	r1, r1, r3
 80006dc:	ebb4 045c 	subs.w	r4, r4, ip, lsr #1
 80006e0:	bfc2      	ittt	gt
 80006e2:	ebd4 050c 	rsbsgt	r5, r4, ip
 80006e6:	ea41 5104 	orrgt.w	r1, r1, r4, lsl #20
 80006ea:	bd70      	popgt	{r4, r5, r6, pc}
 80006ec:	f441 1180 	orr.w	r1, r1, #1048576	@ 0x100000
 80006f0:	f04f 0e00 	mov.w	lr, #0
 80006f4:	3c01      	subs	r4, #1
 80006f6:	f300 80ab 	bgt.w	8000850 <__aeabi_dmul+0x238>
 80006fa:	f114 0f36 	cmn.w	r4, #54	@ 0x36
 80006fe:	bfde      	ittt	le
 8000700:	2000      	movle	r0, #0
 8000702:	f001 4100 	andle.w	r1, r1, #2147483648	@ 0x80000000
 8000706:	bd70      	pople	{r4, r5, r6, pc}
 8000708:	f1c4 0400 	rsb	r4, r4, #0
 800070c:	3c20      	subs	r4, #32
 800070e:	da35      	bge.n	800077c <__aeabi_dmul+0x164>
 8000710:	340c      	adds	r4, #12
 8000712:	dc1b      	bgt.n	800074c <__aeabi_dmul+0x134>
 8000714:	f104 0414 	add.w	r4, r4, #20
 8000718:	f1c4 0520 	rsb	r5, r4, #32
 800071c:	fa00 f305 	lsl.w	r3, r0, r5
 8000720:	fa20 f004 	lsr.w	r0, r0, r4
 8000724:	fa01 f205 	lsl.w	r2, r1, r5
 8000728:	ea40 0002 	orr.w	r0, r0, r2
 800072c:	f001 4200 	and.w	r2, r1, #2147483648	@ 0x80000000
 8000730:	f021 4100 	bic.w	r1, r1, #2147483648	@ 0x80000000
 8000734:	eb10 70d3 	adds.w	r0, r0, r3, lsr #31
 8000738:	fa21 f604 	lsr.w	r6, r1, r4
 800073c:	eb42 0106 	adc.w	r1, r2, r6
 8000740:	ea5e 0e43 	orrs.w	lr, lr, r3, lsl #1
 8000744:	bf08      	it	eq
 8000746:	ea20 70d3 	biceq.w	r0, r0, r3, lsr #31
 800074a:	bd70      	pop	{r4, r5, r6, pc}
 800074c:	f1c4 040c 	rsb	r4, r4, #12
 8000750:	f1c4 0520 	rsb	r5, r4, #32
 8000754:	fa00 f304 	lsl.w	r3, r0, r4
 8000758:	fa20 f005 	lsr.w	r0, r0, r5
 800075c:	fa01 f204 	lsl.w	r2, r1, r4
 8000760:	ea40 0002 	orr.w	r0, r0, r2
 8000764:	f001 4100 	and.w	r1, r1, #2147483648	@ 0x80000000
 8000768:	eb10 70d3 	adds.w	r0, r0, r3, lsr #31
 800076c:	f141 0100 	adc.w	r1, r1, #0
 8000770:	ea5e 0e43 	orrs.w	lr, lr, r3, lsl #1
 8000774:	bf08      	it	eq
 8000776:	ea20 70d3 	biceq.w	r0, r0, r3, lsr #31
 800077a:	bd70      	pop	{r4, r5, r6, pc}
 800077c:	f1c4 0520 	rsb	r5, r4, #32
 8000780:	fa00 f205 	lsl.w	r2, r0, r5
 8000784:	ea4e 0e02 	orr.w	lr, lr, r2
 8000788:	fa20 f304 	lsr.w	r3, r0, r4
 800078c:	fa01 f205 	lsl.w	r2, r1, r5
 8000790:	ea43 0302 	orr.w	r3, r3, r2
 8000794:	fa21 f004 	lsr.w	r0, r1, r4
 8000798:	f001 4100 	and.w	r1, r1, #2147483648	@ 0x80000000
 800079c:	fa21 f204 	lsr.w	r2, r1, r4
 80007a0:	ea20 0002 	bic.w	r0, r0, r2
 80007a4:	eb00 70d3 	add.w	r0, r0, r3, lsr #31
 80007a8:	ea5e 0e43 	orrs.w	lr, lr, r3, lsl #1
 80007ac:	bf08      	it	eq
 80007ae:	ea20 70d3 	biceq.w	r0, r0, r3, lsr #31
 80007b2:	bd70      	pop	{r4, r5, r6, pc}
 80007b4:	f094 0f00 	teq	r4, #0
 80007b8:	d10f      	bne.n	80007da <__aeabi_dmul+0x1c2>
 80007ba:	f001 4600 	and.w	r6, r1, #2147483648	@ 0x80000000
 80007be:	0040      	lsls	r0, r0, #1
 80007c0:	eb41 0101 	adc.w	r1, r1, r1
 80007c4:	f411 1f80 	tst.w	r1, #1048576	@ 0x100000
 80007c8:	bf08      	it	eq
 80007ca:	3c01      	subeq	r4, #1
 80007cc:	d0f7      	beq.n	80007be <__aeabi_dmul+0x1a6>
 80007ce:	ea41 0106 	orr.w	r1, r1, r6
 80007d2:	f095 0f00 	teq	r5, #0
 80007d6:	bf18      	it	ne
 80007d8:	4770      	bxne	lr
 80007da:	f003 4600 	and.w	r6, r3, #2147483648	@ 0x80000000
 80007de:	0052      	lsls	r2, r2, #1
 80007e0:	eb43 0303 	adc.w	r3, r3, r3
 80007e4:	f413 1f80 	tst.w	r3, #1048576	@ 0x100000
 80007e8:	bf08      	it	eq
 80007ea:	3d01      	subeq	r5, #1
 80007ec:	d0f7      	beq.n	80007de <__aeabi_dmul+0x1c6>
 80007ee:	ea43 0306 	orr.w	r3, r3, r6
 80007f2:	4770      	bx	lr
 80007f4:	ea94 0f0c 	teq	r4, ip
 80007f8:	ea0c 5513 	and.w	r5, ip, r3, lsr #20
 80007fc:	bf18      	it	ne
 80007fe:	ea95 0f0c 	teqne	r5, ip
 8000802:	d00c      	beq.n	800081e <__aeabi_dmul+0x206>
 8000804:	ea50 0641 	orrs.w	r6, r0, r1, lsl #1
 8000808:	bf18      	it	ne
 800080a:	ea52 0643 	orrsne.w	r6, r2, r3, lsl #1
 800080e:	d1d1      	bne.n	80007b4 <__aeabi_dmul+0x19c>
 8000810:	ea81 0103 	eor.w	r1, r1, r3
 8000814:	f001 4100 	and.w	r1, r1, #2147483648	@ 0x80000000
 8000818:	f04f 0000 	mov.w	r0, #0
 800081c:	bd70      	pop	{r4, r5, r6, pc}
 800081e:	ea50 0641 	orrs.w	r6, r0, r1, lsl #1
 8000822:	bf06      	itte	eq
 8000824:	4610      	moveq	r0, r2
 8000826:	4619      	moveq	r1, r3
 8000828:	ea52 0643 	orrsne.w	r6, r2, r3, lsl #1
 800082c:	d019      	beq.n	8000862 <__aeabi_dmul+0x24a>
 800082e:	ea94 0f0c 	teq	r4, ip
 8000832:	d102      	bne.n	800083a <__aeabi_dmul+0x222>
 8000834:	ea50 3601 	orrs.w	r6, r0, r1, lsl #12
 8000838:	d113      	bne.n	8000862 <__aeabi_dmul+0x24a>
 800083a:	ea95 0f0c 	teq	r5, ip
 800083e:	d105      	bne.n	800084c <__aeabi_dmul+0x234>
 8000840:	ea52 3603 	orrs.w	r6, r2, r3, lsl #12
 8000844:	bf1c      	itt	ne
 8000846:	4610      	movne	r0, r2
 8000848:	4619      	movne	r1, r3
 800084a:	d10a      	bne.n	8000862 <__aeabi_dmul+0x24a>
 800084c:	ea81 0103 	eor.w	r1, r1, r3
 8000850:	f001 4100 	and.w	r1, r1, #2147483648	@ 0x80000000
 8000854:	f041 41fe 	orr.w	r1, r1, #2130706432	@ 0x7f000000
 8000858:	f441 0170 	orr.w	r1, r1, #15728640	@ 0xf00000
 800085c:	f04f 0000 	mov.w	r0, #0
 8000860:	bd70      	pop	{r4, r5, r6, pc}
 8000862:	f041 41fe 	orr.w	r1, r1, #2130706432	@ 0x7f000000
 8000866:	f441 0178 	orr.w	r1, r1, #16252928	@ 0xf80000
 800086a:	bd70      	pop	{r4, r5, r6, pc}

0800086c <__aeabi_ddiv>:
 800086c:	b570      	push	{r4, r5, r6, lr}
 800086e:	f04f 0cff 	mov.w	ip, #255	@ 0xff
 8000872:	f44c 6ce0 	orr.w	ip, ip, #1792	@ 0x700
 8000876:	ea1c 5411 	ands.w	r4, ip, r1, lsr #20
 800087a:	bf1d      	ittte	ne
 800087c:	ea1c 5513 	andsne.w	r5, ip, r3, lsr #20
 8000880:	ea94 0f0c 	teqne	r4, ip
 8000884:	ea95 0f0c 	teqne	r5, ip
 8000888:	f000 f8a7 	bleq	80009da <__aeabi_ddiv+0x16e>
 800088c:	eba4 0405 	sub.w	r4, r4, r5
 8000890:	ea81 0e03 	eor.w	lr, r1, r3
 8000894:	ea52 3503 	orrs.w	r5, r2, r3, lsl #12
 8000898:	ea4f 3101 	mov.w	r1, r1, lsl #12
 800089c:	f000 8088 	beq.w	80009b0 <__aeabi_ddiv+0x144>
 80008a0:	ea4f 3303 	mov.w	r3, r3, lsl #12
 80008a4:	f04f 5580 	mov.w	r5, #268435456	@ 0x10000000
 80008a8:	ea45 1313 	orr.w	r3, r5, r3, lsr #4
 80008ac:	ea43 6312 	orr.w	r3, r3, r2, lsr #24
 80008b0:	ea4f 2202 	mov.w	r2, r2, lsl #8
 80008b4:	ea45 1511 	orr.w	r5, r5, r1, lsr #4
 80008b8:	ea45 6510 	orr.w	r5, r5, r0, lsr #24
 80008bc:	ea4f 2600 	mov.w	r6, r0, lsl #8
 80008c0:	f00e 4100 	and.w	r1, lr, #2147483648	@ 0x80000000
 80008c4:	429d      	cmp	r5, r3
 80008c6:	bf08      	it	eq
 80008c8:	4296      	cmpeq	r6, r2
 80008ca:	f144 04fd 	adc.w	r4, r4, #253	@ 0xfd
 80008ce:	f504 7440 	add.w	r4, r4, #768	@ 0x300
 80008d2:	d202      	bcs.n	80008da <__aeabi_ddiv+0x6e>
 80008d4:	085b      	lsrs	r3, r3, #1
 80008d6:	ea4f 0232 	mov.w	r2, r2, rrx
 80008da:	1ab6      	subs	r6, r6, r2
 80008dc:	eb65 0503 	sbc.w	r5, r5, r3
 80008e0:	085b      	lsrs	r3, r3, #1
 80008e2:	ea4f 0232 	mov.w	r2, r2, rrx
 80008e6:	f44f 1080 	mov.w	r0, #1048576	@ 0x100000
 80008ea:	f44f 2c00 	mov.w	ip, #524288	@ 0x80000
 80008ee:	ebb6 0e02 	subs.w	lr, r6, r2
 80008f2:	eb75 0e03 	sbcs.w	lr, r5, r3
 80008f6:	bf22      	ittt	cs
 80008f8:	1ab6      	subcs	r6, r6, r2
 80008fa:	4675      	movcs	r5, lr
 80008fc:	ea40 000c 	orrcs.w	r0, r0, ip
 8000900:	085b      	lsrs	r3, r3, #1
 8000902:	ea4f 0232 	mov.w	r2, r2, rrx
 8000906:	ebb6 0e02 	subs.w	lr, r6, r2
 800090a:	eb75 0e03 	sbcs.w	lr, r5, r3
 800090e:	bf22      	ittt	cs
 8000910:	1ab6      	subcs	r6, r6, r2
 8000912:	4675      	movcs	r5, lr
 8000914:	ea40 005c 	orrcs.w	r0, r0, ip, lsr #1
 8000918:	085b      	lsrs	r3, r3, #1
 800091a:	ea4f 0232 	mov.w	r2, r2, rrx
 800091e:	ebb6 0e02 	subs.w	lr, r6, r2
 8000922:	eb75 0e03 	sbcs.w	lr, r5, r3
 8000926:	bf22      	ittt	cs
 8000928:	1ab6      	subcs	r6, r6, r2
 800092a:	4675      	movcs	r5, lr
 800092c:	ea40 009c 	orrcs.w	r0, r0, ip, lsr #2
 8000930:	085b      	lsrs	r3, r3, #1
 8000932:	ea4f 0232 	mov.w	r2, r2, rrx
 8000936:	ebb6 0e02 	subs.w	lr, r6, r2
 800093a:	eb75 0e03 	sbcs.w	lr, r5, r3
 800093e:	bf22      	ittt	cs
 8000940:	1ab6      	subcs	r6, r6, r2
 8000942:	4675      	movcs	r5, lr
 8000944:	ea40 00dc 	orrcs.w	r0, r0, ip, lsr #3
 8000948:	ea55 0e06 	orrs.w	lr, r5, r6
 800094c:	d018      	beq.n	8000980 <__aeabi_ddiv+0x114>
 800094e:	ea4f 1505 	mov.w	r5, r5, lsl #4
 8000952:	ea45 7516 	orr.w	r5, r5, r6, lsr #28
 8000956:	ea4f 1606 	mov.w	r6, r6, lsl #4
 800095a:	ea4f 03c3 	mov.w	r3, r3, lsl #3
 800095e:	ea43 7352 	orr.w	r3, r3, r2, lsr #29
 8000962:	ea4f 02c2 	mov.w	r2, r2, lsl #3
 8000966:	ea5f 1c1c 	movs.w	ip, ip, lsr #4
 800096a:	d1c0      	bne.n	80008ee <__aeabi_ddiv+0x82>
 800096c:	f411 1f80 	tst.w	r1, #1048576	@ 0x100000
 8000970:	d10b      	bne.n	800098a <__aeabi_ddiv+0x11e>
 8000972:	ea41 0100 	orr.w	r1, r1, r0
 8000976:	f04f 0000 	mov.w	r0, #0
 800097a:	f04f 4c00 	mov.w	ip, #2147483648	@ 0x80000000
 800097e:	e7b6      	b.n	80008ee <__aeabi_ddiv+0x82>
 8000980:	f411 1f80 	tst.w	r1, #1048576	@ 0x100000
 8000984:	bf04      	itt	eq
 8000986:	4301      	orreq	r1, r0
 8000988:	2000      	moveq	r0, #0
 800098a:	f1b4 0cfd 	subs.w	ip, r4, #253	@ 0xfd
 800098e:	bf88      	it	hi
 8000990:	f5bc 6fe0 	cmphi.w	ip, #1792	@ 0x700
 8000994:	f63f aeaf 	bhi.w	80006f6 <__aeabi_dmul+0xde>
 8000998:	ebb5 0c03 	subs.w	ip, r5, r3
 800099c:	bf04      	itt	eq
 800099e:	ebb6 0c02 	subseq.w	ip, r6, r2
 80009a2:	ea5f 0c50 	movseq.w	ip, r0, lsr #1
 80009a6:	f150 0000 	adcs.w	r0, r0, #0
 80009aa:	eb41 5104 	adc.w	r1, r1, r4, lsl #20
 80009ae:	bd70      	pop	{r4, r5, r6, pc}
 80009b0:	f00e 4e00 	and.w	lr, lr, #2147483648	@ 0x80000000
 80009b4:	ea4e 3111 	orr.w	r1, lr, r1, lsr #12
 80009b8:	eb14 045c 	adds.w	r4, r4, ip, lsr #1
 80009bc:	bfc2      	ittt	gt
 80009be:	ebd4 050c 	rsbsgt	r5, r4, ip
 80009c2:	ea41 5104 	orrgt.w	r1, r1, r4, lsl #20
 80009c6:	bd70      	popgt	{r4, r5, r6, pc}
 80009c8:	f441 1180 	orr.w	r1, r1, #1048576	@ 0x100000
 80009cc:	f04f 0e00 	mov.w	lr, #0
 80009d0:	3c01      	subs	r4, #1
 80009d2:	e690      	b.n	80006f6 <__aeabi_dmul+0xde>
 80009d4:	ea45 0e06 	orr.w	lr, r5, r6
 80009d8:	e68d      	b.n	80006f6 <__aeabi_dmul+0xde>
 80009da:	ea0c 5513 	and.w	r5, ip, r3, lsr #20
 80009de:	ea94 0f0c 	teq	r4, ip
 80009e2:	bf08      	it	eq
 80009e4:	ea95 0f0c 	teqeq	r5, ip
 80009e8:	f43f af3b 	beq.w	8000862 <__aeabi_dmul+0x24a>
 80009ec:	ea94 0f0c 	teq	r4, ip
 80009f0:	d10a      	bne.n	8000a08 <__aeabi_ddiv+0x19c>
 80009f2:	ea50 3401 	orrs.w	r4, r0, r1, lsl #12
 80009f6:	f47f af34 	bne.w	8000862 <__aeabi_dmul+0x24a>
 80009fa:	ea95 0f0c 	teq	r5, ip
 80009fe:	f47f af25 	bne.w	800084c <__aeabi_dmul+0x234>
 8000a02:	4610      	mov	r0, r2
 8000a04:	4619      	mov	r1, r3
 8000a06:	e72c      	b.n	8000862 <__aeabi_dmul+0x24a>
 8000a08:	ea95 0f0c 	teq	r5, ip
 8000a0c:	d106      	bne.n	8000a1c <__aeabi_ddiv+0x1b0>
 8000a0e:	ea52 3503 	orrs.w	r5, r2, r3, lsl #12
 8000a12:	f43f aefd 	beq.w	8000810 <__aeabi_dmul+0x1f8>
 8000a16:	4610      	mov	r0, r2
 8000a18:	4619      	mov	r1, r3
 8000a1a:	e722      	b.n	8000862 <__aeabi_dmul+0x24a>
 8000a1c:	ea50 0641 	orrs.w	r6, r0, r1, lsl #1
 8000a20:	bf18      	it	ne
 8000a22:	ea52 0643 	orrsne.w	r6, r2, r3, lsl #1
 8000a26:	f47f aec5 	bne.w	80007b4 <__aeabi_dmul+0x19c>
 8000a2a:	ea50 0441 	orrs.w	r4, r0, r1, lsl #1
 8000a2e:	f47f af0d 	bne.w	800084c <__aeabi_dmul+0x234>
 8000a32:	ea52 0543 	orrs.w	r5, r2, r3, lsl #1
 8000a36:	f47f aeeb 	bne.w	8000810 <__aeabi_dmul+0x1f8>
 8000a3a:	e712      	b.n	8000862 <__aeabi_dmul+0x24a>

08000a3c <__gedf2>:
 8000a3c:	f04f 3cff 	mov.w	ip, #4294967295
 8000a40:	e006      	b.n	8000a50 <__cmpdf2+0x4>
 8000a42:	bf00      	nop

08000a44 <__ledf2>:
 8000a44:	f04f 0c01 	mov.w	ip, #1
 8000a48:	e002      	b.n	8000a50 <__cmpdf2+0x4>
 8000a4a:	bf00      	nop

08000a4c <__cmpdf2>:
 8000a4c:	f04f 0c01 	mov.w	ip, #1
 8000a50:	f84d cd04 	str.w	ip, [sp, #-4]!
 8000a54:	ea4f 0c41 	mov.w	ip, r1, lsl #1
 8000a58:	ea7f 5c6c 	mvns.w	ip, ip, asr #21
 8000a5c:	ea4f 0c43 	mov.w	ip, r3, lsl #1
 8000a60:	bf18      	it	ne
 8000a62:	ea7f 5c6c 	mvnsne.w	ip, ip, asr #21
 8000a66:	d01b      	beq.n	8000aa0 <__cmpdf2+0x54>
 8000a68:	b001      	add	sp, #4
 8000a6a:	ea50 0c41 	orrs.w	ip, r0, r1, lsl #1
 8000a6e:	bf0c      	ite	eq
 8000a70:	ea52 0c43 	orrseq.w	ip, r2, r3, lsl #1
 8000a74:	ea91 0f03 	teqne	r1, r3
 8000a78:	bf02      	ittt	eq
 8000a7a:	ea90 0f02 	teqeq	r0, r2
 8000a7e:	2000      	moveq	r0, #0
 8000a80:	4770      	bxeq	lr
 8000a82:	f110 0f00 	cmn.w	r0, #0
 8000a86:	ea91 0f03 	teq	r1, r3
 8000a8a:	bf58      	it	pl
 8000a8c:	4299      	cmppl	r1, r3
 8000a8e:	bf08      	it	eq
 8000a90:	4290      	cmpeq	r0, r2
 8000a92:	bf2c      	ite	cs
 8000a94:	17d8      	asrcs	r0, r3, #31
 8000a96:	ea6f 70e3 	mvncc.w	r0, r3, asr #31
 8000a9a:	f040 0001 	orr.w	r0, r0, #1
 8000a9e:	4770      	bx	lr
 8000aa0:	ea4f 0c41 	mov.w	ip, r1, lsl #1
 8000aa4:	ea7f 5c6c 	mvns.w	ip, ip, asr #21
 8000aa8:	d102      	bne.n	8000ab0 <__cmpdf2+0x64>
 8000aaa:	ea50 3c01 	orrs.w	ip, r0, r1, lsl #12
 8000aae:	d107      	bne.n	8000ac0 <__cmpdf2+0x74>
 8000ab0:	ea4f 0c43 	mov.w	ip, r3, lsl #1
 8000ab4:	ea7f 5c6c 	mvns.w	ip, ip, asr #21
 8000ab8:	d1d6      	bne.n	8000a68 <__cmpdf2+0x1c>
 8000aba:	ea52 3c03 	orrs.w	ip, r2, r3, lsl #12
 8000abe:	d0d3      	beq.n	8000a68 <__cmpdf2+0x1c>
 8000ac0:	f85d 0b04 	ldr.w	r0, [sp], #4
 8000ac4:	4770      	bx	lr
 8000ac6:	bf00      	nop

08000ac8 <__aeabi_cdrcmple>:
 8000ac8:	4684      	mov	ip, r0
 8000aca:	4610      	mov	r0, r2
 8000acc:	4662      	mov	r2, ip
 8000ace:	468c      	mov	ip, r1
 8000ad0:	4619      	mov	r1, r3
 8000ad2:	4663      	mov	r3, ip
 8000ad4:	e000      	b.n	8000ad8 <__aeabi_cdcmpeq>
 8000ad6:	bf00      	nop

08000ad8 <__aeabi_cdcmpeq>:
 8000ad8:	b501      	push	{r0, lr}
 8000ada:	f7ff ffb7 	bl	8000a4c <__cmpdf2>
 8000ade:	2800      	cmp	r0, #0
 8000ae0:	bf48      	it	mi
 8000ae2:	f110 0f00 	cmnmi.w	r0, #0
 8000ae6:	bd01      	pop	{r0, pc}

08000ae8 <__aeabi_dcmpeq>:
 8000ae8:	f84d ed08 	str.w	lr, [sp, #-8]!
 8000aec:	f7ff fff4 	bl	8000ad8 <__aeabi_cdcmpeq>
 8000af0:	bf0c      	ite	eq
 8000af2:	2001      	moveq	r0, #1
 8000af4:	2000      	movne	r0, #0
 8000af6:	f85d fb08 	ldr.w	pc, [sp], #8
 8000afa:	bf00      	nop

08000afc <__aeabi_dcmplt>:
 8000afc:	f84d ed08 	str.w	lr, [sp, #-8]!
 8000b00:	f7ff ffea 	bl	8000ad8 <__aeabi_cdcmpeq>
 8000b04:	bf34      	ite	cc
 8000b06:	2001      	movcc	r0, #1
 8000b08:	2000      	movcs	r0, #0
 8000b0a:	f85d fb08 	ldr.w	pc, [sp], #8
 8000b0e:	bf00      	nop

08000b10 <__aeabi_dcmple>:
 8000b10:	f84d ed08 	str.w	lr, [sp, #-8]!
 8000b14:	f7ff ffe0 	bl	8000ad8 <__aeabi_cdcmpeq>
 8000b18:	bf94      	ite	ls
 8000b1a:	2001      	movls	r0, #1
 8000b1c:	2000      	movhi	r0, #0
 8000b1e:	f85d fb08 	ldr.w	pc, [sp], #8
 8000b22:	bf00      	nop

08000b24 <__aeabi_dcmpge>:
 8000b24:	f84d ed08 	str.w	lr, [sp, #-8]!
 8000b28:	f7ff ffce 	bl	8000ac8 <__aeabi_cdrcmple>
 8000b2c:	bf94      	ite	ls
 8000b2e:	2001      	movls	r0, #1
 8000b30:	2000      	movhi	r0, #0
 8000b32:	f85d fb08 	ldr.w	pc, [sp], #8
 8000b36:	bf00      	nop

08000b38 <__aeabi_dcmpgt>:
 8000b38:	f84d ed08 	str.w	lr, [sp, #-8]!
 8000b3c:	f7ff ffc4 	bl	8000ac8 <__aeabi_cdrcmple>
 8000b40:	bf34      	ite	cc
 8000b42:	2001      	movcc	r0, #1
 8000b44:	2000      	movcs	r0, #0
 8000b46:	f85d fb08 	ldr.w	pc, [sp], #8
 8000b4a:	bf00      	nop

08000b4c <__aeabi_d2iz>:
 8000b4c:	ea4f 0241 	mov.w	r2, r1, lsl #1
 8000b50:	f512 1200 	adds.w	r2, r2, #2097152	@ 0x200000
 8000b54:	d215      	bcs.n	8000b82 <__aeabi_d2iz+0x36>
 8000b56:	d511      	bpl.n	8000b7c <__aeabi_d2iz+0x30>
 8000b58:	f46f 7378 	mvn.w	r3, #992	@ 0x3e0
 8000b5c:	ebb3 5262 	subs.w	r2, r3, r2, asr #21
 8000b60:	d912      	bls.n	8000b88 <__aeabi_d2iz+0x3c>
 8000b62:	ea4f 23c1 	mov.w	r3, r1, lsl #11
 8000b66:	f043 4300 	orr.w	r3, r3, #2147483648	@ 0x80000000
 8000b6a:	ea43 5350 	orr.w	r3, r3, r0, lsr #21
 8000b6e:	f011 4f00 	tst.w	r1, #2147483648	@ 0x80000000
 8000b72:	fa23 f002 	lsr.w	r0, r3, r2
 8000b76:	bf18      	it	ne
 8000b78:	4240      	negne	r0, r0
 8000b7a:	4770      	bx	lr
 8000b7c:	f04f 0000 	mov.w	r0, #0
 8000b80:	4770      	bx	lr
 8000b82:	ea50 3001 	orrs.w	r0, r0, r1, lsl #12
 8000b86:	d105      	bne.n	8000b94 <__aeabi_d2iz+0x48>
 8000b88:	f011 4000 	ands.w	r0, r1, #2147483648	@ 0x80000000
 8000b8c:	bf08      	it	eq
 8000b8e:	f06f 4000 	mvneq.w	r0, #2147483648	@ 0x80000000
 8000b92:	4770      	bx	lr
 8000b94:	f04f 0000 	mov.w	r0, #0
 8000b98:	4770      	bx	lr
 8000b9a:	bf00      	nop

08000b9c <__aeabi_d2uiz>:
 8000b9c:	004a      	lsls	r2, r1, #1
 8000b9e:	d211      	bcs.n	8000bc4 <__aeabi_d2uiz+0x28>
 8000ba0:	f512 1200 	adds.w	r2, r2, #2097152	@ 0x200000
 8000ba4:	d211      	bcs.n	8000bca <__aeabi_d2uiz+0x2e>
 8000ba6:	d50d      	bpl.n	8000bc4 <__aeabi_d2uiz+0x28>
 8000ba8:	f46f 7378 	mvn.w	r3, #992	@ 0x3e0
 8000bac:	ebb3 5262 	subs.w	r2, r3, r2, asr #21
 8000bb0:	d40e      	bmi.n	8000bd0 <__aeabi_d2uiz+0x34>
 8000bb2:	ea4f 23c1 	mov.w	r3, r1, lsl #11
 8000bb6:	f043 4300 	orr.w	r3, r3, #2147483648	@ 0x80000000
 8000bba:	ea43 5350 	orr.w	r3, r3, r0, lsr #21
 8000bbe:	fa23 f002 	lsr.w	r0, r3, r2
 8000bc2:	4770      	bx	lr
 8000bc4:	f04f 0000 	mov.w	r0, #0
 8000bc8:	4770      	bx	lr
 8000bca:	ea50 3001 	orrs.w	r0, r0, r1, lsl #12
 8000bce:	d102      	bne.n	8000bd6 <__aeabi_d2uiz+0x3a>
 8000bd0:	f04f 30ff 	mov.w	r0, #4294967295
 8000bd4:	4770      	bx	lr
 8000bd6:	f04f 0000 	mov.w	r0, #0
 8000bda:	4770      	bx	lr

08000bdc <__aeabi_uldivmod>:
 8000bdc:	b953      	cbnz	r3, 8000bf4 <__aeabi_uldivmod+0x18>
 8000bde:	b94a      	cbnz	r2, 8000bf4 <__aeabi_uldivmod+0x18>
 8000be0:	2900      	cmp	r1, #0
 8000be2:	bf08      	it	eq
 8000be4:	2800      	cmpeq	r0, #0
 8000be6:	bf1c      	itt	ne
 8000be8:	f04f 31ff 	movne.w	r1, #4294967295
 8000bec:	f04f 30ff 	movne.w	r0, #4294967295
 8000bf0:	f000 b9be 	b.w	8000f70 <__aeabi_idiv0>
 8000bf4:	f1ad 0c08 	sub.w	ip, sp, #8
 8000bf8:	e96d ce04 	strd	ip, lr, [sp, #-16]!
 8000bfc:	f000 f83c 	bl	8000c78 <__udivmoddi4>
 8000c00:	f8dd e004 	ldr.w	lr, [sp, #4]
 8000c04:	e9dd 2302 	ldrd	r2, r3, [sp, #8]
 8000c08:	b004      	add	sp, #16
 8000c0a:	4770      	bx	lr

08000c0c <__aeabi_d2lz>:
 8000c0c:	b538      	push	{r3, r4, r5, lr}
 8000c0e:	2200      	movs	r2, #0
 8000c10:	2300      	movs	r3, #0
 8000c12:	4604      	mov	r4, r0
 8000c14:	460d      	mov	r5, r1
 8000c16:	f7ff ff71 	bl	8000afc <__aeabi_dcmplt>
 8000c1a:	b928      	cbnz	r0, 8000c28 <__aeabi_d2lz+0x1c>
 8000c1c:	4620      	mov	r0, r4
 8000c1e:	4629      	mov	r1, r5
 8000c20:	e8bd 4038 	ldmia.w	sp!, {r3, r4, r5, lr}
 8000c24:	f000 b80a 	b.w	8000c3c <__aeabi_d2ulz>
 8000c28:	4620      	mov	r0, r4
 8000c2a:	f105 4100 	add.w	r1, r5, #2147483648	@ 0x80000000
 8000c2e:	f000 f805 	bl	8000c3c <__aeabi_d2ulz>
 8000c32:	4240      	negs	r0, r0
 8000c34:	eb61 0141 	sbc.w	r1, r1, r1, lsl #1
 8000c38:	bd38      	pop	{r3, r4, r5, pc}
 8000c3a:	bf00      	nop

08000c3c <__aeabi_d2ulz>:
 8000c3c:	b5d0      	push	{r4, r6, r7, lr}
 8000c3e:	4b0c      	ldr	r3, [pc, #48]	@ (8000c70 <__aeabi_d2ulz+0x34>)
 8000c40:	2200      	movs	r2, #0
 8000c42:	4606      	mov	r6, r0
 8000c44:	460f      	mov	r7, r1
 8000c46:	f7ff fce7 	bl	8000618 <__aeabi_dmul>
 8000c4a:	f7ff ffa7 	bl	8000b9c <__aeabi_d2uiz>
 8000c4e:	4604      	mov	r4, r0
 8000c50:	f7ff fc68 	bl	8000524 <__aeabi_ui2d>
 8000c54:	4b07      	ldr	r3, [pc, #28]	@ (8000c74 <__aeabi_d2ulz+0x38>)
 8000c56:	2200      	movs	r2, #0
 8000c58:	f7ff fcde 	bl	8000618 <__aeabi_dmul>
 8000c5c:	4602      	mov	r2, r0
 8000c5e:	460b      	mov	r3, r1
 8000c60:	4630      	mov	r0, r6
 8000c62:	4639      	mov	r1, r7
 8000c64:	f7ff fb20 	bl	80002a8 <__aeabi_dsub>
 8000c68:	f7ff ff98 	bl	8000b9c <__aeabi_d2uiz>
 8000c6c:	4621      	mov	r1, r4
 8000c6e:	bdd0      	pop	{r4, r6, r7, pc}
 8000c70:	3df00000 	.word	0x3df00000
 8000c74:	41f00000 	.word	0x41f00000

08000c78 <__udivmoddi4>:
 8000c78:	e92d 47f0 	stmdb	sp!, {r4, r5, r6, r7, r8, r9, sl, lr}
 8000c7c:	9d08      	ldr	r5, [sp, #32]
 8000c7e:	468e      	mov	lr, r1
 8000c80:	4604      	mov	r4, r0
 8000c82:	4688      	mov	r8, r1
 8000c84:	2b00      	cmp	r3, #0
 8000c86:	d14a      	bne.n	8000d1e <__udivmoddi4+0xa6>
 8000c88:	428a      	cmp	r2, r1
 8000c8a:	4617      	mov	r7, r2
 8000c8c:	d962      	bls.n	8000d54 <__udivmoddi4+0xdc>
 8000c8e:	fab2 f682 	clz	r6, r2
 8000c92:	b14e      	cbz	r6, 8000ca8 <__udivmoddi4+0x30>
 8000c94:	f1c6 0320 	rsb	r3, r6, #32
 8000c98:	fa01 f806 	lsl.w	r8, r1, r6
 8000c9c:	fa20 f303 	lsr.w	r3, r0, r3
 8000ca0:	40b7      	lsls	r7, r6
 8000ca2:	ea43 0808 	orr.w	r8, r3, r8
 8000ca6:	40b4      	lsls	r4, r6
 8000ca8:	ea4f 4e17 	mov.w	lr, r7, lsr #16
 8000cac:	fa1f fc87 	uxth.w	ip, r7
 8000cb0:	fbb8 f1fe 	udiv	r1, r8, lr
 8000cb4:	0c23      	lsrs	r3, r4, #16
 8000cb6:	fb0e 8811 	mls	r8, lr, r1, r8
 8000cba:	ea43 4308 	orr.w	r3, r3, r8, lsl #16
 8000cbe:	fb01 f20c 	mul.w	r2, r1, ip
 8000cc2:	429a      	cmp	r2, r3
 8000cc4:	d909      	bls.n	8000cda <__udivmoddi4+0x62>
 8000cc6:	18fb      	adds	r3, r7, r3
 8000cc8:	f101 30ff 	add.w	r0, r1, #4294967295
 8000ccc:	f080 80ea 	bcs.w	8000ea4 <__udivmoddi4+0x22c>
 8000cd0:	429a      	cmp	r2, r3
 8000cd2:	f240 80e7 	bls.w	8000ea4 <__udivmoddi4+0x22c>
 8000cd6:	3902      	subs	r1, #2
 8000cd8:	443b      	add	r3, r7
 8000cda:	1a9a      	subs	r2, r3, r2
 8000cdc:	b2a3      	uxth	r3, r4
 8000cde:	fbb2 f0fe 	udiv	r0, r2, lr
 8000ce2:	fb0e 2210 	mls	r2, lr, r0, r2
 8000ce6:	ea43 4302 	orr.w	r3, r3, r2, lsl #16
 8000cea:	fb00 fc0c 	mul.w	ip, r0, ip
 8000cee:	459c      	cmp	ip, r3
 8000cf0:	d909      	bls.n	8000d06 <__udivmoddi4+0x8e>
 8000cf2:	18fb      	adds	r3, r7, r3
 8000cf4:	f100 32ff 	add.w	r2, r0, #4294967295
 8000cf8:	f080 80d6 	bcs.w	8000ea8 <__udivmoddi4+0x230>
 8000cfc:	459c      	cmp	ip, r3
 8000cfe:	f240 80d3 	bls.w	8000ea8 <__udivmoddi4+0x230>
 8000d02:	443b      	add	r3, r7
 8000d04:	3802      	subs	r0, #2
 8000d06:	ea40 4001 	orr.w	r0, r0, r1, lsl #16
 8000d0a:	eba3 030c 	sub.w	r3, r3, ip
 8000d0e:	2100      	movs	r1, #0
 8000d10:	b11d      	cbz	r5, 8000d1a <__udivmoddi4+0xa2>
 8000d12:	40f3      	lsrs	r3, r6
 8000d14:	2200      	movs	r2, #0
 8000d16:	e9c5 3200 	strd	r3, r2, [r5]
 8000d1a:	e8bd 87f0 	ldmia.w	sp!, {r4, r5, r6, r7, r8, r9, sl, pc}
 8000d1e:	428b      	cmp	r3, r1
 8000d20:	d905      	bls.n	8000d2e <__udivmoddi4+0xb6>
 8000d22:	b10d      	cbz	r5, 8000d28 <__udivmoddi4+0xb0>
 8000d24:	e9c5 0100 	strd	r0, r1, [r5]
 8000d28:	2100      	movs	r1, #0
 8000d2a:	4608      	mov	r0, r1
 8000d2c:	e7f5      	b.n	8000d1a <__udivmoddi4+0xa2>
 8000d2e:	fab3 f183 	clz	r1, r3
 8000d32:	2900      	cmp	r1, #0
 8000d34:	d146      	bne.n	8000dc4 <__udivmoddi4+0x14c>
 8000d36:	4573      	cmp	r3, lr
 8000d38:	d302      	bcc.n	8000d40 <__udivmoddi4+0xc8>
 8000d3a:	4282      	cmp	r2, r0
 8000d3c:	f200 8105 	bhi.w	8000f4a <__udivmoddi4+0x2d2>
 8000d40:	1a84      	subs	r4, r0, r2
 8000d42:	eb6e 0203 	sbc.w	r2, lr, r3
 8000d46:	2001      	movs	r0, #1
 8000d48:	4690      	mov	r8, r2
 8000d4a:	2d00      	cmp	r5, #0
 8000d4c:	d0e5      	beq.n	8000d1a <__udivmoddi4+0xa2>
 8000d4e:	e9c5 4800 	strd	r4, r8, [r5]
 8000d52:	e7e2      	b.n	8000d1a <__udivmoddi4+0xa2>
 8000d54:	2a00      	cmp	r2, #0
 8000d56:	f000 8090 	beq.w	8000e7a <__udivmoddi4+0x202>
 8000d5a:	fab2 f682 	clz	r6, r2
 8000d5e:	2e00      	cmp	r6, #0
 8000d60:	f040 80a4 	bne.w	8000eac <__udivmoddi4+0x234>
 8000d64:	1a8a      	subs	r2, r1, r2
 8000d66:	0c03      	lsrs	r3, r0, #16
 8000d68:	ea4f 4e17 	mov.w	lr, r7, lsr #16
 8000d6c:	b280      	uxth	r0, r0
 8000d6e:	b2bc      	uxth	r4, r7
 8000d70:	2101      	movs	r1, #1
 8000d72:	fbb2 fcfe 	udiv	ip, r2, lr
 8000d76:	fb0e 221c 	mls	r2, lr, ip, r2
 8000d7a:	ea43 4302 	orr.w	r3, r3, r2, lsl #16
 8000d7e:	fb04 f20c 	mul.w	r2, r4, ip
 8000d82:	429a      	cmp	r2, r3
 8000d84:	d907      	bls.n	8000d96 <__udivmoddi4+0x11e>
 8000d86:	18fb      	adds	r3, r7, r3
 8000d88:	f10c 38ff 	add.w	r8, ip, #4294967295
 8000d8c:	d202      	bcs.n	8000d94 <__udivmoddi4+0x11c>
 8000d8e:	429a      	cmp	r2, r3
 8000d90:	f200 80e0 	bhi.w	8000f54 <__udivmoddi4+0x2dc>
 8000d94:	46c4      	mov	ip, r8
 8000d96:	1a9b      	subs	r3, r3, r2
 8000d98:	fbb3 f2fe 	udiv	r2, r3, lr
 8000d9c:	fb0e 3312 	mls	r3, lr, r2, r3
 8000da0:	ea40 4303 	orr.w	r3, r0, r3, lsl #16
 8000da4:	fb02 f404 	mul.w	r4, r2, r4
 8000da8:	429c      	cmp	r4, r3
 8000daa:	d907      	bls.n	8000dbc <__udivmoddi4+0x144>
 8000dac:	18fb      	adds	r3, r7, r3
 8000dae:	f102 30ff 	add.w	r0, r2, #4294967295
 8000db2:	d202      	bcs.n	8000dba <__udivmoddi4+0x142>
 8000db4:	429c      	cmp	r4, r3
 8000db6:	f200 80ca 	bhi.w	8000f4e <__udivmoddi4+0x2d6>
 8000dba:	4602      	mov	r2, r0
 8000dbc:	1b1b      	subs	r3, r3, r4
 8000dbe:	ea42 400c 	orr.w	r0, r2, ip, lsl #16
 8000dc2:	e7a5      	b.n	8000d10 <__udivmoddi4+0x98>
 8000dc4:	f1c1 0620 	rsb	r6, r1, #32
 8000dc8:	408b      	lsls	r3, r1
 8000dca:	fa22 f706 	lsr.w	r7, r2, r6
 8000dce:	431f      	orrs	r7, r3
 8000dd0:	fa0e f401 	lsl.w	r4, lr, r1
 8000dd4:	fa20 f306 	lsr.w	r3, r0, r6
 8000dd8:	fa2e fe06 	lsr.w	lr, lr, r6
 8000ddc:	ea4f 4917 	mov.w	r9, r7, lsr #16
 8000de0:	4323      	orrs	r3, r4
 8000de2:	fa00 f801 	lsl.w	r8, r0, r1
 8000de6:	fa1f fc87 	uxth.w	ip, r7
 8000dea:	fbbe f0f9 	udiv	r0, lr, r9
 8000dee:	0c1c      	lsrs	r4, r3, #16
 8000df0:	fb09 ee10 	mls	lr, r9, r0, lr
 8000df4:	ea44 440e 	orr.w	r4, r4, lr, lsl #16
 8000df8:	fb00 fe0c 	mul.w	lr, r0, ip
 8000dfc:	45a6      	cmp	lr, r4
 8000dfe:	fa02 f201 	lsl.w	r2, r2, r1
 8000e02:	d909      	bls.n	8000e18 <__udivmoddi4+0x1a0>
 8000e04:	193c      	adds	r4, r7, r4
 8000e06:	f100 3aff 	add.w	sl, r0, #4294967295
 8000e0a:	f080 809c 	bcs.w	8000f46 <__udivmoddi4+0x2ce>
 8000e0e:	45a6      	cmp	lr, r4
 8000e10:	f240 8099 	bls.w	8000f46 <__udivmoddi4+0x2ce>
 8000e14:	3802      	subs	r0, #2
 8000e16:	443c      	add	r4, r7
 8000e18:	eba4 040e 	sub.w	r4, r4, lr
 8000e1c:	fa1f fe83 	uxth.w	lr, r3
 8000e20:	fbb4 f3f9 	udiv	r3, r4, r9
 8000e24:	fb09 4413 	mls	r4, r9, r3, r4
 8000e28:	ea4e 4404 	orr.w	r4, lr, r4, lsl #16
 8000e2c:	fb03 fc0c 	mul.w	ip, r3, ip
 8000e30:	45a4      	cmp	ip, r4
 8000e32:	d908      	bls.n	8000e46 <__udivmoddi4+0x1ce>
 8000e34:	193c      	adds	r4, r7, r4
 8000e36:	f103 3eff 	add.w	lr, r3, #4294967295
 8000e3a:	f080 8082 	bcs.w	8000f42 <__udivmoddi4+0x2ca>
 8000e3e:	45a4      	cmp	ip, r4
 8000e40:	d97f      	bls.n	8000f42 <__udivmoddi4+0x2ca>
 8000e42:	3b02      	subs	r3, #2
 8000e44:	443c      	add	r4, r7
 8000e46:	ea43 4000 	orr.w	r0, r3, r0, lsl #16
 8000e4a:	eba4 040c 	sub.w	r4, r4, ip
 8000e4e:	fba0 ec02 	umull	lr, ip, r0, r2
 8000e52:	4564      	cmp	r4, ip
 8000e54:	4673      	mov	r3, lr
 8000e56:	46e1      	mov	r9, ip
 8000e58:	d362      	bcc.n	8000f20 <__udivmoddi4+0x2a8>
 8000e5a:	d05f      	beq.n	8000f1c <__udivmoddi4+0x2a4>
 8000e5c:	b15d      	cbz	r5, 8000e76 <__udivmoddi4+0x1fe>
 8000e5e:	ebb8 0203 	subs.w	r2, r8, r3
 8000e62:	eb64 0409 	sbc.w	r4, r4, r9
 8000e66:	fa04 f606 	lsl.w	r6, r4, r6
 8000e6a:	fa22 f301 	lsr.w	r3, r2, r1
 8000e6e:	431e      	orrs	r6, r3
 8000e70:	40cc      	lsrs	r4, r1
 8000e72:	e9c5 6400 	strd	r6, r4, [r5]
 8000e76:	2100      	movs	r1, #0
 8000e78:	e74f      	b.n	8000d1a <__udivmoddi4+0xa2>
 8000e7a:	fbb1 fcf2 	udiv	ip, r1, r2
 8000e7e:	0c01      	lsrs	r1, r0, #16
 8000e80:	ea41 410e 	orr.w	r1, r1, lr, lsl #16
 8000e84:	b280      	uxth	r0, r0
 8000e86:	ea40 4201 	orr.w	r2, r0, r1, lsl #16
 8000e8a:	463b      	mov	r3, r7
 8000e8c:	4638      	mov	r0, r7
 8000e8e:	463c      	mov	r4, r7
 8000e90:	46b8      	mov	r8, r7
 8000e92:	46be      	mov	lr, r7
 8000e94:	2620      	movs	r6, #32
 8000e96:	fbb1 f1f7 	udiv	r1, r1, r7
 8000e9a:	eba2 0208 	sub.w	r2, r2, r8
 8000e9e:	ea41 410c 	orr.w	r1, r1, ip, lsl #16
 8000ea2:	e766      	b.n	8000d72 <__udivmoddi4+0xfa>
 8000ea4:	4601      	mov	r1, r0
 8000ea6:	e718      	b.n	8000cda <__udivmoddi4+0x62>
 8000ea8:	4610      	mov	r0, r2
 8000eaa:	e72c      	b.n	8000d06 <__udivmoddi4+0x8e>
 8000eac:	f1c6 0220 	rsb	r2, r6, #32
 8000eb0:	fa2e f302 	lsr.w	r3, lr, r2
 8000eb4:	40b7      	lsls	r7, r6
 8000eb6:	40b1      	lsls	r1, r6
 8000eb8:	fa20 f202 	lsr.w	r2, r0, r2
 8000ebc:	ea4f 4e17 	mov.w	lr, r7, lsr #16
 8000ec0:	430a      	orrs	r2, r1
 8000ec2:	fbb3 f8fe 	udiv	r8, r3, lr
 8000ec6:	b2bc      	uxth	r4, r7
 8000ec8:	fb0e 3318 	mls	r3, lr, r8, r3
 8000ecc:	0c11      	lsrs	r1, r2, #16
 8000ece:	ea41 4103 	orr.w	r1, r1, r3, lsl #16
 8000ed2:	fb08 f904 	mul.w	r9, r8, r4
 8000ed6:	40b0      	lsls	r0, r6
 8000ed8:	4589      	cmp	r9, r1
 8000eda:	ea4f 4310 	mov.w	r3, r0, lsr #16
 8000ede:	b280      	uxth	r0, r0
 8000ee0:	d93e      	bls.n	8000f60 <__udivmoddi4+0x2e8>
 8000ee2:	1879      	adds	r1, r7, r1
 8000ee4:	f108 3cff 	add.w	ip, r8, #4294967295
 8000ee8:	d201      	bcs.n	8000eee <__udivmoddi4+0x276>
 8000eea:	4589      	cmp	r9, r1
 8000eec:	d81f      	bhi.n	8000f2e <__udivmoddi4+0x2b6>
 8000eee:	eba1 0109 	sub.w	r1, r1, r9
 8000ef2:	fbb1 f9fe 	udiv	r9, r1, lr
 8000ef6:	fb09 f804 	mul.w	r8, r9, r4
 8000efa:	fb0e 1119 	mls	r1, lr, r9, r1
 8000efe:	b292      	uxth	r2, r2
 8000f00:	ea42 4201 	orr.w	r2, r2, r1, lsl #16
 8000f04:	4542      	cmp	r2, r8
 8000f06:	d229      	bcs.n	8000f5c <__udivmoddi4+0x2e4>
 8000f08:	18ba      	adds	r2, r7, r2
 8000f0a:	f109 31ff 	add.w	r1, r9, #4294967295
 8000f0e:	d2c4      	bcs.n	8000e9a <__udivmoddi4+0x222>
 8000f10:	4542      	cmp	r2, r8
 8000f12:	d2c2      	bcs.n	8000e9a <__udivmoddi4+0x222>
 8000f14:	f1a9 0102 	sub.w	r1, r9, #2
 8000f18:	443a      	add	r2, r7
 8000f1a:	e7be      	b.n	8000e9a <__udivmoddi4+0x222>
 8000f1c:	45f0      	cmp	r8, lr
 8000f1e:	d29d      	bcs.n	8000e5c <__udivmoddi4+0x1e4>
 8000f20:	ebbe 0302 	subs.w	r3, lr, r2
 8000f24:	eb6c 0c07 	sbc.w	ip, ip, r7
 8000f28:	3801      	subs	r0, #1
 8000f2a:	46e1      	mov	r9, ip
 8000f2c:	e796      	b.n	8000e5c <__udivmoddi4+0x1e4>
 8000f2e:	eba7 0909 	sub.w	r9, r7, r9
 8000f32:	4449      	add	r1, r9
 8000f34:	f1a8 0c02 	sub.w	ip, r8, #2
 8000f38:	fbb1 f9fe 	udiv	r9, r1, lr
 8000f3c:	fb09 f804 	mul.w	r8, r9, r4
 8000f40:	e7db      	b.n	8000efa <__udivmoddi4+0x282>
 8000f42:	4673      	mov	r3, lr
 8000f44:	e77f      	b.n	8000e46 <__udivmoddi4+0x1ce>
 8000f46:	4650      	mov	r0, sl
 8000f48:	e766      	b.n	8000e18 <__udivmoddi4+0x1a0>
 8000f4a:	4608      	mov	r0, r1
 8000f4c:	e6fd      	b.n	8000d4a <__udivmoddi4+0xd2>
 8000f4e:	443b      	add	r3, r7
 8000f50:	3a02      	subs	r2, #2
 8000f52:	e733      	b.n	8000dbc <__udivmoddi4+0x144>
 8000f54:	f1ac 0c02 	sub.w	ip, ip, #2
 8000f58:	443b      	add	r3, r7
 8000f5a:	e71c      	b.n	8000d96 <__udivmoddi4+0x11e>
 8000f5c:	4649      	mov	r1, r9
 8000f5e:	e79c      	b.n	8000e9a <__udivmoddi4+0x222>
 8000f60:	eba1 0109 	sub.w	r1, r1, r9
 8000f64:	46c4      	mov	ip, r8
 8000f66:	fbb1 f9fe 	udiv	r9, r1, lr
 8000f6a:	fb09 f804 	mul.w	r8, r9, r4
 8000f6e:	e7c4      	b.n	8000efa <__udivmoddi4+0x282>

08000f70 <__aeabi_idiv0>:
 8000f70:	4770      	bx	lr
 8000f72:	bf00      	nop

08000f74 <XPT2046_TouchSelect>:
}

#endif /* SOFTWARE_SPI */

static void XPT2046_TouchSelect()
{
 8000f74:	b580      	push	{r7, lr}
 8000f76:	af00      	add	r7, sp, #0
    HAL_GPIO_WritePin(XPT2046_CS_GPIO_Port, XPT2046_CS_Pin, GPIO_PIN_RESET);
 8000f78:	2200      	movs	r2, #0
 8000f7a:	f44f 5180 	mov.w	r1, #4096	@ 0x1000
 8000f7e:	4802      	ldr	r0, [pc, #8]	@ (8000f88 <XPT2046_TouchSelect+0x14>)
 8000f80:	f005 f9cc 	bl	800631c <HAL_GPIO_WritePin>
}
 8000f84:	bf00      	nop
 8000f86:	bd80      	pop	{r7, pc}
 8000f88:	40020400 	.word	0x40020400

08000f8c <XPT2046_TouchUnselect>:

static void XPT2046_TouchUnselect()
{
 8000f8c:	b580      	push	{r7, lr}
 8000f8e:	af00      	add	r7, sp, #0
    HAL_GPIO_WritePin(XPT2046_CS_GPIO_Port, XPT2046_CS_Pin, GPIO_PIN_SET);
 8000f90:	2201      	movs	r2, #1
 8000f92:	f44f 5180 	mov.w	r1, #4096	@ 0x1000
 8000f96:	4802      	ldr	r0, [pc, #8]	@ (8000fa0 <XPT2046_TouchUnselect+0x14>)
 8000f98:	f005 f9c0 	bl	800631c <HAL_GPIO_WritePin>
}
 8000f9c:	bf00      	nop
 8000f9e:	bd80      	pop	{r7, pc}
 8000fa0:	40020400 	.word	0x40020400

08000fa4 <XPT2046_TouchPressed>:

bool XPT2046_TouchPressed(void)
{
 8000fa4:	b580      	push	{r7, lr}
 8000fa6:	af00      	add	r7, sp, #0
    return HAL_GPIO_ReadPin(XPT2046_IRQ_GPIO_Port, XPT2046_IRQ_Pin) == GPIO_PIN_RESET;
 8000fa8:	2120      	movs	r1, #32
 8000faa:	4805      	ldr	r0, [pc, #20]	@ (8000fc0 <XPT2046_TouchPressed+0x1c>)
 8000fac:	f005 f99e 	bl	80062ec <HAL_GPIO_ReadPin>
 8000fb0:	4603      	mov	r3, r0
 8000fb2:	2b00      	cmp	r3, #0
 8000fb4:	bf0c      	ite	eq
 8000fb6:	2301      	moveq	r3, #1
 8000fb8:	2300      	movne	r3, #0
 8000fba:	b2db      	uxtb	r3, r3
}
 8000fbc:	4618      	mov	r0, r3
 8000fbe:	bd80      	pop	{r7, pc}
 8000fc0:	40020800 	.word	0x40020800

08000fc4 <XPT2046_TouchGetCoordinates>:

bool XPT2046_TouchGetCoordinates(uint16_t* x, uint16_t* y)
{
 8000fc4:	b580      	push	{r7, lr}
 8000fc6:	b08c      	sub	sp, #48	@ 0x30
 8000fc8:	af02      	add	r7, sp, #8
 8000fca:	6078      	str	r0, [r7, #4]
 8000fcc:	6039      	str	r1, [r7, #0]
    static const uint8_t cmd_read_y[] = { READ_Y };
    static const uint8_t zeroes_tx[] = { 0x00, 0x00 };

#endif /* SOFTWARE_SPI */

    XPT2046_TouchSelect();
 8000fce:	f7ff ffd1 	bl	8000f74 <XPT2046_TouchSelect>

    uint32_t avg_x = 0;
 8000fd2:	2300      	movs	r3, #0
 8000fd4:	627b      	str	r3, [r7, #36]	@ 0x24
    uint32_t avg_y = 0;
 8000fd6:	2300      	movs	r3, #0
 8000fd8:	623b      	str	r3, [r7, #32]
    uint8_t nsamples = 0;
 8000fda:	2300      	movs	r3, #0
 8000fdc:	77fb      	strb	r3, [r7, #31]

    for(uint8_t i = 0; i < 16; i++)
 8000fde:	2300      	movs	r3, #0
 8000fe0:	77bb      	strb	r3, [r7, #30]
 8000fe2:	e03f      	b.n	8001064 <XPT2046_TouchGetCoordinates+0xa0>
    {
        if(!XPT2046_TouchPressed())
 8000fe4:	f7ff ffde 	bl	8000fa4 <XPT2046_TouchPressed>
 8000fe8:	4603      	mov	r3, r0
 8000fea:	f083 0301 	eor.w	r3, r3, #1
 8000fee:	b2db      	uxtb	r3, r3
 8000ff0:	2b00      	cmp	r3, #0
 8000ff2:	d13b      	bne.n	800106c <XPT2046_TouchGetCoordinates+0xa8>
            break;

        nsamples++;
 8000ff4:	7ffb      	ldrb	r3, [r7, #31]
 8000ff6:	3301      	adds	r3, #1
 8000ff8:	77fb      	strb	r3, [r7, #31]
	   x_raw[0] = spi_read_byte();
	   x_raw[1] = spi_read_byte();

#else

        HAL_SPI_Transmit(&XPT2046_SPI_PORT, (uint8_t*)cmd_read_y, sizeof(cmd_read_y), HAL_MAX_DELAY);
 8000ffa:	f04f 33ff 	mov.w	r3, #4294967295
 8000ffe:	2201      	movs	r2, #1
 8001000:	4945      	ldr	r1, [pc, #276]	@ (8001118 <XPT2046_TouchGetCoordinates+0x154>)
 8001002:	4846      	ldr	r0, [pc, #280]	@ (800111c <XPT2046_TouchGetCoordinates+0x158>)
 8001004:	f005 fedd 	bl	8006dc2 <HAL_SPI_Transmit>
        HAL_SPI_TransmitReceive(&XPT2046_SPI_PORT, (uint8_t*)zeroes_tx, y_raw, sizeof(y_raw), HAL_MAX_DELAY);
 8001008:	f107 0210 	add.w	r2, r7, #16
 800100c:	f04f 33ff 	mov.w	r3, #4294967295
 8001010:	9300      	str	r3, [sp, #0]
 8001012:	2302      	movs	r3, #2
 8001014:	4942      	ldr	r1, [pc, #264]	@ (8001120 <XPT2046_TouchGetCoordinates+0x15c>)
 8001016:	4841      	ldr	r0, [pc, #260]	@ (800111c <XPT2046_TouchGetCoordinates+0x158>)
 8001018:	f006 f817 	bl	800704a <HAL_SPI_TransmitReceive>

        HAL_SPI_Transmit(&XPT2046_SPI_PORT, (uint8_t*)cmd_read_x, sizeof(cmd_read_x), HAL_MAX_DELAY);
 800101c:	f04f 33ff 	mov.w	r3, #4294967295
 8001020:	2201      	movs	r2, #1
 8001022:	4940      	ldr	r1, [pc, #256]	@ (8001124 <XPT2046_TouchGetCoordinates+0x160>)
 8001024:	483d      	ldr	r0, [pc, #244]	@ (800111c <XPT2046_TouchGetCoordinates+0x158>)
 8001026:	f005 fecc 	bl	8006dc2 <HAL_SPI_Transmit>
        HAL_SPI_TransmitReceive(&XPT2046_SPI_PORT, (uint8_t*)zeroes_tx, x_raw, sizeof(x_raw), HAL_MAX_DELAY);
 800102a:	f107 020c 	add.w	r2, r7, #12
 800102e:	f04f 33ff 	mov.w	r3, #4294967295
 8001032:	9300      	str	r3, [sp, #0]
 8001034:	2302      	movs	r3, #2
 8001036:	493a      	ldr	r1, [pc, #232]	@ (8001120 <XPT2046_TouchGetCoordinates+0x15c>)
 8001038:	4838      	ldr	r0, [pc, #224]	@ (800111c <XPT2046_TouchGetCoordinates+0x158>)
 800103a:	f006 f806 	bl	800704a <HAL_SPI_TransmitReceive>

#endif /* SOFTWARE_SPI */

        avg_x += (((uint16_t)x_raw[0]) << 8) | ((uint16_t)x_raw[1]);
 800103e:	7b3b      	ldrb	r3, [r7, #12]
 8001040:	021b      	lsls	r3, r3, #8
 8001042:	7b7a      	ldrb	r2, [r7, #13]
 8001044:	4313      	orrs	r3, r2
 8001046:	461a      	mov	r2, r3
 8001048:	6a7b      	ldr	r3, [r7, #36]	@ 0x24
 800104a:	4413      	add	r3, r2
 800104c:	627b      	str	r3, [r7, #36]	@ 0x24
        avg_y += (((uint16_t)y_raw[0]) << 8) | ((uint16_t)y_raw[1]);
 800104e:	7c3b      	ldrb	r3, [r7, #16]
 8001050:	021b      	lsls	r3, r3, #8
 8001052:	7c7a      	ldrb	r2, [r7, #17]
 8001054:	4313      	orrs	r3, r2
 8001056:	461a      	mov	r2, r3
 8001058:	6a3b      	ldr	r3, [r7, #32]
 800105a:	4413      	add	r3, r2
 800105c:	623b      	str	r3, [r7, #32]
    for(uint8_t i = 0; i < 16; i++)
 800105e:	7fbb      	ldrb	r3, [r7, #30]
 8001060:	3301      	adds	r3, #1
 8001062:	77bb      	strb	r3, [r7, #30]
 8001064:	7fbb      	ldrb	r3, [r7, #30]
 8001066:	2b0f      	cmp	r3, #15
 8001068:	d9bc      	bls.n	8000fe4 <XPT2046_TouchGetCoordinates+0x20>
 800106a:	e000      	b.n	800106e <XPT2046_TouchGetCoordinates+0xaa>
            break;
 800106c:	bf00      	nop
    }

    XPT2046_TouchUnselect();
 800106e:	f7ff ff8d 	bl	8000f8c <XPT2046_TouchUnselect>

    if(nsamples < 16)
 8001072:	7ffb      	ldrb	r3, [r7, #31]
 8001074:	2b0f      	cmp	r3, #15
 8001076:	d801      	bhi.n	800107c <XPT2046_TouchGetCoordinates+0xb8>
        return false;
 8001078:	2300      	movs	r3, #0
 800107a:	e049      	b.n	8001110 <XPT2046_TouchGetCoordinates+0x14c>

    uint32_t raw_x = (avg_x / 16);
 800107c:	6a7b      	ldr	r3, [r7, #36]	@ 0x24
 800107e:	091b      	lsrs	r3, r3, #4
 8001080:	61bb      	str	r3, [r7, #24]
    if(raw_x < XPT2046_MIN_RAW_X) raw_x = XPT2046_MIN_RAW_X;
 8001082:	69bb      	ldr	r3, [r7, #24]
 8001084:	f640 5247 	movw	r2, #3399	@ 0xd47
 8001088:	4293      	cmp	r3, r2
 800108a:	d802      	bhi.n	8001092 <XPT2046_TouchGetCoordinates+0xce>
 800108c:	f640 5348 	movw	r3, #3400	@ 0xd48
 8001090:	61bb      	str	r3, [r7, #24]
    if(raw_x > XPT2046_MAX_RAW_X) raw_x = XPT2046_MAX_RAW_X;
 8001092:	69bb      	ldr	r3, [r7, #24]
 8001094:	f247 1248 	movw	r2, #29000	@ 0x7148
 8001098:	4293      	cmp	r3, r2
 800109a:	d902      	bls.n	80010a2 <XPT2046_TouchGetCoordinates+0xde>
 800109c:	f247 1348 	movw	r3, #29000	@ 0x7148
 80010a0:	61bb      	str	r3, [r7, #24]

    uint32_t raw_y = (avg_y / 16);
 80010a2:	6a3b      	ldr	r3, [r7, #32]
 80010a4:	091b      	lsrs	r3, r3, #4
 80010a6:	617b      	str	r3, [r7, #20]
    if(raw_y < XPT2046_MIN_RAW_Y) raw_y = XPT2046_MIN_RAW_Y;
 80010a8:	697b      	ldr	r3, [r7, #20]
 80010aa:	f640 42e3 	movw	r2, #3299	@ 0xce3
 80010ae:	4293      	cmp	r3, r2
 80010b0:	d802      	bhi.n	80010b8 <XPT2046_TouchGetCoordinates+0xf4>
 80010b2:	f640 43e4 	movw	r3, #3300	@ 0xce4
 80010b6:	617b      	str	r3, [r7, #20]
    if(raw_y > XPT2046_MAX_RAW_Y) raw_y = XPT2046_MAX_RAW_Y;
 80010b8:	697b      	ldr	r3, [r7, #20]
 80010ba:	f247 5230 	movw	r2, #30000	@ 0x7530
 80010be:	4293      	cmp	r3, r2
 80010c0:	d902      	bls.n	80010c8 <XPT2046_TouchGetCoordinates+0x104>
 80010c2:	f247 5330 	movw	r3, #30000	@ 0x7530
 80010c6:	617b      	str	r3, [r7, #20]
	*y = (raw_y - XPT2046_MIN_RAW_Y) * XPT2046_SCALE_Y / (XPT2046_MAX_RAW_Y - XPT2046_MIN_RAW_Y);
#elif (ORIENTATION == 1)
	*x = (raw_x - XPT2046_MIN_RAW_X) * XPT2046_SCALE_X / (XPT2046_MAX_RAW_X - XPT2046_MIN_RAW_X);
	*y = (raw_y - XPT2046_MIN_RAW_Y) * XPT2046_SCALE_Y / (XPT2046_MAX_RAW_Y - XPT2046_MIN_RAW_Y);
#elif (ORIENTATION == 2)
    *x = (raw_x - XPT2046_MIN_RAW_X) * XPT2046_SCALE_X / (XPT2046_MAX_RAW_X - XPT2046_MIN_RAW_X);
 80010c8:	69ba      	ldr	r2, [r7, #24]
 80010ca:	4613      	mov	r3, r2
 80010cc:	011b      	lsls	r3, r3, #4
 80010ce:	1a9b      	subs	r3, r3, r2
 80010d0:	011b      	lsls	r3, r3, #4
 80010d2:	f5a3 2347 	sub.w	r3, r3, #815104	@ 0xc7000
 80010d6:	f5a3 7360 	sub.w	r3, r3, #896	@ 0x380
 80010da:	4a13      	ldr	r2, [pc, #76]	@ (8001128 <XPT2046_TouchGetCoordinates+0x164>)
 80010dc:	fba2 2303 	umull	r2, r3, r2, r3
 80010e0:	0b5b      	lsrs	r3, r3, #13
 80010e2:	b29a      	uxth	r2, r3
 80010e4:	687b      	ldr	r3, [r7, #4]
 80010e6:	801a      	strh	r2, [r3, #0]
    *y = XPT2046_SCALE_Y - (raw_y - XPT2046_MIN_RAW_Y) * XPT2046_SCALE_Y / (XPT2046_MAX_RAW_Y - XPT2046_MIN_RAW_Y);
 80010e8:	697a      	ldr	r2, [r7, #20]
 80010ea:	4613      	mov	r3, r2
 80010ec:	009b      	lsls	r3, r3, #2
 80010ee:	4413      	add	r3, r2
 80010f0:	019b      	lsls	r3, r3, #6
 80010f2:	f5a3 1380 	sub.w	r3, r3, #1048576	@ 0x100000
 80010f6:	f5a3 53e8 	sub.w	r3, r3, #7424	@ 0x1d00
 80010fa:	4a0c      	ldr	r2, [pc, #48]	@ (800112c <XPT2046_TouchGetCoordinates+0x168>)
 80010fc:	fba2 2303 	umull	r2, r3, r2, r3
 8001100:	0b5b      	lsrs	r3, r3, #13
 8001102:	b29b      	uxth	r3, r3
 8001104:	f5c3 73a0 	rsb	r3, r3, #320	@ 0x140
 8001108:	b29a      	uxth	r2, r3
 800110a:	683b      	ldr	r3, [r7, #0]
 800110c:	801a      	strh	r2, [r3, #0]
#elif (ORIENTATION == 3)
    *x = XPT2046_SCALE_X - (raw_x - XPT2046_MIN_RAW_X) * XPT2046_SCALE_X / (XPT2046_MAX_RAW_X - XPT2046_MIN_RAW_X);
    *y = (raw_y - XPT2046_MIN_RAW_Y) * XPT2046_SCALE_Y / (XPT2046_MAX_RAW_Y - XPT2046_MIN_RAW_Y);
#endif

    return true;
 800110e:	2301      	movs	r3, #1
}
 8001110:	4618      	mov	r0, r3
 8001112:	3728      	adds	r7, #40	@ 0x28
 8001114:	46bd      	mov	sp, r7
 8001116:	bd80      	pop	{r7, pc}
 8001118:	08031734 	.word	0x08031734
 800111c:	20000500 	.word	0x20000500
 8001120:	08031738 	.word	0x08031738
 8001124:	0803173c 	.word	0x0803173c
 8001128:	51eb851f 	.word	0x51eb851f
 800112c:	4e8b8659 	.word	0x4e8b8659

08001130 <case_insensitive_strcmp>:
    return version;
}

/* Case insensitive string comparison, doesn't consider two NULL pointers equal though */
static int case_insensitive_strcmp(const unsigned char *string1, const unsigned char *string2)
{
 8001130:	b480      	push	{r7}
 8001132:	b085      	sub	sp, #20
 8001134:	af00      	add	r7, sp, #0
 8001136:	6078      	str	r0, [r7, #4]
 8001138:	6039      	str	r1, [r7, #0]
    if ((string1 == NULL) || (string2 == NULL))
 800113a:	687b      	ldr	r3, [r7, #4]
 800113c:	2b00      	cmp	r3, #0
 800113e:	d002      	beq.n	8001146 <case_insensitive_strcmp+0x16>
 8001140:	683b      	ldr	r3, [r7, #0]
 8001142:	2b00      	cmp	r3, #0
 8001144:	d101      	bne.n	800114a <case_insensitive_strcmp+0x1a>
    {
        return 1;
 8001146:	2301      	movs	r3, #1
 8001148:	e056      	b.n	80011f8 <case_insensitive_strcmp+0xc8>
    }

    if (string1 == string2)
 800114a:	687a      	ldr	r2, [r7, #4]
 800114c:	683b      	ldr	r3, [r7, #0]
 800114e:	429a      	cmp	r2, r3
 8001150:	d10d      	bne.n	800116e <case_insensitive_strcmp+0x3e>
    {
        return 0;
 8001152:	2300      	movs	r3, #0
 8001154:	e050      	b.n	80011f8 <case_insensitive_strcmp+0xc8>
    }

    for(; tolower(*string1) == tolower(*string2); (void)string1++, string2++)
    {
        if (*string1 == '\0')
 8001156:	687b      	ldr	r3, [r7, #4]
 8001158:	781b      	ldrb	r3, [r3, #0]
 800115a:	2b00      	cmp	r3, #0
 800115c:	d101      	bne.n	8001162 <case_insensitive_strcmp+0x32>
        {
            return 0;
 800115e:	2300      	movs	r3, #0
 8001160:	e04a      	b.n	80011f8 <case_insensitive_strcmp+0xc8>
    for(; tolower(*string1) == tolower(*string2); (void)string1++, string2++)
 8001162:	687b      	ldr	r3, [r7, #4]
 8001164:	3301      	adds	r3, #1
 8001166:	607b      	str	r3, [r7, #4]
 8001168:	683b      	ldr	r3, [r7, #0]
 800116a:	3301      	adds	r3, #1
 800116c:	603b      	str	r3, [r7, #0]
 800116e:	687b      	ldr	r3, [r7, #4]
 8001170:	781b      	ldrb	r3, [r3, #0]
 8001172:	73fb      	strb	r3, [r7, #15]
 8001174:	7bfb      	ldrb	r3, [r7, #15]
 8001176:	3301      	adds	r3, #1
 8001178:	4a22      	ldr	r2, [pc, #136]	@ (8001204 <case_insensitive_strcmp+0xd4>)
 800117a:	4413      	add	r3, r2
 800117c:	781b      	ldrb	r3, [r3, #0]
 800117e:	f003 0303 	and.w	r3, r3, #3
 8001182:	2b01      	cmp	r3, #1
 8001184:	d103      	bne.n	800118e <case_insensitive_strcmp+0x5e>
 8001186:	7bfb      	ldrb	r3, [r7, #15]
 8001188:	f103 0220 	add.w	r2, r3, #32
 800118c:	e000      	b.n	8001190 <case_insensitive_strcmp+0x60>
 800118e:	7bfa      	ldrb	r2, [r7, #15]
 8001190:	683b      	ldr	r3, [r7, #0]
 8001192:	781b      	ldrb	r3, [r3, #0]
 8001194:	73bb      	strb	r3, [r7, #14]
 8001196:	7bbb      	ldrb	r3, [r7, #14]
 8001198:	3301      	adds	r3, #1
 800119a:	491a      	ldr	r1, [pc, #104]	@ (8001204 <case_insensitive_strcmp+0xd4>)
 800119c:	440b      	add	r3, r1
 800119e:	781b      	ldrb	r3, [r3, #0]
 80011a0:	f003 0303 	and.w	r3, r3, #3
 80011a4:	2b01      	cmp	r3, #1
 80011a6:	d102      	bne.n	80011ae <case_insensitive_strcmp+0x7e>
 80011a8:	7bbb      	ldrb	r3, [r7, #14]
 80011aa:	3320      	adds	r3, #32
 80011ac:	e000      	b.n	80011b0 <case_insensitive_strcmp+0x80>
 80011ae:	7bbb      	ldrb	r3, [r7, #14]
 80011b0:	429a      	cmp	r2, r3
 80011b2:	d0d0      	beq.n	8001156 <case_insensitive_strcmp+0x26>
        }
    }

    return tolower(*string1) - tolower(*string2);
 80011b4:	687b      	ldr	r3, [r7, #4]
 80011b6:	781b      	ldrb	r3, [r3, #0]
 80011b8:	737b      	strb	r3, [r7, #13]
 80011ba:	7b7b      	ldrb	r3, [r7, #13]
 80011bc:	3301      	adds	r3, #1
 80011be:	4a11      	ldr	r2, [pc, #68]	@ (8001204 <case_insensitive_strcmp+0xd4>)
 80011c0:	4413      	add	r3, r2
 80011c2:	781b      	ldrb	r3, [r3, #0]
 80011c4:	f003 0303 	and.w	r3, r3, #3
 80011c8:	2b01      	cmp	r3, #1
 80011ca:	d103      	bne.n	80011d4 <case_insensitive_strcmp+0xa4>
 80011cc:	7b7b      	ldrb	r3, [r7, #13]
 80011ce:	f103 0220 	add.w	r2, r3, #32
 80011d2:	e000      	b.n	80011d6 <case_insensitive_strcmp+0xa6>
 80011d4:	7b7a      	ldrb	r2, [r7, #13]
 80011d6:	683b      	ldr	r3, [r7, #0]
 80011d8:	781b      	ldrb	r3, [r3, #0]
 80011da:	733b      	strb	r3, [r7, #12]
 80011dc:	7b3b      	ldrb	r3, [r7, #12]
 80011de:	3301      	adds	r3, #1
 80011e0:	4908      	ldr	r1, [pc, #32]	@ (8001204 <case_insensitive_strcmp+0xd4>)
 80011e2:	440b      	add	r3, r1
 80011e4:	781b      	ldrb	r3, [r3, #0]
 80011e6:	f003 0303 	and.w	r3, r3, #3
 80011ea:	2b01      	cmp	r3, #1
 80011ec:	d102      	bne.n	80011f4 <case_insensitive_strcmp+0xc4>
 80011ee:	7b3b      	ldrb	r3, [r7, #12]
 80011f0:	3320      	adds	r3, #32
 80011f2:	e000      	b.n	80011f6 <case_insensitive_strcmp+0xc6>
 80011f4:	7b3b      	ldrb	r3, [r7, #12]
 80011f6:	1ad3      	subs	r3, r2, r3
}
 80011f8:	4618      	mov	r0, r3
 80011fa:	3714      	adds	r7, #20
 80011fc:	46bd      	mov	sp, r7
 80011fe:	f85d 7b04 	ldr.w	r7, [sp], #4
 8001202:	4770      	bx	lr
 8001204:	08033840 	.word	0x08033840

08001208 <cJSON_New_Item>:
    }
}

/* Internal constructor. */
static cJSON *cJSON_New_Item(const internal_hooks * const hooks)
{
 8001208:	b580      	push	{r7, lr}
 800120a:	b084      	sub	sp, #16
 800120c:	af00      	add	r7, sp, #0
 800120e:	6078      	str	r0, [r7, #4]
    cJSON* node = (cJSON*)hooks->allocate(sizeof(cJSON));
 8001210:	687b      	ldr	r3, [r7, #4]
 8001212:	681b      	ldr	r3, [r3, #0]
 8001214:	2028      	movs	r0, #40	@ 0x28
 8001216:	4798      	blx	r3
 8001218:	60f8      	str	r0, [r7, #12]
    if (node)
 800121a:	68fb      	ldr	r3, [r7, #12]
 800121c:	2b00      	cmp	r3, #0
 800121e:	d004      	beq.n	800122a <cJSON_New_Item+0x22>
    {
        memset(node, '\0', sizeof(cJSON));
 8001220:	2228      	movs	r2, #40	@ 0x28
 8001222:	2100      	movs	r1, #0
 8001224:	68f8      	ldr	r0, [r7, #12]
 8001226:	f008 fb35 	bl	8009894 <memset>
    }

    return node;
 800122a:	68fb      	ldr	r3, [r7, #12]
}
 800122c:	4618      	mov	r0, r3
 800122e:	3710      	adds	r7, #16
 8001230:	46bd      	mov	sp, r7
 8001232:	bd80      	pop	{r7, pc}

08001234 <cJSON_Delete>:

/* Delete a cJSON structure. */
CJSON_PUBLIC(void) cJSON_Delete(cJSON *item)
{
 8001234:	b580      	push	{r7, lr}
 8001236:	b084      	sub	sp, #16
 8001238:	af00      	add	r7, sp, #0
 800123a:	6078      	str	r0, [r7, #4]
    cJSON *next = NULL;
 800123c:	2300      	movs	r3, #0
 800123e:	60fb      	str	r3, [r7, #12]
    while (item != NULL)
 8001240:	e03d      	b.n	80012be <cJSON_Delete+0x8a>
    {
        next = item->next;
 8001242:	687b      	ldr	r3, [r7, #4]
 8001244:	681b      	ldr	r3, [r3, #0]
 8001246:	60fb      	str	r3, [r7, #12]
        if (!(item->type & cJSON_IsReference) && (item->child != NULL))
 8001248:	687b      	ldr	r3, [r7, #4]
 800124a:	68db      	ldr	r3, [r3, #12]
 800124c:	f403 7380 	and.w	r3, r3, #256	@ 0x100
 8001250:	2b00      	cmp	r3, #0
 8001252:	d108      	bne.n	8001266 <cJSON_Delete+0x32>
 8001254:	687b      	ldr	r3, [r7, #4]
 8001256:	689b      	ldr	r3, [r3, #8]
 8001258:	2b00      	cmp	r3, #0
 800125a:	d004      	beq.n	8001266 <cJSON_Delete+0x32>
        {
            cJSON_Delete(item->child);
 800125c:	687b      	ldr	r3, [r7, #4]
 800125e:	689b      	ldr	r3, [r3, #8]
 8001260:	4618      	mov	r0, r3
 8001262:	f7ff ffe7 	bl	8001234 <cJSON_Delete>
        }
        if (!(item->type & cJSON_IsReference) && (item->valuestring != NULL))
 8001266:	687b      	ldr	r3, [r7, #4]
 8001268:	68db      	ldr	r3, [r3, #12]
 800126a:	f403 7380 	and.w	r3, r3, #256	@ 0x100
 800126e:	2b00      	cmp	r3, #0
 8001270:	d10c      	bne.n	800128c <cJSON_Delete+0x58>
 8001272:	687b      	ldr	r3, [r7, #4]
 8001274:	691b      	ldr	r3, [r3, #16]
 8001276:	2b00      	cmp	r3, #0
 8001278:	d008      	beq.n	800128c <cJSON_Delete+0x58>
        {
            global_hooks.deallocate(item->valuestring);
 800127a:	4b15      	ldr	r3, [pc, #84]	@ (80012d0 <cJSON_Delete+0x9c>)
 800127c:	685b      	ldr	r3, [r3, #4]
 800127e:	687a      	ldr	r2, [r7, #4]
 8001280:	6912      	ldr	r2, [r2, #16]
 8001282:	4610      	mov	r0, r2
 8001284:	4798      	blx	r3
            item->valuestring = NULL;
 8001286:	687b      	ldr	r3, [r7, #4]
 8001288:	2200      	movs	r2, #0
 800128a:	611a      	str	r2, [r3, #16]
        }
        if (!(item->type & cJSON_StringIsConst) && (item->string != NULL))
 800128c:	687b      	ldr	r3, [r7, #4]
 800128e:	68db      	ldr	r3, [r3, #12]
 8001290:	f403 7300 	and.w	r3, r3, #512	@ 0x200
 8001294:	2b00      	cmp	r3, #0
 8001296:	d10c      	bne.n	80012b2 <cJSON_Delete+0x7e>
 8001298:	687b      	ldr	r3, [r7, #4]
 800129a:	6a1b      	ldr	r3, [r3, #32]
 800129c:	2b00      	cmp	r3, #0
 800129e:	d008      	beq.n	80012b2 <cJSON_Delete+0x7e>
        {
            global_hooks.deallocate(item->string);
 80012a0:	4b0b      	ldr	r3, [pc, #44]	@ (80012d0 <cJSON_Delete+0x9c>)
 80012a2:	685b      	ldr	r3, [r3, #4]
 80012a4:	687a      	ldr	r2, [r7, #4]
 80012a6:	6a12      	ldr	r2, [r2, #32]
 80012a8:	4610      	mov	r0, r2
 80012aa:	4798      	blx	r3
            item->string = NULL;
 80012ac:	687b      	ldr	r3, [r7, #4]
 80012ae:	2200      	movs	r2, #0
 80012b0:	621a      	str	r2, [r3, #32]
        }
        global_hooks.deallocate(item);
 80012b2:	4b07      	ldr	r3, [pc, #28]	@ (80012d0 <cJSON_Delete+0x9c>)
 80012b4:	685b      	ldr	r3, [r3, #4]
 80012b6:	6878      	ldr	r0, [r7, #4]
 80012b8:	4798      	blx	r3
        item = next;
 80012ba:	68fb      	ldr	r3, [r7, #12]
 80012bc:	607b      	str	r3, [r7, #4]
    while (item != NULL)
 80012be:	687b      	ldr	r3, [r7, #4]
 80012c0:	2b00      	cmp	r3, #0
 80012c2:	d1be      	bne.n	8001242 <cJSON_Delete+0xe>
    }
}
 80012c4:	bf00      	nop
 80012c6:	bf00      	nop
 80012c8:	3710      	adds	r7, #16
 80012ca:	46bd      	mov	sp, r7
 80012cc:	bd80      	pop	{r7, pc}
 80012ce:	bf00      	nop
 80012d0:	20000000 	.word	0x20000000

080012d4 <get_decimal_point>:

/* get the decimal point character of the current locale */
static unsigned char get_decimal_point(void)
{
 80012d4:	b480      	push	{r7}
 80012d6:	af00      	add	r7, sp, #0
#ifdef ENABLE_LOCALES
    struct lconv *lconv = localeconv();
    return (unsigned char) lconv->decimal_point[0];
#else
    return '.';
 80012d8:	232e      	movs	r3, #46	@ 0x2e
#endif
}
 80012da:	4618      	mov	r0, r3
 80012dc:	46bd      	mov	sp, r7
 80012de:	f85d 7b04 	ldr.w	r7, [sp], #4
 80012e2:	4770      	bx	lr
 80012e4:	0000      	movs	r0, r0
	...

080012e8 <parse_number>:
/* get a pointer to the buffer at the position */
#define buffer_at_offset(buffer) ((buffer)->content + (buffer)->offset)

/* Parse the input text to generate a number, and populate the result into item. */
static cJSON_bool parse_number(cJSON * const item, parse_buffer * const input_buffer)
{
 80012e8:	b580      	push	{r7, lr}
 80012ea:	b098      	sub	sp, #96	@ 0x60
 80012ec:	af00      	add	r7, sp, #0
 80012ee:	6078      	str	r0, [r7, #4]
 80012f0:	6039      	str	r1, [r7, #0]
    double number = 0;
 80012f2:	f04f 0200 	mov.w	r2, #0
 80012f6:	f04f 0300 	mov.w	r3, #0
 80012fa:	e9c7 2314 	strd	r2, r3, [r7, #80]	@ 0x50
    unsigned char *after_end = NULL;
 80012fe:	2300      	movs	r3, #0
 8001300:	64bb      	str	r3, [r7, #72]	@ 0x48
    unsigned char number_c_string[64];
    unsigned char decimal_point = get_decimal_point();
 8001302:	f7ff ffe7 	bl	80012d4 <get_decimal_point>
 8001306:	4603      	mov	r3, r0
 8001308:	f887 304f 	strb.w	r3, [r7, #79]	@ 0x4f
    size_t i = 0;
 800130c:	2300      	movs	r3, #0
 800130e:	65fb      	str	r3, [r7, #92]	@ 0x5c

    if ((input_buffer == NULL) || (input_buffer->content == NULL))
 8001310:	683b      	ldr	r3, [r7, #0]
 8001312:	2b00      	cmp	r3, #0
 8001314:	d003      	beq.n	800131e <parse_number+0x36>
 8001316:	683b      	ldr	r3, [r7, #0]
 8001318:	681b      	ldr	r3, [r3, #0]
 800131a:	2b00      	cmp	r3, #0
 800131c:	d101      	bne.n	8001322 <parse_number+0x3a>
    {
        return false;
 800131e:	2300      	movs	r3, #0
 8001320:	e0a0      	b.n	8001464 <parse_number+0x17c>
    }

    /* copy the number into a temporary buffer and replace '.' with the decimal point
     * of the current locale (for strtod)
     * This also takes care of '\0' not necessarily being available for marking the end of the input */
    for (i = 0; (i < (sizeof(number_c_string) - 1)) && can_access_at_index(input_buffer, i); i++)
 8001322:	2300      	movs	r3, #0
 8001324:	65fb      	str	r3, [r7, #92]	@ 0x5c
 8001326:	e03d      	b.n	80013a4 <parse_number+0xbc>
    {
        switch (buffer_at_offset(input_buffer)[i])
 8001328:	683b      	ldr	r3, [r7, #0]
 800132a:	681a      	ldr	r2, [r3, #0]
 800132c:	683b      	ldr	r3, [r7, #0]
 800132e:	6899      	ldr	r1, [r3, #8]
 8001330:	6dfb      	ldr	r3, [r7, #92]	@ 0x5c
 8001332:	440b      	add	r3, r1
 8001334:	4413      	add	r3, r2
 8001336:	781b      	ldrb	r3, [r3, #0]
 8001338:	2b45      	cmp	r3, #69	@ 0x45
 800133a:	dc17      	bgt.n	800136c <parse_number+0x84>
 800133c:	2b2b      	cmp	r3, #43	@ 0x2b
 800133e:	db40      	blt.n	80013c2 <parse_number+0xda>
 8001340:	3b2b      	subs	r3, #43	@ 0x2b
 8001342:	2201      	movs	r2, #1
 8001344:	409a      	lsls	r2, r3
 8001346:	4b4c      	ldr	r3, [pc, #304]	@ (8001478 <parse_number+0x190>)
 8001348:	4013      	ands	r3, r2
 800134a:	2b00      	cmp	r3, #0
 800134c:	bf14      	ite	ne
 800134e:	2301      	movne	r3, #1
 8001350:	2300      	moveq	r3, #0
 8001352:	b2db      	uxtb	r3, r3
 8001354:	2b00      	cmp	r3, #0
 8001356:	d10b      	bne.n	8001370 <parse_number+0x88>
 8001358:	f002 0308 	and.w	r3, r2, #8
 800135c:	2b00      	cmp	r3, #0
 800135e:	bf14      	ite	ne
 8001360:	2301      	movne	r3, #1
 8001362:	2300      	moveq	r3, #0
 8001364:	b2db      	uxtb	r3, r3
 8001366:	2b00      	cmp	r3, #0
 8001368:	d111      	bne.n	800138e <parse_number+0xa6>
            case '.':
                number_c_string[i] = decimal_point;
                break;

            default:
                goto loop_end;
 800136a:	e02a      	b.n	80013c2 <parse_number+0xda>
        switch (buffer_at_offset(input_buffer)[i])
 800136c:	2b65      	cmp	r3, #101	@ 0x65
 800136e:	d128      	bne.n	80013c2 <parse_number+0xda>
                number_c_string[i] = buffer_at_offset(input_buffer)[i];
 8001370:	683b      	ldr	r3, [r7, #0]
 8001372:	681a      	ldr	r2, [r3, #0]
 8001374:	683b      	ldr	r3, [r7, #0]
 8001376:	6899      	ldr	r1, [r3, #8]
 8001378:	6dfb      	ldr	r3, [r7, #92]	@ 0x5c
 800137a:	440b      	add	r3, r1
 800137c:	4413      	add	r3, r2
 800137e:	7819      	ldrb	r1, [r3, #0]
 8001380:	f107 0208 	add.w	r2, r7, #8
 8001384:	6dfb      	ldr	r3, [r7, #92]	@ 0x5c
 8001386:	4413      	add	r3, r2
 8001388:	460a      	mov	r2, r1
 800138a:	701a      	strb	r2, [r3, #0]
                break;
 800138c:	e007      	b.n	800139e <parse_number+0xb6>
                number_c_string[i] = decimal_point;
 800138e:	f107 0208 	add.w	r2, r7, #8
 8001392:	6dfb      	ldr	r3, [r7, #92]	@ 0x5c
 8001394:	4413      	add	r3, r2
 8001396:	f897 204f 	ldrb.w	r2, [r7, #79]	@ 0x4f
 800139a:	701a      	strb	r2, [r3, #0]
                break;
 800139c:	bf00      	nop
    for (i = 0; (i < (sizeof(number_c_string) - 1)) && can_access_at_index(input_buffer, i); i++)
 800139e:	6dfb      	ldr	r3, [r7, #92]	@ 0x5c
 80013a0:	3301      	adds	r3, #1
 80013a2:	65fb      	str	r3, [r7, #92]	@ 0x5c
 80013a4:	6dfb      	ldr	r3, [r7, #92]	@ 0x5c
 80013a6:	2b3e      	cmp	r3, #62	@ 0x3e
 80013a8:	d80d      	bhi.n	80013c6 <parse_number+0xde>
 80013aa:	683b      	ldr	r3, [r7, #0]
 80013ac:	2b00      	cmp	r3, #0
 80013ae:	d00a      	beq.n	80013c6 <parse_number+0xde>
 80013b0:	683b      	ldr	r3, [r7, #0]
 80013b2:	689a      	ldr	r2, [r3, #8]
 80013b4:	6dfb      	ldr	r3, [r7, #92]	@ 0x5c
 80013b6:	441a      	add	r2, r3
 80013b8:	683b      	ldr	r3, [r7, #0]
 80013ba:	685b      	ldr	r3, [r3, #4]
 80013bc:	429a      	cmp	r2, r3
 80013be:	d3b3      	bcc.n	8001328 <parse_number+0x40>
        }
    }
loop_end:
 80013c0:	e001      	b.n	80013c6 <parse_number+0xde>
                goto loop_end;
 80013c2:	bf00      	nop
 80013c4:	e000      	b.n	80013c8 <parse_number+0xe0>
loop_end:
 80013c6:	bf00      	nop
    number_c_string[i] = '\0';
 80013c8:	f107 0208 	add.w	r2, r7, #8
 80013cc:	6dfb      	ldr	r3, [r7, #92]	@ 0x5c
 80013ce:	4413      	add	r3, r2
 80013d0:	2200      	movs	r2, #0
 80013d2:	701a      	strb	r2, [r3, #0]

    number = strtod((const char*)number_c_string, (char**)&after_end);
 80013d4:	f107 0248 	add.w	r2, r7, #72	@ 0x48
 80013d8:	f107 0308 	add.w	r3, r7, #8
 80013dc:	4611      	mov	r1, r2
 80013de:	4618      	mov	r0, r3
 80013e0:	f008 f926 	bl	8009630 <strtod>
 80013e4:	ed87 0b14 	vstr	d0, [r7, #80]	@ 0x50
    if (number_c_string == after_end)
 80013e8:	6cba      	ldr	r2, [r7, #72]	@ 0x48
 80013ea:	f107 0308 	add.w	r3, r7, #8
 80013ee:	429a      	cmp	r2, r3
 80013f0:	d101      	bne.n	80013f6 <parse_number+0x10e>
    {
        return false; /* parse_error */
 80013f2:	2300      	movs	r3, #0
 80013f4:	e036      	b.n	8001464 <parse_number+0x17c>
    }

    item->valuedouble = number;
 80013f6:	6879      	ldr	r1, [r7, #4]
 80013f8:	e9d7 2314 	ldrd	r2, r3, [r7, #80]	@ 0x50
 80013fc:	e9c1 2306 	strd	r2, r3, [r1, #24]

    /* use saturation in case of overflow */
    if (number >= INT_MAX)
 8001400:	a31b      	add	r3, pc, #108	@ (adr r3, 8001470 <parse_number+0x188>)
 8001402:	e9d3 2300 	ldrd	r2, r3, [r3]
 8001406:	e9d7 0114 	ldrd	r0, r1, [r7, #80]	@ 0x50
 800140a:	f7ff fb8b 	bl	8000b24 <__aeabi_dcmpge>
 800140e:	4603      	mov	r3, r0
 8001410:	2b00      	cmp	r3, #0
 8001412:	d004      	beq.n	800141e <parse_number+0x136>
    {
        item->valueint = INT_MAX;
 8001414:	687b      	ldr	r3, [r7, #4]
 8001416:	f06f 4200 	mvn.w	r2, #2147483648	@ 0x80000000
 800141a:	615a      	str	r2, [r3, #20]
 800141c:	e015      	b.n	800144a <parse_number+0x162>
    }
    else if (number <= (double)INT_MIN)
 800141e:	f04f 0200 	mov.w	r2, #0
 8001422:	4b16      	ldr	r3, [pc, #88]	@ (800147c <parse_number+0x194>)
 8001424:	e9d7 0114 	ldrd	r0, r1, [r7, #80]	@ 0x50
 8001428:	f7ff fb72 	bl	8000b10 <__aeabi_dcmple>
 800142c:	4603      	mov	r3, r0
 800142e:	2b00      	cmp	r3, #0
 8001430:	d004      	beq.n	800143c <parse_number+0x154>
    {
        item->valueint = INT_MIN;
 8001432:	687b      	ldr	r3, [r7, #4]
 8001434:	f04f 4200 	mov.w	r2, #2147483648	@ 0x80000000
 8001438:	615a      	str	r2, [r3, #20]
 800143a:	e006      	b.n	800144a <parse_number+0x162>
    }
    else
    {
        item->valueint = (int)number;
 800143c:	e9d7 0114 	ldrd	r0, r1, [r7, #80]	@ 0x50
 8001440:	f7ff fb84 	bl	8000b4c <__aeabi_d2iz>
 8001444:	4602      	mov	r2, r0
 8001446:	687b      	ldr	r3, [r7, #4]
 8001448:	615a      	str	r2, [r3, #20]
    }

    item->type = cJSON_Number;
 800144a:	687b      	ldr	r3, [r7, #4]
 800144c:	2208      	movs	r2, #8
 800144e:	60da      	str	r2, [r3, #12]

    input_buffer->offset += (size_t)(after_end - number_c_string);
 8001450:	683b      	ldr	r3, [r7, #0]
 8001452:	689b      	ldr	r3, [r3, #8]
 8001454:	6cb9      	ldr	r1, [r7, #72]	@ 0x48
 8001456:	f107 0208 	add.w	r2, r7, #8
 800145a:	1a8a      	subs	r2, r1, r2
 800145c:	441a      	add	r2, r3
 800145e:	683b      	ldr	r3, [r7, #0]
 8001460:	609a      	str	r2, [r3, #8]
    return true;
 8001462:	2301      	movs	r3, #1
}
 8001464:	4618      	mov	r0, r3
 8001466:	3760      	adds	r7, #96	@ 0x60
 8001468:	46bd      	mov	sp, r7
 800146a:	bd80      	pop	{r7, pc}
 800146c:	f3af 8000 	nop.w
 8001470:	ffc00000 	.word	0xffc00000
 8001474:	41dfffff 	.word	0x41dfffff
 8001478:	04007fe5 	.word	0x04007fe5
 800147c:	c1e00000 	.word	0xc1e00000

08001480 <parse_hex4>:
    return true;
}

/* parse 4 digit hexadecimal number */
static unsigned parse_hex4(const unsigned char * const input)
{
 8001480:	b480      	push	{r7}
 8001482:	b085      	sub	sp, #20
 8001484:	af00      	add	r7, sp, #0
 8001486:	6078      	str	r0, [r7, #4]
    unsigned int h = 0;
 8001488:	2300      	movs	r3, #0
 800148a:	60fb      	str	r3, [r7, #12]
    size_t i = 0;
 800148c:	2300      	movs	r3, #0
 800148e:	60bb      	str	r3, [r7, #8]

    for (i = 0; i < 4; i++)
 8001490:	2300      	movs	r3, #0
 8001492:	60bb      	str	r3, [r7, #8]
 8001494:	e04c      	b.n	8001530 <parse_hex4+0xb0>
    {
        /* parse digit */
        if ((input[i] >= '0') && (input[i] <= '9'))
 8001496:	687a      	ldr	r2, [r7, #4]
 8001498:	68bb      	ldr	r3, [r7, #8]
 800149a:	4413      	add	r3, r2
 800149c:	781b      	ldrb	r3, [r3, #0]
 800149e:	2b2f      	cmp	r3, #47	@ 0x2f
 80014a0:	d90f      	bls.n	80014c2 <parse_hex4+0x42>
 80014a2:	687a      	ldr	r2, [r7, #4]
 80014a4:	68bb      	ldr	r3, [r7, #8]
 80014a6:	4413      	add	r3, r2
 80014a8:	781b      	ldrb	r3, [r3, #0]
 80014aa:	2b39      	cmp	r3, #57	@ 0x39
 80014ac:	d809      	bhi.n	80014c2 <parse_hex4+0x42>
        {
            h += (unsigned int) input[i] - '0';
 80014ae:	687a      	ldr	r2, [r7, #4]
 80014b0:	68bb      	ldr	r3, [r7, #8]
 80014b2:	4413      	add	r3, r2
 80014b4:	781b      	ldrb	r3, [r3, #0]
 80014b6:	461a      	mov	r2, r3
 80014b8:	68fb      	ldr	r3, [r7, #12]
 80014ba:	4413      	add	r3, r2
 80014bc:	3b30      	subs	r3, #48	@ 0x30
 80014be:	60fb      	str	r3, [r7, #12]
 80014c0:	e02d      	b.n	800151e <parse_hex4+0x9e>
        }
        else if ((input[i] >= 'A') && (input[i] <= 'F'))
 80014c2:	687a      	ldr	r2, [r7, #4]
 80014c4:	68bb      	ldr	r3, [r7, #8]
 80014c6:	4413      	add	r3, r2
 80014c8:	781b      	ldrb	r3, [r3, #0]
 80014ca:	2b40      	cmp	r3, #64	@ 0x40
 80014cc:	d90f      	bls.n	80014ee <parse_hex4+0x6e>
 80014ce:	687a      	ldr	r2, [r7, #4]
 80014d0:	68bb      	ldr	r3, [r7, #8]
 80014d2:	4413      	add	r3, r2
 80014d4:	781b      	ldrb	r3, [r3, #0]
 80014d6:	2b46      	cmp	r3, #70	@ 0x46
 80014d8:	d809      	bhi.n	80014ee <parse_hex4+0x6e>
        {
            h += (unsigned int) 10 + input[i] - 'A';
 80014da:	687a      	ldr	r2, [r7, #4]
 80014dc:	68bb      	ldr	r3, [r7, #8]
 80014de:	4413      	add	r3, r2
 80014e0:	781b      	ldrb	r3, [r3, #0]
 80014e2:	461a      	mov	r2, r3
 80014e4:	68fb      	ldr	r3, [r7, #12]
 80014e6:	4413      	add	r3, r2
 80014e8:	3b37      	subs	r3, #55	@ 0x37
 80014ea:	60fb      	str	r3, [r7, #12]
 80014ec:	e017      	b.n	800151e <parse_hex4+0x9e>
        }
        else if ((input[i] >= 'a') && (input[i] <= 'f'))
 80014ee:	687a      	ldr	r2, [r7, #4]
 80014f0:	68bb      	ldr	r3, [r7, #8]
 80014f2:	4413      	add	r3, r2
 80014f4:	781b      	ldrb	r3, [r3, #0]
 80014f6:	2b60      	cmp	r3, #96	@ 0x60
 80014f8:	d90f      	bls.n	800151a <parse_hex4+0x9a>
 80014fa:	687a      	ldr	r2, [r7, #4]
 80014fc:	68bb      	ldr	r3, [r7, #8]
 80014fe:	4413      	add	r3, r2
 8001500:	781b      	ldrb	r3, [r3, #0]
 8001502:	2b66      	cmp	r3, #102	@ 0x66
 8001504:	d809      	bhi.n	800151a <parse_hex4+0x9a>
        {
            h += (unsigned int) 10 + input[i] - 'a';
 8001506:	687a      	ldr	r2, [r7, #4]
 8001508:	68bb      	ldr	r3, [r7, #8]
 800150a:	4413      	add	r3, r2
 800150c:	781b      	ldrb	r3, [r3, #0]
 800150e:	461a      	mov	r2, r3
 8001510:	68fb      	ldr	r3, [r7, #12]
 8001512:	4413      	add	r3, r2
 8001514:	3b57      	subs	r3, #87	@ 0x57
 8001516:	60fb      	str	r3, [r7, #12]
 8001518:	e001      	b.n	800151e <parse_hex4+0x9e>
        }
        else /* invalid */
        {
            return 0;
 800151a:	2300      	movs	r3, #0
 800151c:	e00c      	b.n	8001538 <parse_hex4+0xb8>
        }

        if (i < 3)
 800151e:	68bb      	ldr	r3, [r7, #8]
 8001520:	2b02      	cmp	r3, #2
 8001522:	d802      	bhi.n	800152a <parse_hex4+0xaa>
        {
            /* shift left to make place for the next nibble */
            h = h << 4;
 8001524:	68fb      	ldr	r3, [r7, #12]
 8001526:	011b      	lsls	r3, r3, #4
 8001528:	60fb      	str	r3, [r7, #12]
    for (i = 0; i < 4; i++)
 800152a:	68bb      	ldr	r3, [r7, #8]
 800152c:	3301      	adds	r3, #1
 800152e:	60bb      	str	r3, [r7, #8]
 8001530:	68bb      	ldr	r3, [r7, #8]
 8001532:	2b03      	cmp	r3, #3
 8001534:	d9af      	bls.n	8001496 <parse_hex4+0x16>
        }
    }

    return h;
 8001536:	68fb      	ldr	r3, [r7, #12]
}
 8001538:	4618      	mov	r0, r3
 800153a:	3714      	adds	r7, #20
 800153c:	46bd      	mov	sp, r7
 800153e:	f85d 7b04 	ldr.w	r7, [sp], #4
 8001542:	4770      	bx	lr

08001544 <utf16_literal_to_utf8>:

/* converts a UTF-16 literal to UTF-8
 * A literal can be one or two sequences of the form \uXXXX */
static unsigned char utf16_literal_to_utf8(const unsigned char * const input_pointer, const unsigned char * const input_end, unsigned char **output_pointer)
{
 8001544:	b580      	push	{r7, lr}
 8001546:	b08a      	sub	sp, #40	@ 0x28
 8001548:	af00      	add	r7, sp, #0
 800154a:	60f8      	str	r0, [r7, #12]
 800154c:	60b9      	str	r1, [r7, #8]
 800154e:	607a      	str	r2, [r7, #4]
    long unsigned int codepoint = 0;
 8001550:	2300      	movs	r3, #0
 8001552:	627b      	str	r3, [r7, #36]	@ 0x24
    unsigned int first_code = 0;
 8001554:	2300      	movs	r3, #0
 8001556:	61fb      	str	r3, [r7, #28]
    const unsigned char *first_sequence = input_pointer;
 8001558:	68fb      	ldr	r3, [r7, #12]
 800155a:	61bb      	str	r3, [r7, #24]
    unsigned char utf8_length = 0;
 800155c:	2300      	movs	r3, #0
 800155e:	f887 3023 	strb.w	r3, [r7, #35]	@ 0x23
    unsigned char utf8_position = 0;
 8001562:	2300      	movs	r3, #0
 8001564:	f887 3022 	strb.w	r3, [r7, #34]	@ 0x22
    unsigned char sequence_length = 0;
 8001568:	2300      	movs	r3, #0
 800156a:	f887 3021 	strb.w	r3, [r7, #33]	@ 0x21
    unsigned char first_byte_mark = 0;
 800156e:	2300      	movs	r3, #0
 8001570:	f887 3020 	strb.w	r3, [r7, #32]

    if ((input_end - first_sequence) < 6)
 8001574:	68ba      	ldr	r2, [r7, #8]
 8001576:	69bb      	ldr	r3, [r7, #24]
 8001578:	1ad3      	subs	r3, r2, r3
 800157a:	2b05      	cmp	r3, #5
 800157c:	f340 80b7 	ble.w	80016ee <utf16_literal_to_utf8+0x1aa>
        /* input ends unexpectedly */
        goto fail;
    }

    /* get the first utf16 sequence */
    first_code = parse_hex4(first_sequence + 2);
 8001580:	69bb      	ldr	r3, [r7, #24]
 8001582:	3302      	adds	r3, #2
 8001584:	4618      	mov	r0, r3
 8001586:	f7ff ff7b 	bl	8001480 <parse_hex4>
 800158a:	61f8      	str	r0, [r7, #28]

    /* check that the code is valid */
    if (((first_code >= 0xDC00) && (first_code <= 0xDFFF)))
 800158c:	69fb      	ldr	r3, [r7, #28]
 800158e:	f5b3 4f5c 	cmp.w	r3, #56320	@ 0xdc00
 8001592:	d304      	bcc.n	800159e <utf16_literal_to_utf8+0x5a>
 8001594:	69fb      	ldr	r3, [r7, #28]
 8001596:	f5b3 4f60 	cmp.w	r3, #57344	@ 0xe000
 800159a:	f0c0 80aa 	bcc.w	80016f2 <utf16_literal_to_utf8+0x1ae>
    {
        goto fail;
    }

    /* UTF16 surrogate pair */
    if ((first_code >= 0xD800) && (first_code <= 0xDBFF))
 800159e:	69fb      	ldr	r3, [r7, #28]
 80015a0:	f5b3 4f58 	cmp.w	r3, #55296	@ 0xd800
 80015a4:	d337      	bcc.n	8001616 <utf16_literal_to_utf8+0xd2>
 80015a6:	69fb      	ldr	r3, [r7, #28]
 80015a8:	f5b3 4f5c 	cmp.w	r3, #56320	@ 0xdc00
 80015ac:	d233      	bcs.n	8001616 <utf16_literal_to_utf8+0xd2>
    {
        const unsigned char *second_sequence = first_sequence + 6;
 80015ae:	69bb      	ldr	r3, [r7, #24]
 80015b0:	3306      	adds	r3, #6
 80015b2:	617b      	str	r3, [r7, #20]
        unsigned int second_code = 0;
 80015b4:	2300      	movs	r3, #0
 80015b6:	613b      	str	r3, [r7, #16]
        sequence_length = 12; /* \uXXXX\uXXXX */
 80015b8:	230c      	movs	r3, #12
 80015ba:	f887 3021 	strb.w	r3, [r7, #33]	@ 0x21

        if ((input_end - second_sequence) < 6)
 80015be:	68ba      	ldr	r2, [r7, #8]
 80015c0:	697b      	ldr	r3, [r7, #20]
 80015c2:	1ad3      	subs	r3, r2, r3
 80015c4:	2b05      	cmp	r3, #5
 80015c6:	f340 8096 	ble.w	80016f6 <utf16_literal_to_utf8+0x1b2>
        {
            /* input ends unexpectedly */
            goto fail;
        }

        if ((second_sequence[0] != '\\') || (second_sequence[1] != 'u'))
 80015ca:	697b      	ldr	r3, [r7, #20]
 80015cc:	781b      	ldrb	r3, [r3, #0]
 80015ce:	2b5c      	cmp	r3, #92	@ 0x5c
 80015d0:	f040 8093 	bne.w	80016fa <utf16_literal_to_utf8+0x1b6>
 80015d4:	697b      	ldr	r3, [r7, #20]
 80015d6:	3301      	adds	r3, #1
 80015d8:	781b      	ldrb	r3, [r3, #0]
 80015da:	2b75      	cmp	r3, #117	@ 0x75
 80015dc:	f040 808d 	bne.w	80016fa <utf16_literal_to_utf8+0x1b6>
            /* missing second half of the surrogate pair */
            goto fail;
        }

        /* get the second utf16 sequence */
        second_code = parse_hex4(second_sequence + 2);
 80015e0:	697b      	ldr	r3, [r7, #20]
 80015e2:	3302      	adds	r3, #2
 80015e4:	4618      	mov	r0, r3
 80015e6:	f7ff ff4b 	bl	8001480 <parse_hex4>
 80015ea:	6138      	str	r0, [r7, #16]
        /* check that the code is valid */
        if ((second_code < 0xDC00) || (second_code > 0xDFFF))
 80015ec:	693b      	ldr	r3, [r7, #16]
 80015ee:	f5b3 4f5c 	cmp.w	r3, #56320	@ 0xdc00
 80015f2:	f0c0 8084 	bcc.w	80016fe <utf16_literal_to_utf8+0x1ba>
 80015f6:	693b      	ldr	r3, [r7, #16]
 80015f8:	f5b3 4f60 	cmp.w	r3, #57344	@ 0xe000
 80015fc:	d27f      	bcs.n	80016fe <utf16_literal_to_utf8+0x1ba>
            goto fail;
        }


        /* calculate the unicode codepoint from the surrogate pair */
        codepoint = 0x10000 + (((first_code & 0x3FF) << 10) | (second_code & 0x3FF));
 80015fe:	69fb      	ldr	r3, [r7, #28]
 8001600:	029a      	lsls	r2, r3, #10
 8001602:	4b43      	ldr	r3, [pc, #268]	@ (8001710 <utf16_literal_to_utf8+0x1cc>)
 8001604:	4013      	ands	r3, r2
 8001606:	693a      	ldr	r2, [r7, #16]
 8001608:	f3c2 0209 	ubfx	r2, r2, #0, #10
 800160c:	4313      	orrs	r3, r2
 800160e:	f503 3380 	add.w	r3, r3, #65536	@ 0x10000
 8001612:	627b      	str	r3, [r7, #36]	@ 0x24
    {
 8001614:	e004      	b.n	8001620 <utf16_literal_to_utf8+0xdc>
    }
    else
    {
        sequence_length = 6; /* \uXXXX */
 8001616:	2306      	movs	r3, #6
 8001618:	f887 3021 	strb.w	r3, [r7, #33]	@ 0x21
        codepoint = first_code;
 800161c:	69fb      	ldr	r3, [r7, #28]
 800161e:	627b      	str	r3, [r7, #36]	@ 0x24
    }

    /* encode as UTF-8
     * takes at maximum 4 bytes to encode:
     * 11110xxx 10xxxxxx 10xxxxxx 10xxxxxx */
    if (codepoint < 0x80)
 8001620:	6a7b      	ldr	r3, [r7, #36]	@ 0x24
 8001622:	2b7f      	cmp	r3, #127	@ 0x7f
 8001624:	d803      	bhi.n	800162e <utf16_literal_to_utf8+0xea>
    {
        /* normal ascii, encoding 0xxxxxxx */
        utf8_length = 1;
 8001626:	2301      	movs	r3, #1
 8001628:	f887 3023 	strb.w	r3, [r7, #35]	@ 0x23
 800162c:	e01f      	b.n	800166e <utf16_literal_to_utf8+0x12a>
    }
    else if (codepoint < 0x800)
 800162e:	6a7b      	ldr	r3, [r7, #36]	@ 0x24
 8001630:	f5b3 6f00 	cmp.w	r3, #2048	@ 0x800
 8001634:	d206      	bcs.n	8001644 <utf16_literal_to_utf8+0x100>
    {
        /* two bytes, encoding 110xxxxx 10xxxxxx */
        utf8_length = 2;
 8001636:	2302      	movs	r3, #2
 8001638:	f887 3023 	strb.w	r3, [r7, #35]	@ 0x23
        first_byte_mark = 0xC0; /* 11000000 */
 800163c:	23c0      	movs	r3, #192	@ 0xc0
 800163e:	f887 3020 	strb.w	r3, [r7, #32]
 8001642:	e014      	b.n	800166e <utf16_literal_to_utf8+0x12a>
    }
    else if (codepoint < 0x10000)
 8001644:	6a7b      	ldr	r3, [r7, #36]	@ 0x24
 8001646:	f5b3 3f80 	cmp.w	r3, #65536	@ 0x10000
 800164a:	d206      	bcs.n	800165a <utf16_literal_to_utf8+0x116>
    {
        /* three bytes, encoding 1110xxxx 10xxxxxx 10xxxxxx */
        utf8_length = 3;
 800164c:	2303      	movs	r3, #3
 800164e:	f887 3023 	strb.w	r3, [r7, #35]	@ 0x23
        first_byte_mark = 0xE0; /* 11100000 */
 8001652:	23e0      	movs	r3, #224	@ 0xe0
 8001654:	f887 3020 	strb.w	r3, [r7, #32]
 8001658:	e009      	b.n	800166e <utf16_literal_to_utf8+0x12a>
    }
    else if (codepoint <= 0x10FFFF)
 800165a:	6a7b      	ldr	r3, [r7, #36]	@ 0x24
 800165c:	f5b3 1f88 	cmp.w	r3, #1114112	@ 0x110000
 8001660:	d24f      	bcs.n	8001702 <utf16_literal_to_utf8+0x1be>
    {
        /* four bytes, encoding 1110xxxx 10xxxxxx 10xxxxxx 10xxxxxx */
        utf8_length = 4;
 8001662:	2304      	movs	r3, #4
 8001664:	f887 3023 	strb.w	r3, [r7, #35]	@ 0x23
        first_byte_mark = 0xF0; /* 11110000 */
 8001668:	23f0      	movs	r3, #240	@ 0xf0
 800166a:	f887 3020 	strb.w	r3, [r7, #32]
        /* invalid unicode codepoint */
        goto fail;
    }

    /* encode as utf8 */
    for (utf8_position = (unsigned char)(utf8_length - 1); utf8_position > 0; utf8_position--)
 800166e:	f897 3023 	ldrb.w	r3, [r7, #35]	@ 0x23
 8001672:	3b01      	subs	r3, #1
 8001674:	f887 3022 	strb.w	r3, [r7, #34]	@ 0x22
 8001678:	e015      	b.n	80016a6 <utf16_literal_to_utf8+0x162>
    {
        /* 10xxxxxx */
        (*output_pointer)[utf8_position] = (unsigned char)((codepoint | 0x80) & 0xBF);
 800167a:	6a7b      	ldr	r3, [r7, #36]	@ 0x24
 800167c:	b2db      	uxtb	r3, r3
 800167e:	f003 033f 	and.w	r3, r3, #63	@ 0x3f
 8001682:	b2da      	uxtb	r2, r3
 8001684:	687b      	ldr	r3, [r7, #4]
 8001686:	6819      	ldr	r1, [r3, #0]
 8001688:	f897 3022 	ldrb.w	r3, [r7, #34]	@ 0x22
 800168c:	440b      	add	r3, r1
 800168e:	f062 027f 	orn	r2, r2, #127	@ 0x7f
 8001692:	b2d2      	uxtb	r2, r2
 8001694:	701a      	strb	r2, [r3, #0]
        codepoint >>= 6;
 8001696:	6a7b      	ldr	r3, [r7, #36]	@ 0x24
 8001698:	099b      	lsrs	r3, r3, #6
 800169a:	627b      	str	r3, [r7, #36]	@ 0x24
    for (utf8_position = (unsigned char)(utf8_length - 1); utf8_position > 0; utf8_position--)
 800169c:	f897 3022 	ldrb.w	r3, [r7, #34]	@ 0x22
 80016a0:	3b01      	subs	r3, #1
 80016a2:	f887 3022 	strb.w	r3, [r7, #34]	@ 0x22
 80016a6:	f897 3022 	ldrb.w	r3, [r7, #34]	@ 0x22
 80016aa:	2b00      	cmp	r3, #0
 80016ac:	d1e5      	bne.n	800167a <utf16_literal_to_utf8+0x136>
    }
    /* encode first byte */
    if (utf8_length > 1)
 80016ae:	f897 3023 	ldrb.w	r3, [r7, #35]	@ 0x23
 80016b2:	2b01      	cmp	r3, #1
 80016b4:	d909      	bls.n	80016ca <utf16_literal_to_utf8+0x186>
    {
        (*output_pointer)[0] = (unsigned char)((codepoint | first_byte_mark) & 0xFF);
 80016b6:	6a7b      	ldr	r3, [r7, #36]	@ 0x24
 80016b8:	b2d9      	uxtb	r1, r3
 80016ba:	687b      	ldr	r3, [r7, #4]
 80016bc:	681b      	ldr	r3, [r3, #0]
 80016be:	f897 2020 	ldrb.w	r2, [r7, #32]
 80016c2:	430a      	orrs	r2, r1
 80016c4:	b2d2      	uxtb	r2, r2
 80016c6:	701a      	strb	r2, [r3, #0]
 80016c8:	e007      	b.n	80016da <utf16_literal_to_utf8+0x196>
    }
    else
    {
        (*output_pointer)[0] = (unsigned char)(codepoint & 0x7F);
 80016ca:	6a7b      	ldr	r3, [r7, #36]	@ 0x24
 80016cc:	b2da      	uxtb	r2, r3
 80016ce:	687b      	ldr	r3, [r7, #4]
 80016d0:	681b      	ldr	r3, [r3, #0]
 80016d2:	f002 027f 	and.w	r2, r2, #127	@ 0x7f
 80016d6:	b2d2      	uxtb	r2, r2
 80016d8:	701a      	strb	r2, [r3, #0]
    }

    *output_pointer += utf8_length;
 80016da:	687b      	ldr	r3, [r7, #4]
 80016dc:	681a      	ldr	r2, [r3, #0]
 80016de:	f897 3023 	ldrb.w	r3, [r7, #35]	@ 0x23
 80016e2:	441a      	add	r2, r3
 80016e4:	687b      	ldr	r3, [r7, #4]
 80016e6:	601a      	str	r2, [r3, #0]

    return sequence_length;
 80016e8:	f897 3021 	ldrb.w	r3, [r7, #33]	@ 0x21
 80016ec:	e00b      	b.n	8001706 <utf16_literal_to_utf8+0x1c2>
        goto fail;
 80016ee:	bf00      	nop
 80016f0:	e008      	b.n	8001704 <utf16_literal_to_utf8+0x1c0>
        goto fail;
 80016f2:	bf00      	nop
 80016f4:	e006      	b.n	8001704 <utf16_literal_to_utf8+0x1c0>
            goto fail;
 80016f6:	bf00      	nop
 80016f8:	e004      	b.n	8001704 <utf16_literal_to_utf8+0x1c0>
            goto fail;
 80016fa:	bf00      	nop
 80016fc:	e002      	b.n	8001704 <utf16_literal_to_utf8+0x1c0>
            goto fail;
 80016fe:	bf00      	nop
 8001700:	e000      	b.n	8001704 <utf16_literal_to_utf8+0x1c0>
        goto fail;
 8001702:	bf00      	nop

fail:
    return 0;
 8001704:	2300      	movs	r3, #0
}
 8001706:	4618      	mov	r0, r3
 8001708:	3728      	adds	r7, #40	@ 0x28
 800170a:	46bd      	mov	sp, r7
 800170c:	bd80      	pop	{r7, pc}
 800170e:	bf00      	nop
 8001710:	000ffc00 	.word	0x000ffc00

08001714 <parse_string>:

/* Parse the input text into an unescaped cinput, and populate item. */
static cJSON_bool parse_string(cJSON * const item, parse_buffer * const input_buffer)
{
 8001714:	b580      	push	{r7, lr}
 8001716:	b08a      	sub	sp, #40	@ 0x28
 8001718:	af00      	add	r7, sp, #0
 800171a:	6078      	str	r0, [r7, #4]
 800171c:	6039      	str	r1, [r7, #0]
    const unsigned char *input_pointer = buffer_at_offset(input_buffer) + 1;
 800171e:	683b      	ldr	r3, [r7, #0]
 8001720:	681a      	ldr	r2, [r3, #0]
 8001722:	683b      	ldr	r3, [r7, #0]
 8001724:	689b      	ldr	r3, [r3, #8]
 8001726:	3301      	adds	r3, #1
 8001728:	4413      	add	r3, r2
 800172a:	627b      	str	r3, [r7, #36]	@ 0x24
    const unsigned char *input_end = buffer_at_offset(input_buffer) + 1;
 800172c:	683b      	ldr	r3, [r7, #0]
 800172e:	681a      	ldr	r2, [r3, #0]
 8001730:	683b      	ldr	r3, [r7, #0]
 8001732:	689b      	ldr	r3, [r3, #8]
 8001734:	3301      	adds	r3, #1
 8001736:	4413      	add	r3, r2
 8001738:	623b      	str	r3, [r7, #32]
    unsigned char *output_pointer = NULL;
 800173a:	2300      	movs	r3, #0
 800173c:	60fb      	str	r3, [r7, #12]
    unsigned char *output = NULL;
 800173e:	2300      	movs	r3, #0
 8001740:	61fb      	str	r3, [r7, #28]

    /* not a string */
    if (buffer_at_offset(input_buffer)[0] != '\"')
 8001742:	683b      	ldr	r3, [r7, #0]
 8001744:	681a      	ldr	r2, [r3, #0]
 8001746:	683b      	ldr	r3, [r7, #0]
 8001748:	689b      	ldr	r3, [r3, #8]
 800174a:	4413      	add	r3, r2
 800174c:	781b      	ldrb	r3, [r3, #0]
 800174e:	2b22      	cmp	r3, #34	@ 0x22
 8001750:	f040 8103 	bne.w	800195a <parse_string+0x246>
        goto fail;
    }

    {
        /* calculate approximate size of the output (overestimate) */
        size_t allocation_length = 0;
 8001754:	2300      	movs	r3, #0
 8001756:	613b      	str	r3, [r7, #16]
        size_t skipped_bytes = 0;
 8001758:	2300      	movs	r3, #0
 800175a:	61bb      	str	r3, [r7, #24]
        while (((size_t)(input_end - input_buffer->content) < input_buffer->length) && (*input_end != '\"'))
 800175c:	e017      	b.n	800178e <parse_string+0x7a>
        {
            /* is escape sequence */
            if (input_end[0] == '\\')
 800175e:	6a3b      	ldr	r3, [r7, #32]
 8001760:	781b      	ldrb	r3, [r3, #0]
 8001762:	2b5c      	cmp	r3, #92	@ 0x5c
 8001764:	d110      	bne.n	8001788 <parse_string+0x74>
            {
                if ((size_t)(input_end + 1 - input_buffer->content) >= input_buffer->length)
 8001766:	6a3b      	ldr	r3, [r7, #32]
 8001768:	1c5a      	adds	r2, r3, #1
 800176a:	683b      	ldr	r3, [r7, #0]
 800176c:	681b      	ldr	r3, [r3, #0]
 800176e:	1ad3      	subs	r3, r2, r3
 8001770:	461a      	mov	r2, r3
 8001772:	683b      	ldr	r3, [r7, #0]
 8001774:	685b      	ldr	r3, [r3, #4]
 8001776:	429a      	cmp	r2, r3
 8001778:	f080 80f1 	bcs.w	800195e <parse_string+0x24a>
                {
                    /* prevent buffer overflow when last input character is a backslash */
                    goto fail;
                }
                skipped_bytes++;
 800177c:	69bb      	ldr	r3, [r7, #24]
 800177e:	3301      	adds	r3, #1
 8001780:	61bb      	str	r3, [r7, #24]
                input_end++;
 8001782:	6a3b      	ldr	r3, [r7, #32]
 8001784:	3301      	adds	r3, #1
 8001786:	623b      	str	r3, [r7, #32]
            }
            input_end++;
 8001788:	6a3b      	ldr	r3, [r7, #32]
 800178a:	3301      	adds	r3, #1
 800178c:	623b      	str	r3, [r7, #32]
        while (((size_t)(input_end - input_buffer->content) < input_buffer->length) && (*input_end != '\"'))
 800178e:	683b      	ldr	r3, [r7, #0]
 8001790:	681b      	ldr	r3, [r3, #0]
 8001792:	6a3a      	ldr	r2, [r7, #32]
 8001794:	1ad3      	subs	r3, r2, r3
 8001796:	461a      	mov	r2, r3
 8001798:	683b      	ldr	r3, [r7, #0]
 800179a:	685b      	ldr	r3, [r3, #4]
 800179c:	429a      	cmp	r2, r3
 800179e:	d203      	bcs.n	80017a8 <parse_string+0x94>
 80017a0:	6a3b      	ldr	r3, [r7, #32]
 80017a2:	781b      	ldrb	r3, [r3, #0]
 80017a4:	2b22      	cmp	r3, #34	@ 0x22
 80017a6:	d1da      	bne.n	800175e <parse_string+0x4a>
        }
        if (((size_t)(input_end - input_buffer->content) >= input_buffer->length) || (*input_end != '\"'))
 80017a8:	683b      	ldr	r3, [r7, #0]
 80017aa:	681b      	ldr	r3, [r3, #0]
 80017ac:	6a3a      	ldr	r2, [r7, #32]
 80017ae:	1ad3      	subs	r3, r2, r3
 80017b0:	461a      	mov	r2, r3
 80017b2:	683b      	ldr	r3, [r7, #0]
 80017b4:	685b      	ldr	r3, [r3, #4]
 80017b6:	429a      	cmp	r2, r3
 80017b8:	f080 80d3 	bcs.w	8001962 <parse_string+0x24e>
 80017bc:	6a3b      	ldr	r3, [r7, #32]
 80017be:	781b      	ldrb	r3, [r3, #0]
 80017c0:	2b22      	cmp	r3, #34	@ 0x22
 80017c2:	f040 80ce 	bne.w	8001962 <parse_string+0x24e>
        {
            goto fail; /* string ended unexpectedly */
        }

        /* This is at most how much we need for the output */
        allocation_length = (size_t) (input_end - buffer_at_offset(input_buffer)) - skipped_bytes;
 80017c6:	683b      	ldr	r3, [r7, #0]
 80017c8:	681a      	ldr	r2, [r3, #0]
 80017ca:	683b      	ldr	r3, [r7, #0]
 80017cc:	689b      	ldr	r3, [r3, #8]
 80017ce:	4413      	add	r3, r2
 80017d0:	6a3a      	ldr	r2, [r7, #32]
 80017d2:	1ad3      	subs	r3, r2, r3
 80017d4:	461a      	mov	r2, r3
 80017d6:	69bb      	ldr	r3, [r7, #24]
 80017d8:	1ad3      	subs	r3, r2, r3
 80017da:	613b      	str	r3, [r7, #16]
        output = (unsigned char*)input_buffer->hooks.allocate(allocation_length + sizeof(""));
 80017dc:	683b      	ldr	r3, [r7, #0]
 80017de:	691b      	ldr	r3, [r3, #16]
 80017e0:	693a      	ldr	r2, [r7, #16]
 80017e2:	3201      	adds	r2, #1
 80017e4:	4610      	mov	r0, r2
 80017e6:	4798      	blx	r3
 80017e8:	61f8      	str	r0, [r7, #28]
        if (output == NULL)
 80017ea:	69fb      	ldr	r3, [r7, #28]
 80017ec:	2b00      	cmp	r3, #0
 80017ee:	f000 80ba 	beq.w	8001966 <parse_string+0x252>
        {
            goto fail; /* allocation failure */
        }
    }

    output_pointer = output;
 80017f2:	69fb      	ldr	r3, [r7, #28]
 80017f4:	60fb      	str	r3, [r7, #12]
    /* loop through the string literal */
    while (input_pointer < input_end)
 80017f6:	e094      	b.n	8001922 <parse_string+0x20e>
    {
        if (*input_pointer != '\\')
 80017f8:	6a7b      	ldr	r3, [r7, #36]	@ 0x24
 80017fa:	781b      	ldrb	r3, [r3, #0]
 80017fc:	2b5c      	cmp	r3, #92	@ 0x5c
 80017fe:	d008      	beq.n	8001812 <parse_string+0xfe>
        {
            *output_pointer++ = *input_pointer++;
 8001800:	6a7a      	ldr	r2, [r7, #36]	@ 0x24
 8001802:	1c53      	adds	r3, r2, #1
 8001804:	627b      	str	r3, [r7, #36]	@ 0x24
 8001806:	68fb      	ldr	r3, [r7, #12]
 8001808:	1c59      	adds	r1, r3, #1
 800180a:	60f9      	str	r1, [r7, #12]
 800180c:	7812      	ldrb	r2, [r2, #0]
 800180e:	701a      	strb	r2, [r3, #0]
 8001810:	e087      	b.n	8001922 <parse_string+0x20e>
        }
        /* escape sequence */
        else
        {
            unsigned char sequence_length = 2;
 8001812:	2302      	movs	r3, #2
 8001814:	75fb      	strb	r3, [r7, #23]
            if ((input_end - input_pointer) < 1)
 8001816:	6a3a      	ldr	r2, [r7, #32]
 8001818:	6a7b      	ldr	r3, [r7, #36]	@ 0x24
 800181a:	1ad3      	subs	r3, r2, r3
 800181c:	2b00      	cmp	r3, #0
 800181e:	f340 80a4 	ble.w	800196a <parse_string+0x256>
            {
                goto fail;
            }

            switch (input_pointer[1])
 8001822:	6a7b      	ldr	r3, [r7, #36]	@ 0x24
 8001824:	3301      	adds	r3, #1
 8001826:	781b      	ldrb	r3, [r3, #0]
 8001828:	2b75      	cmp	r3, #117	@ 0x75
 800182a:	f300 80a0 	bgt.w	800196e <parse_string+0x25a>
 800182e:	2b5c      	cmp	r3, #92	@ 0x5c
 8001830:	da04      	bge.n	800183c <parse_string+0x128>
 8001832:	2b22      	cmp	r3, #34	@ 0x22
 8001834:	d05c      	beq.n	80018f0 <parse_string+0x1dc>
 8001836:	2b2f      	cmp	r3, #47	@ 0x2f
 8001838:	d05a      	beq.n	80018f0 <parse_string+0x1dc>
                        goto fail;
                    }
                    break;

                default:
                    goto fail;
 800183a:	e098      	b.n	800196e <parse_string+0x25a>
            switch (input_pointer[1])
 800183c:	3b5c      	subs	r3, #92	@ 0x5c
 800183e:	2b19      	cmp	r3, #25
 8001840:	f200 8095 	bhi.w	800196e <parse_string+0x25a>
 8001844:	a201      	add	r2, pc, #4	@ (adr r2, 800184c <parse_string+0x138>)
 8001846:	f852 f023 	ldr.w	pc, [r2, r3, lsl #2]
 800184a:	bf00      	nop
 800184c:	080018f1 	.word	0x080018f1
 8001850:	0800196f 	.word	0x0800196f
 8001854:	0800196f 	.word	0x0800196f
 8001858:	0800196f 	.word	0x0800196f
 800185c:	0800196f 	.word	0x0800196f
 8001860:	0800196f 	.word	0x0800196f
 8001864:	080018b5 	.word	0x080018b5
 8001868:	0800196f 	.word	0x0800196f
 800186c:	0800196f 	.word	0x0800196f
 8001870:	0800196f 	.word	0x0800196f
 8001874:	080018c1 	.word	0x080018c1
 8001878:	0800196f 	.word	0x0800196f
 800187c:	0800196f 	.word	0x0800196f
 8001880:	0800196f 	.word	0x0800196f
 8001884:	0800196f 	.word	0x0800196f
 8001888:	0800196f 	.word	0x0800196f
 800188c:	0800196f 	.word	0x0800196f
 8001890:	0800196f 	.word	0x0800196f
 8001894:	080018cd 	.word	0x080018cd
 8001898:	0800196f 	.word	0x0800196f
 800189c:	0800196f 	.word	0x0800196f
 80018a0:	0800196f 	.word	0x0800196f
 80018a4:	080018d9 	.word	0x080018d9
 80018a8:	0800196f 	.word	0x0800196f
 80018ac:	080018e5 	.word	0x080018e5
 80018b0:	08001901 	.word	0x08001901
                    *output_pointer++ = '\b';
 80018b4:	68fb      	ldr	r3, [r7, #12]
 80018b6:	1c5a      	adds	r2, r3, #1
 80018b8:	60fa      	str	r2, [r7, #12]
 80018ba:	2208      	movs	r2, #8
 80018bc:	701a      	strb	r2, [r3, #0]
                    break;
 80018be:	e02c      	b.n	800191a <parse_string+0x206>
                    *output_pointer++ = '\f';
 80018c0:	68fb      	ldr	r3, [r7, #12]
 80018c2:	1c5a      	adds	r2, r3, #1
 80018c4:	60fa      	str	r2, [r7, #12]
 80018c6:	220c      	movs	r2, #12
 80018c8:	701a      	strb	r2, [r3, #0]
                    break;
 80018ca:	e026      	b.n	800191a <parse_string+0x206>
                    *output_pointer++ = '\n';
 80018cc:	68fb      	ldr	r3, [r7, #12]
 80018ce:	1c5a      	adds	r2, r3, #1
 80018d0:	60fa      	str	r2, [r7, #12]
 80018d2:	220a      	movs	r2, #10
 80018d4:	701a      	strb	r2, [r3, #0]
                    break;
 80018d6:	e020      	b.n	800191a <parse_string+0x206>
                    *output_pointer++ = '\r';
 80018d8:	68fb      	ldr	r3, [r7, #12]
 80018da:	1c5a      	adds	r2, r3, #1
 80018dc:	60fa      	str	r2, [r7, #12]
 80018de:	220d      	movs	r2, #13
 80018e0:	701a      	strb	r2, [r3, #0]
                    break;
 80018e2:	e01a      	b.n	800191a <parse_string+0x206>
                    *output_pointer++ = '\t';
 80018e4:	68fb      	ldr	r3, [r7, #12]
 80018e6:	1c5a      	adds	r2, r3, #1
 80018e8:	60fa      	str	r2, [r7, #12]
 80018ea:	2209      	movs	r2, #9
 80018ec:	701a      	strb	r2, [r3, #0]
                    break;
 80018ee:	e014      	b.n	800191a <parse_string+0x206>
                    *output_pointer++ = input_pointer[1];
 80018f0:	6a7b      	ldr	r3, [r7, #36]	@ 0x24
 80018f2:	1c5a      	adds	r2, r3, #1
 80018f4:	68fb      	ldr	r3, [r7, #12]
 80018f6:	1c59      	adds	r1, r3, #1
 80018f8:	60f9      	str	r1, [r7, #12]
 80018fa:	7812      	ldrb	r2, [r2, #0]
 80018fc:	701a      	strb	r2, [r3, #0]
                    break;
 80018fe:	e00c      	b.n	800191a <parse_string+0x206>
                    sequence_length = utf16_literal_to_utf8(input_pointer, input_end, &output_pointer);
 8001900:	f107 030c 	add.w	r3, r7, #12
 8001904:	461a      	mov	r2, r3
 8001906:	6a39      	ldr	r1, [r7, #32]
 8001908:	6a78      	ldr	r0, [r7, #36]	@ 0x24
 800190a:	f7ff fe1b 	bl	8001544 <utf16_literal_to_utf8>
 800190e:	4603      	mov	r3, r0
 8001910:	75fb      	strb	r3, [r7, #23]
                    if (sequence_length == 0)
 8001912:	7dfb      	ldrb	r3, [r7, #23]
 8001914:	2b00      	cmp	r3, #0
 8001916:	d02c      	beq.n	8001972 <parse_string+0x25e>
                    break;
 8001918:	bf00      	nop
            }
            input_pointer += sequence_length;
 800191a:	7dfb      	ldrb	r3, [r7, #23]
 800191c:	6a7a      	ldr	r2, [r7, #36]	@ 0x24
 800191e:	4413      	add	r3, r2
 8001920:	627b      	str	r3, [r7, #36]	@ 0x24
    while (input_pointer < input_end)
 8001922:	6a7a      	ldr	r2, [r7, #36]	@ 0x24
 8001924:	6a3b      	ldr	r3, [r7, #32]
 8001926:	429a      	cmp	r2, r3
 8001928:	f4ff af66 	bcc.w	80017f8 <parse_string+0xe4>
        }
    }

    /* zero terminate the output */
    *output_pointer = '\0';
 800192c:	68fb      	ldr	r3, [r7, #12]
 800192e:	2200      	movs	r2, #0
 8001930:	701a      	strb	r2, [r3, #0]

    item->type = cJSON_String;
 8001932:	687b      	ldr	r3, [r7, #4]
 8001934:	2210      	movs	r2, #16
 8001936:	60da      	str	r2, [r3, #12]
    item->valuestring = (char*)output;
 8001938:	687b      	ldr	r3, [r7, #4]
 800193a:	69fa      	ldr	r2, [r7, #28]
 800193c:	611a      	str	r2, [r3, #16]

    input_buffer->offset = (size_t) (input_end - input_buffer->content);
 800193e:	683b      	ldr	r3, [r7, #0]
 8001940:	681b      	ldr	r3, [r3, #0]
 8001942:	6a3a      	ldr	r2, [r7, #32]
 8001944:	1ad3      	subs	r3, r2, r3
 8001946:	461a      	mov	r2, r3
 8001948:	683b      	ldr	r3, [r7, #0]
 800194a:	609a      	str	r2, [r3, #8]
    input_buffer->offset++;
 800194c:	683b      	ldr	r3, [r7, #0]
 800194e:	689b      	ldr	r3, [r3, #8]
 8001950:	1c5a      	adds	r2, r3, #1
 8001952:	683b      	ldr	r3, [r7, #0]
 8001954:	609a      	str	r2, [r3, #8]

    return true;
 8001956:	2301      	movs	r3, #1
 8001958:	e020      	b.n	800199c <parse_string+0x288>
        goto fail;
 800195a:	bf00      	nop
 800195c:	e00a      	b.n	8001974 <parse_string+0x260>
                    goto fail;
 800195e:	bf00      	nop
 8001960:	e008      	b.n	8001974 <parse_string+0x260>
            goto fail; /* string ended unexpectedly */
 8001962:	bf00      	nop
 8001964:	e006      	b.n	8001974 <parse_string+0x260>
            goto fail; /* allocation failure */
 8001966:	bf00      	nop
 8001968:	e004      	b.n	8001974 <parse_string+0x260>
                goto fail;
 800196a:	bf00      	nop
 800196c:	e002      	b.n	8001974 <parse_string+0x260>
                    goto fail;
 800196e:	bf00      	nop
 8001970:	e000      	b.n	8001974 <parse_string+0x260>
                        goto fail;
 8001972:	bf00      	nop

fail:
    if (output != NULL)
 8001974:	69fb      	ldr	r3, [r7, #28]
 8001976:	2b00      	cmp	r3, #0
 8001978:	d005      	beq.n	8001986 <parse_string+0x272>
    {
        input_buffer->hooks.deallocate(output);
 800197a:	683b      	ldr	r3, [r7, #0]
 800197c:	695b      	ldr	r3, [r3, #20]
 800197e:	69f8      	ldr	r0, [r7, #28]
 8001980:	4798      	blx	r3
        output = NULL;
 8001982:	2300      	movs	r3, #0
 8001984:	61fb      	str	r3, [r7, #28]
    }

    if (input_pointer != NULL)
 8001986:	6a7b      	ldr	r3, [r7, #36]	@ 0x24
 8001988:	2b00      	cmp	r3, #0
 800198a:	d006      	beq.n	800199a <parse_string+0x286>
    {
        input_buffer->offset = (size_t)(input_pointer - input_buffer->content);
 800198c:	683b      	ldr	r3, [r7, #0]
 800198e:	681b      	ldr	r3, [r3, #0]
 8001990:	6a7a      	ldr	r2, [r7, #36]	@ 0x24
 8001992:	1ad3      	subs	r3, r2, r3
 8001994:	461a      	mov	r2, r3
 8001996:	683b      	ldr	r3, [r7, #0]
 8001998:	609a      	str	r2, [r3, #8]
    }

    return false;
 800199a:	2300      	movs	r3, #0
}
 800199c:	4618      	mov	r0, r3
 800199e:	3728      	adds	r7, #40	@ 0x28
 80019a0:	46bd      	mov	sp, r7
 80019a2:	bd80      	pop	{r7, pc}

080019a4 <buffer_skip_whitespace>:
static cJSON_bool parse_object(cJSON * const item, parse_buffer * const input_buffer);
static cJSON_bool print_object(const cJSON * const item, printbuffer * const output_buffer);

/* Utility to jump whitespace and cr/lf */
static parse_buffer *buffer_skip_whitespace(parse_buffer * const buffer)
{
 80019a4:	b480      	push	{r7}
 80019a6:	b083      	sub	sp, #12
 80019a8:	af00      	add	r7, sp, #0
 80019aa:	6078      	str	r0, [r7, #4]
    if ((buffer == NULL) || (buffer->content == NULL))
 80019ac:	687b      	ldr	r3, [r7, #4]
 80019ae:	2b00      	cmp	r3, #0
 80019b0:	d003      	beq.n	80019ba <buffer_skip_whitespace+0x16>
 80019b2:	687b      	ldr	r3, [r7, #4]
 80019b4:	681b      	ldr	r3, [r3, #0]
 80019b6:	2b00      	cmp	r3, #0
 80019b8:	d101      	bne.n	80019be <buffer_skip_whitespace+0x1a>
    {
        return NULL;
 80019ba:	2300      	movs	r3, #0
 80019bc:	e02c      	b.n	8001a18 <buffer_skip_whitespace+0x74>
    }

    if (cannot_access_at_index(buffer, 0))
 80019be:	687b      	ldr	r3, [r7, #4]
 80019c0:	2b00      	cmp	r3, #0
 80019c2:	d005      	beq.n	80019d0 <buffer_skip_whitespace+0x2c>
 80019c4:	687b      	ldr	r3, [r7, #4]
 80019c6:	689a      	ldr	r2, [r3, #8]
 80019c8:	687b      	ldr	r3, [r7, #4]
 80019ca:	685b      	ldr	r3, [r3, #4]
 80019cc:	429a      	cmp	r2, r3
 80019ce:	d306      	bcc.n	80019de <buffer_skip_whitespace+0x3a>
    {
        return buffer;
 80019d0:	687b      	ldr	r3, [r7, #4]
 80019d2:	e021      	b.n	8001a18 <buffer_skip_whitespace+0x74>
    }

    while (can_access_at_index(buffer, 0) && (buffer_at_offset(buffer)[0] <= 32))
    {
       buffer->offset++;
 80019d4:	687b      	ldr	r3, [r7, #4]
 80019d6:	689b      	ldr	r3, [r3, #8]
 80019d8:	1c5a      	adds	r2, r3, #1
 80019da:	687b      	ldr	r3, [r7, #4]
 80019dc:	609a      	str	r2, [r3, #8]
    while (can_access_at_index(buffer, 0) && (buffer_at_offset(buffer)[0] <= 32))
 80019de:	687b      	ldr	r3, [r7, #4]
 80019e0:	2b00      	cmp	r3, #0
 80019e2:	d00d      	beq.n	8001a00 <buffer_skip_whitespace+0x5c>
 80019e4:	687b      	ldr	r3, [r7, #4]
 80019e6:	689a      	ldr	r2, [r3, #8]
 80019e8:	687b      	ldr	r3, [r7, #4]
 80019ea:	685b      	ldr	r3, [r3, #4]
 80019ec:	429a      	cmp	r2, r3
 80019ee:	d207      	bcs.n	8001a00 <buffer_skip_whitespace+0x5c>
 80019f0:	687b      	ldr	r3, [r7, #4]
 80019f2:	681a      	ldr	r2, [r3, #0]
 80019f4:	687b      	ldr	r3, [r7, #4]
 80019f6:	689b      	ldr	r3, [r3, #8]
 80019f8:	4413      	add	r3, r2
 80019fa:	781b      	ldrb	r3, [r3, #0]
 80019fc:	2b20      	cmp	r3, #32
 80019fe:	d9e9      	bls.n	80019d4 <buffer_skip_whitespace+0x30>
    }

    if (buffer->offset == buffer->length)
 8001a00:	687b      	ldr	r3, [r7, #4]
 8001a02:	689a      	ldr	r2, [r3, #8]
 8001a04:	687b      	ldr	r3, [r7, #4]
 8001a06:	685b      	ldr	r3, [r3, #4]
 8001a08:	429a      	cmp	r2, r3
 8001a0a:	d104      	bne.n	8001a16 <buffer_skip_whitespace+0x72>
    {
        buffer->offset--;
 8001a0c:	687b      	ldr	r3, [r7, #4]
 8001a0e:	689b      	ldr	r3, [r3, #8]
 8001a10:	1e5a      	subs	r2, r3, #1
 8001a12:	687b      	ldr	r3, [r7, #4]
 8001a14:	609a      	str	r2, [r3, #8]
    }

    return buffer;
 8001a16:	687b      	ldr	r3, [r7, #4]
}
 8001a18:	4618      	mov	r0, r3
 8001a1a:	370c      	adds	r7, #12
 8001a1c:	46bd      	mov	sp, r7
 8001a1e:	f85d 7b04 	ldr.w	r7, [sp], #4
 8001a22:	4770      	bx	lr

08001a24 <skip_utf8_bom>:

/* skip the UTF-8 BOM (byte order mark) if it is at the beginning of a buffer */
static parse_buffer *skip_utf8_bom(parse_buffer * const buffer)
{
 8001a24:	b580      	push	{r7, lr}
 8001a26:	b082      	sub	sp, #8
 8001a28:	af00      	add	r7, sp, #0
 8001a2a:	6078      	str	r0, [r7, #4]
    if ((buffer == NULL) || (buffer->content == NULL) || (buffer->offset != 0))
 8001a2c:	687b      	ldr	r3, [r7, #4]
 8001a2e:	2b00      	cmp	r3, #0
 8001a30:	d007      	beq.n	8001a42 <skip_utf8_bom+0x1e>
 8001a32:	687b      	ldr	r3, [r7, #4]
 8001a34:	681b      	ldr	r3, [r3, #0]
 8001a36:	2b00      	cmp	r3, #0
 8001a38:	d003      	beq.n	8001a42 <skip_utf8_bom+0x1e>
 8001a3a:	687b      	ldr	r3, [r7, #4]
 8001a3c:	689b      	ldr	r3, [r3, #8]
 8001a3e:	2b00      	cmp	r3, #0
 8001a40:	d001      	beq.n	8001a46 <skip_utf8_bom+0x22>
    {
        return NULL;
 8001a42:	2300      	movs	r3, #0
 8001a44:	e01c      	b.n	8001a80 <skip_utf8_bom+0x5c>
    }

    if (can_access_at_index(buffer, 4) && (strncmp((const char*)buffer_at_offset(buffer), "\xEF\xBB\xBF", 3) == 0))
 8001a46:	687b      	ldr	r3, [r7, #4]
 8001a48:	2b00      	cmp	r3, #0
 8001a4a:	d018      	beq.n	8001a7e <skip_utf8_bom+0x5a>
 8001a4c:	687b      	ldr	r3, [r7, #4]
 8001a4e:	689b      	ldr	r3, [r3, #8]
 8001a50:	1d1a      	adds	r2, r3, #4
 8001a52:	687b      	ldr	r3, [r7, #4]
 8001a54:	685b      	ldr	r3, [r3, #4]
 8001a56:	429a      	cmp	r2, r3
 8001a58:	d211      	bcs.n	8001a7e <skip_utf8_bom+0x5a>
 8001a5a:	687b      	ldr	r3, [r7, #4]
 8001a5c:	681a      	ldr	r2, [r3, #0]
 8001a5e:	687b      	ldr	r3, [r7, #4]
 8001a60:	689b      	ldr	r3, [r3, #8]
 8001a62:	4413      	add	r3, r2
 8001a64:	2203      	movs	r2, #3
 8001a66:	4908      	ldr	r1, [pc, #32]	@ (8001a88 <skip_utf8_bom+0x64>)
 8001a68:	4618      	mov	r0, r3
 8001a6a:	f007 ff36 	bl	80098da <strncmp>
 8001a6e:	4603      	mov	r3, r0
 8001a70:	2b00      	cmp	r3, #0
 8001a72:	d104      	bne.n	8001a7e <skip_utf8_bom+0x5a>
    {
        buffer->offset += 3;
 8001a74:	687b      	ldr	r3, [r7, #4]
 8001a76:	689b      	ldr	r3, [r3, #8]
 8001a78:	1cda      	adds	r2, r3, #3
 8001a7a:	687b      	ldr	r3, [r7, #4]
 8001a7c:	609a      	str	r2, [r3, #8]
    }

    return buffer;
 8001a7e:	687b      	ldr	r3, [r7, #4]
}
 8001a80:	4618      	mov	r0, r3
 8001a82:	3708      	adds	r7, #8
 8001a84:	46bd      	mov	sp, r7
 8001a86:	bd80      	pop	{r7, pc}
 8001a88:	0800b888 	.word	0x0800b888

08001a8c <cJSON_ParseWithOpts>:

CJSON_PUBLIC(cJSON *) cJSON_ParseWithOpts(const char *value, const char **return_parse_end, cJSON_bool require_null_terminated)
{
 8001a8c:	b580      	push	{r7, lr}
 8001a8e:	b086      	sub	sp, #24
 8001a90:	af00      	add	r7, sp, #0
 8001a92:	60f8      	str	r0, [r7, #12]
 8001a94:	60b9      	str	r1, [r7, #8]
 8001a96:	607a      	str	r2, [r7, #4]
    size_t buffer_length;

    if (NULL == value)
 8001a98:	68fb      	ldr	r3, [r7, #12]
 8001a9a:	2b00      	cmp	r3, #0
 8001a9c:	d101      	bne.n	8001aa2 <cJSON_ParseWithOpts+0x16>
    {
        return NULL;
 8001a9e:	2300      	movs	r3, #0
 8001aa0:	e00c      	b.n	8001abc <cJSON_ParseWithOpts+0x30>
    }

    /* Adding null character size due to require_null_terminated. */
    buffer_length = strlen(value) + sizeof("");
 8001aa2:	68f8      	ldr	r0, [r7, #12]
 8001aa4:	f7fe fb9e 	bl	80001e4 <strlen>
 8001aa8:	4603      	mov	r3, r0
 8001aaa:	3301      	adds	r3, #1
 8001aac:	617b      	str	r3, [r7, #20]

    return cJSON_ParseWithLengthOpts(value, buffer_length, return_parse_end, require_null_terminated);
 8001aae:	687b      	ldr	r3, [r7, #4]
 8001ab0:	68ba      	ldr	r2, [r7, #8]
 8001ab2:	6979      	ldr	r1, [r7, #20]
 8001ab4:	68f8      	ldr	r0, [r7, #12]
 8001ab6:	f000 f805 	bl	8001ac4 <cJSON_ParseWithLengthOpts>
 8001aba:	4603      	mov	r3, r0
}
 8001abc:	4618      	mov	r0, r3
 8001abe:	3718      	adds	r7, #24
 8001ac0:	46bd      	mov	sp, r7
 8001ac2:	bd80      	pop	{r7, pc}

08001ac4 <cJSON_ParseWithLengthOpts>:

/* Parse an object - create a new root, and populate. */
CJSON_PUBLIC(cJSON *) cJSON_ParseWithLengthOpts(const char *value, size_t buffer_length, const char **return_parse_end, cJSON_bool require_null_terminated)
{
 8001ac4:	b580      	push	{r7, lr}
 8001ac6:	b08e      	sub	sp, #56	@ 0x38
 8001ac8:	af00      	add	r7, sp, #0
 8001aca:	60f8      	str	r0, [r7, #12]
 8001acc:	60b9      	str	r1, [r7, #8]
 8001ace:	607a      	str	r2, [r7, #4]
 8001ad0:	603b      	str	r3, [r7, #0]
    parse_buffer buffer = { 0, 0, 0, 0, { 0, 0, 0 } };
 8001ad2:	f107 0318 	add.w	r3, r7, #24
 8001ad6:	2200      	movs	r2, #0
 8001ad8:	601a      	str	r2, [r3, #0]
 8001ada:	605a      	str	r2, [r3, #4]
 8001adc:	609a      	str	r2, [r3, #8]
 8001ade:	60da      	str	r2, [r3, #12]
 8001ae0:	611a      	str	r2, [r3, #16]
 8001ae2:	615a      	str	r2, [r3, #20]
 8001ae4:	619a      	str	r2, [r3, #24]
    cJSON *item = NULL;
 8001ae6:	2300      	movs	r3, #0
 8001ae8:	637b      	str	r3, [r7, #52]	@ 0x34

    /* reset error position */
    global_error.json = NULL;
 8001aea:	4b41      	ldr	r3, [pc, #260]	@ (8001bf0 <cJSON_ParseWithLengthOpts+0x12c>)
 8001aec:	2200      	movs	r2, #0
 8001aee:	601a      	str	r2, [r3, #0]
    global_error.position = 0;
 8001af0:	4b3f      	ldr	r3, [pc, #252]	@ (8001bf0 <cJSON_ParseWithLengthOpts+0x12c>)
 8001af2:	2200      	movs	r2, #0
 8001af4:	605a      	str	r2, [r3, #4]

    if (value == NULL || 0 == buffer_length)
 8001af6:	68fb      	ldr	r3, [r7, #12]
 8001af8:	2b00      	cmp	r3, #0
 8001afa:	d042      	beq.n	8001b82 <cJSON_ParseWithLengthOpts+0xbe>
 8001afc:	68bb      	ldr	r3, [r7, #8]
 8001afe:	2b00      	cmp	r3, #0
 8001b00:	d03f      	beq.n	8001b82 <cJSON_ParseWithLengthOpts+0xbe>
    {
        goto fail;
    }

    buffer.content = (const unsigned char*)value;
 8001b02:	68fb      	ldr	r3, [r7, #12]
 8001b04:	61bb      	str	r3, [r7, #24]
    buffer.length = buffer_length;
 8001b06:	68bb      	ldr	r3, [r7, #8]
 8001b08:	61fb      	str	r3, [r7, #28]
    buffer.offset = 0;
 8001b0a:	2300      	movs	r3, #0
 8001b0c:	623b      	str	r3, [r7, #32]
    buffer.hooks = global_hooks;
 8001b0e:	4a39      	ldr	r2, [pc, #228]	@ (8001bf4 <cJSON_ParseWithLengthOpts+0x130>)
 8001b10:	f107 0328 	add.w	r3, r7, #40	@ 0x28
 8001b14:	ca07      	ldmia	r2, {r0, r1, r2}
 8001b16:	e883 0007 	stmia.w	r3, {r0, r1, r2}

    item = cJSON_New_Item(&global_hooks);
 8001b1a:	4836      	ldr	r0, [pc, #216]	@ (8001bf4 <cJSON_ParseWithLengthOpts+0x130>)
 8001b1c:	f7ff fb74 	bl	8001208 <cJSON_New_Item>
 8001b20:	6378      	str	r0, [r7, #52]	@ 0x34
    if (item == NULL) /* memory fail */
 8001b22:	6b7b      	ldr	r3, [r7, #52]	@ 0x34
 8001b24:	2b00      	cmp	r3, #0
 8001b26:	d02e      	beq.n	8001b86 <cJSON_ParseWithLengthOpts+0xc2>
    {
        goto fail;
    }

    if (!parse_value(item, buffer_skip_whitespace(skip_utf8_bom(&buffer))))
 8001b28:	f107 0318 	add.w	r3, r7, #24
 8001b2c:	4618      	mov	r0, r3
 8001b2e:	f7ff ff79 	bl	8001a24 <skip_utf8_bom>
 8001b32:	4603      	mov	r3, r0
 8001b34:	4618      	mov	r0, r3
 8001b36:	f7ff ff35 	bl	80019a4 <buffer_skip_whitespace>
 8001b3a:	4603      	mov	r3, r0
 8001b3c:	4619      	mov	r1, r3
 8001b3e:	6b78      	ldr	r0, [r7, #52]	@ 0x34
 8001b40:	f000 f868 	bl	8001c14 <parse_value>
 8001b44:	4603      	mov	r3, r0
 8001b46:	2b00      	cmp	r3, #0
 8001b48:	d01f      	beq.n	8001b8a <cJSON_ParseWithLengthOpts+0xc6>
        /* parse failure. ep is set. */
        goto fail;
    }

    /* if we require null-terminated JSON without appended garbage, skip and then check for a null terminator */
    if (require_null_terminated)
 8001b4a:	683b      	ldr	r3, [r7, #0]
 8001b4c:	2b00      	cmp	r3, #0
 8001b4e:	d00e      	beq.n	8001b6e <cJSON_ParseWithLengthOpts+0xaa>
    {
        buffer_skip_whitespace(&buffer);
 8001b50:	f107 0318 	add.w	r3, r7, #24
 8001b54:	4618      	mov	r0, r3
 8001b56:	f7ff ff25 	bl	80019a4 <buffer_skip_whitespace>
        if ((buffer.offset >= buffer.length) || buffer_at_offset(&buffer)[0] != '\0')
 8001b5a:	6a3a      	ldr	r2, [r7, #32]
 8001b5c:	69fb      	ldr	r3, [r7, #28]
 8001b5e:	429a      	cmp	r2, r3
 8001b60:	d215      	bcs.n	8001b8e <cJSON_ParseWithLengthOpts+0xca>
 8001b62:	69ba      	ldr	r2, [r7, #24]
 8001b64:	6a3b      	ldr	r3, [r7, #32]
 8001b66:	4413      	add	r3, r2
 8001b68:	781b      	ldrb	r3, [r3, #0]
 8001b6a:	2b00      	cmp	r3, #0
 8001b6c:	d10f      	bne.n	8001b8e <cJSON_ParseWithLengthOpts+0xca>
        {
            goto fail;
        }
    }
    if (return_parse_end)
 8001b6e:	687b      	ldr	r3, [r7, #4]
 8001b70:	2b00      	cmp	r3, #0
 8001b72:	d004      	beq.n	8001b7e <cJSON_ParseWithLengthOpts+0xba>
    {
        *return_parse_end = (const char*)buffer_at_offset(&buffer);
 8001b74:	69ba      	ldr	r2, [r7, #24]
 8001b76:	6a3b      	ldr	r3, [r7, #32]
 8001b78:	441a      	add	r2, r3
 8001b7a:	687b      	ldr	r3, [r7, #4]
 8001b7c:	601a      	str	r2, [r3, #0]
    }

    return item;
 8001b7e:	6b7b      	ldr	r3, [r7, #52]	@ 0x34
 8001b80:	e031      	b.n	8001be6 <cJSON_ParseWithLengthOpts+0x122>
        goto fail;
 8001b82:	bf00      	nop
 8001b84:	e004      	b.n	8001b90 <cJSON_ParseWithLengthOpts+0xcc>
        goto fail;
 8001b86:	bf00      	nop
 8001b88:	e002      	b.n	8001b90 <cJSON_ParseWithLengthOpts+0xcc>
        goto fail;
 8001b8a:	bf00      	nop
 8001b8c:	e000      	b.n	8001b90 <cJSON_ParseWithLengthOpts+0xcc>
            goto fail;
 8001b8e:	bf00      	nop

fail:
    if (item != NULL)
 8001b90:	6b7b      	ldr	r3, [r7, #52]	@ 0x34
 8001b92:	2b00      	cmp	r3, #0
 8001b94:	d002      	beq.n	8001b9c <cJSON_ParseWithLengthOpts+0xd8>
    {
        cJSON_Delete(item);
 8001b96:	6b78      	ldr	r0, [r7, #52]	@ 0x34
 8001b98:	f7ff fb4c 	bl	8001234 <cJSON_Delete>
    }

    if (value != NULL)
 8001b9c:	68fb      	ldr	r3, [r7, #12]
 8001b9e:	2b00      	cmp	r3, #0
 8001ba0:	d020      	beq.n	8001be4 <cJSON_ParseWithLengthOpts+0x120>
    {
        error local_error;
        local_error.json = (const unsigned char*)value;
 8001ba2:	68fb      	ldr	r3, [r7, #12]
 8001ba4:	613b      	str	r3, [r7, #16]
        local_error.position = 0;
 8001ba6:	2300      	movs	r3, #0
 8001ba8:	617b      	str	r3, [r7, #20]

        if (buffer.offset < buffer.length)
 8001baa:	6a3a      	ldr	r2, [r7, #32]
 8001bac:	69fb      	ldr	r3, [r7, #28]
 8001bae:	429a      	cmp	r2, r3
 8001bb0:	d202      	bcs.n	8001bb8 <cJSON_ParseWithLengthOpts+0xf4>
        {
            local_error.position = buffer.offset;
 8001bb2:	6a3b      	ldr	r3, [r7, #32]
 8001bb4:	617b      	str	r3, [r7, #20]
 8001bb6:	e005      	b.n	8001bc4 <cJSON_ParseWithLengthOpts+0x100>
        }
        else if (buffer.length > 0)
 8001bb8:	69fb      	ldr	r3, [r7, #28]
 8001bba:	2b00      	cmp	r3, #0
 8001bbc:	d002      	beq.n	8001bc4 <cJSON_ParseWithLengthOpts+0x100>
        {
            local_error.position = buffer.length - 1;
 8001bbe:	69fb      	ldr	r3, [r7, #28]
 8001bc0:	3b01      	subs	r3, #1
 8001bc2:	617b      	str	r3, [r7, #20]
        }

        if (return_parse_end != NULL)
 8001bc4:	687b      	ldr	r3, [r7, #4]
 8001bc6:	2b00      	cmp	r3, #0
 8001bc8:	d004      	beq.n	8001bd4 <cJSON_ParseWithLengthOpts+0x110>
        {
            *return_parse_end = (const char*)local_error.json + local_error.position;
 8001bca:	693a      	ldr	r2, [r7, #16]
 8001bcc:	697b      	ldr	r3, [r7, #20]
 8001bce:	441a      	add	r2, r3
 8001bd0:	687b      	ldr	r3, [r7, #4]
 8001bd2:	601a      	str	r2, [r3, #0]
        }

        global_error = local_error;
 8001bd4:	4b06      	ldr	r3, [pc, #24]	@ (8001bf0 <cJSON_ParseWithLengthOpts+0x12c>)
 8001bd6:	461a      	mov	r2, r3
 8001bd8:	f107 0310 	add.w	r3, r7, #16
 8001bdc:	e893 0003 	ldmia.w	r3, {r0, r1}
 8001be0:	e882 0003 	stmia.w	r2, {r0, r1}
    }

    return NULL;
 8001be4:	2300      	movs	r3, #0
}
 8001be6:	4618      	mov	r0, r3
 8001be8:	3738      	adds	r7, #56	@ 0x38
 8001bea:	46bd      	mov	sp, r7
 8001bec:	bd80      	pop	{r7, pc}
 8001bee:	bf00      	nop
 8001bf0:	200002f0 	.word	0x200002f0
 8001bf4:	20000000 	.word	0x20000000

08001bf8 <cJSON_Parse>:

/* Default options for cJSON_Parse */
CJSON_PUBLIC(cJSON *) cJSON_Parse(const char *value)
{
 8001bf8:	b580      	push	{r7, lr}
 8001bfa:	b082      	sub	sp, #8
 8001bfc:	af00      	add	r7, sp, #0
 8001bfe:	6078      	str	r0, [r7, #4]
    return cJSON_ParseWithOpts(value, 0, 0);
 8001c00:	2200      	movs	r2, #0
 8001c02:	2100      	movs	r1, #0
 8001c04:	6878      	ldr	r0, [r7, #4]
 8001c06:	f7ff ff41 	bl	8001a8c <cJSON_ParseWithOpts>
 8001c0a:	4603      	mov	r3, r0
}
 8001c0c:	4618      	mov	r0, r3
 8001c0e:	3708      	adds	r7, #8
 8001c10:	46bd      	mov	sp, r7
 8001c12:	bd80      	pop	{r7, pc}

08001c14 <parse_value>:
    return print_value(item, &p);
}

/* Parser core - when encountering text, process appropriately. */
static cJSON_bool parse_value(cJSON * const item, parse_buffer * const input_buffer)
{
 8001c14:	b580      	push	{r7, lr}
 8001c16:	b082      	sub	sp, #8
 8001c18:	af00      	add	r7, sp, #0
 8001c1a:	6078      	str	r0, [r7, #4]
 8001c1c:	6039      	str	r1, [r7, #0]
    if ((input_buffer == NULL) || (input_buffer->content == NULL))
 8001c1e:	683b      	ldr	r3, [r7, #0]
 8001c20:	2b00      	cmp	r3, #0
 8001c22:	d003      	beq.n	8001c2c <parse_value+0x18>
 8001c24:	683b      	ldr	r3, [r7, #0]
 8001c26:	681b      	ldr	r3, [r3, #0]
 8001c28:	2b00      	cmp	r3, #0
 8001c2a:	d101      	bne.n	8001c30 <parse_value+0x1c>
    {
        return false; /* no input */
 8001c2c:	2300      	movs	r3, #0
 8001c2e:	e0d2      	b.n	8001dd6 <parse_value+0x1c2>
    }

    /* parse the different types of values */
    /* null */
    if (can_read(input_buffer, 4) && (strncmp((const char*)buffer_at_offset(input_buffer), "null", 4) == 0))
 8001c30:	683b      	ldr	r3, [r7, #0]
 8001c32:	2b00      	cmp	r3, #0
 8001c34:	d01d      	beq.n	8001c72 <parse_value+0x5e>
 8001c36:	683b      	ldr	r3, [r7, #0]
 8001c38:	689b      	ldr	r3, [r3, #8]
 8001c3a:	1d1a      	adds	r2, r3, #4
 8001c3c:	683b      	ldr	r3, [r7, #0]
 8001c3e:	685b      	ldr	r3, [r3, #4]
 8001c40:	429a      	cmp	r2, r3
 8001c42:	d816      	bhi.n	8001c72 <parse_value+0x5e>
 8001c44:	683b      	ldr	r3, [r7, #0]
 8001c46:	681a      	ldr	r2, [r3, #0]
 8001c48:	683b      	ldr	r3, [r7, #0]
 8001c4a:	689b      	ldr	r3, [r3, #8]
 8001c4c:	4413      	add	r3, r2
 8001c4e:	2204      	movs	r2, #4
 8001c50:	4963      	ldr	r1, [pc, #396]	@ (8001de0 <parse_value+0x1cc>)
 8001c52:	4618      	mov	r0, r3
 8001c54:	f007 fe41 	bl	80098da <strncmp>
 8001c58:	4603      	mov	r3, r0
 8001c5a:	2b00      	cmp	r3, #0
 8001c5c:	d109      	bne.n	8001c72 <parse_value+0x5e>
    {
        item->type = cJSON_NULL;
 8001c5e:	687b      	ldr	r3, [r7, #4]
 8001c60:	2204      	movs	r2, #4
 8001c62:	60da      	str	r2, [r3, #12]
        input_buffer->offset += 4;
 8001c64:	683b      	ldr	r3, [r7, #0]
 8001c66:	689b      	ldr	r3, [r3, #8]
 8001c68:	1d1a      	adds	r2, r3, #4
 8001c6a:	683b      	ldr	r3, [r7, #0]
 8001c6c:	609a      	str	r2, [r3, #8]
        return true;
 8001c6e:	2301      	movs	r3, #1
 8001c70:	e0b1      	b.n	8001dd6 <parse_value+0x1c2>
    }
    /* false */
    if (can_read(input_buffer, 5) && (strncmp((const char*)buffer_at_offset(input_buffer), "false", 5) == 0))
 8001c72:	683b      	ldr	r3, [r7, #0]
 8001c74:	2b00      	cmp	r3, #0
 8001c76:	d01d      	beq.n	8001cb4 <parse_value+0xa0>
 8001c78:	683b      	ldr	r3, [r7, #0]
 8001c7a:	689b      	ldr	r3, [r3, #8]
 8001c7c:	1d5a      	adds	r2, r3, #5
 8001c7e:	683b      	ldr	r3, [r7, #0]
 8001c80:	685b      	ldr	r3, [r3, #4]
 8001c82:	429a      	cmp	r2, r3
 8001c84:	d816      	bhi.n	8001cb4 <parse_value+0xa0>
 8001c86:	683b      	ldr	r3, [r7, #0]
 8001c88:	681a      	ldr	r2, [r3, #0]
 8001c8a:	683b      	ldr	r3, [r7, #0]
 8001c8c:	689b      	ldr	r3, [r3, #8]
 8001c8e:	4413      	add	r3, r2
 8001c90:	2205      	movs	r2, #5
 8001c92:	4954      	ldr	r1, [pc, #336]	@ (8001de4 <parse_value+0x1d0>)
 8001c94:	4618      	mov	r0, r3
 8001c96:	f007 fe20 	bl	80098da <strncmp>
 8001c9a:	4603      	mov	r3, r0
 8001c9c:	2b00      	cmp	r3, #0
 8001c9e:	d109      	bne.n	8001cb4 <parse_value+0xa0>
    {
        item->type = cJSON_False;
 8001ca0:	687b      	ldr	r3, [r7, #4]
 8001ca2:	2201      	movs	r2, #1
 8001ca4:	60da      	str	r2, [r3, #12]
        input_buffer->offset += 5;
 8001ca6:	683b      	ldr	r3, [r7, #0]
 8001ca8:	689b      	ldr	r3, [r3, #8]
 8001caa:	1d5a      	adds	r2, r3, #5
 8001cac:	683b      	ldr	r3, [r7, #0]
 8001cae:	609a      	str	r2, [r3, #8]
        return true;
 8001cb0:	2301      	movs	r3, #1
 8001cb2:	e090      	b.n	8001dd6 <parse_value+0x1c2>
    }
    /* true */
    if (can_read(input_buffer, 4) && (strncmp((const char*)buffer_at_offset(input_buffer), "true", 4) == 0))
 8001cb4:	683b      	ldr	r3, [r7, #0]
 8001cb6:	2b00      	cmp	r3, #0
 8001cb8:	d020      	beq.n	8001cfc <parse_value+0xe8>
 8001cba:	683b      	ldr	r3, [r7, #0]
 8001cbc:	689b      	ldr	r3, [r3, #8]
 8001cbe:	1d1a      	adds	r2, r3, #4
 8001cc0:	683b      	ldr	r3, [r7, #0]
 8001cc2:	685b      	ldr	r3, [r3, #4]
 8001cc4:	429a      	cmp	r2, r3
 8001cc6:	d819      	bhi.n	8001cfc <parse_value+0xe8>
 8001cc8:	683b      	ldr	r3, [r7, #0]
 8001cca:	681a      	ldr	r2, [r3, #0]
 8001ccc:	683b      	ldr	r3, [r7, #0]
 8001cce:	689b      	ldr	r3, [r3, #8]
 8001cd0:	4413      	add	r3, r2
 8001cd2:	2204      	movs	r2, #4
 8001cd4:	4944      	ldr	r1, [pc, #272]	@ (8001de8 <parse_value+0x1d4>)
 8001cd6:	4618      	mov	r0, r3
 8001cd8:	f007 fdff 	bl	80098da <strncmp>
 8001cdc:	4603      	mov	r3, r0
 8001cde:	2b00      	cmp	r3, #0
 8001ce0:	d10c      	bne.n	8001cfc <parse_value+0xe8>
    {
        item->type = cJSON_True;
 8001ce2:	687b      	ldr	r3, [r7, #4]
 8001ce4:	2202      	movs	r2, #2
 8001ce6:	60da      	str	r2, [r3, #12]
        item->valueint = 1;
 8001ce8:	687b      	ldr	r3, [r7, #4]
 8001cea:	2201      	movs	r2, #1
 8001cec:	615a      	str	r2, [r3, #20]
        input_buffer->offset += 4;
 8001cee:	683b      	ldr	r3, [r7, #0]
 8001cf0:	689b      	ldr	r3, [r3, #8]
 8001cf2:	1d1a      	adds	r2, r3, #4
 8001cf4:	683b      	ldr	r3, [r7, #0]
 8001cf6:	609a      	str	r2, [r3, #8]
        return true;
 8001cf8:	2301      	movs	r3, #1
 8001cfa:	e06c      	b.n	8001dd6 <parse_value+0x1c2>
    }
    /* string */
    if (can_access_at_index(input_buffer, 0) && (buffer_at_offset(input_buffer)[0] == '\"'))
 8001cfc:	683b      	ldr	r3, [r7, #0]
 8001cfe:	2b00      	cmp	r3, #0
 8001d00:	d013      	beq.n	8001d2a <parse_value+0x116>
 8001d02:	683b      	ldr	r3, [r7, #0]
 8001d04:	689a      	ldr	r2, [r3, #8]
 8001d06:	683b      	ldr	r3, [r7, #0]
 8001d08:	685b      	ldr	r3, [r3, #4]
 8001d0a:	429a      	cmp	r2, r3
 8001d0c:	d20d      	bcs.n	8001d2a <parse_value+0x116>
 8001d0e:	683b      	ldr	r3, [r7, #0]
 8001d10:	681a      	ldr	r2, [r3, #0]
 8001d12:	683b      	ldr	r3, [r7, #0]
 8001d14:	689b      	ldr	r3, [r3, #8]
 8001d16:	4413      	add	r3, r2
 8001d18:	781b      	ldrb	r3, [r3, #0]
 8001d1a:	2b22      	cmp	r3, #34	@ 0x22
 8001d1c:	d105      	bne.n	8001d2a <parse_value+0x116>
    {
        return parse_string(item, input_buffer);
 8001d1e:	6839      	ldr	r1, [r7, #0]
 8001d20:	6878      	ldr	r0, [r7, #4]
 8001d22:	f7ff fcf7 	bl	8001714 <parse_string>
 8001d26:	4603      	mov	r3, r0
 8001d28:	e055      	b.n	8001dd6 <parse_value+0x1c2>
    }
    /* number */
    if (can_access_at_index(input_buffer, 0) && ((buffer_at_offset(input_buffer)[0] == '-') || ((buffer_at_offset(input_buffer)[0] >= '0') && (buffer_at_offset(input_buffer)[0] <= '9'))))
 8001d2a:	683b      	ldr	r3, [r7, #0]
 8001d2c:	2b00      	cmp	r3, #0
 8001d2e:	d023      	beq.n	8001d78 <parse_value+0x164>
 8001d30:	683b      	ldr	r3, [r7, #0]
 8001d32:	689a      	ldr	r2, [r3, #8]
 8001d34:	683b      	ldr	r3, [r7, #0]
 8001d36:	685b      	ldr	r3, [r3, #4]
 8001d38:	429a      	cmp	r2, r3
 8001d3a:	d21d      	bcs.n	8001d78 <parse_value+0x164>
 8001d3c:	683b      	ldr	r3, [r7, #0]
 8001d3e:	681a      	ldr	r2, [r3, #0]
 8001d40:	683b      	ldr	r3, [r7, #0]
 8001d42:	689b      	ldr	r3, [r3, #8]
 8001d44:	4413      	add	r3, r2
 8001d46:	781b      	ldrb	r3, [r3, #0]
 8001d48:	2b2d      	cmp	r3, #45	@ 0x2d
 8001d4a:	d00f      	beq.n	8001d6c <parse_value+0x158>
 8001d4c:	683b      	ldr	r3, [r7, #0]
 8001d4e:	681a      	ldr	r2, [r3, #0]
 8001d50:	683b      	ldr	r3, [r7, #0]
 8001d52:	689b      	ldr	r3, [r3, #8]
 8001d54:	4413      	add	r3, r2
 8001d56:	781b      	ldrb	r3, [r3, #0]
 8001d58:	2b2f      	cmp	r3, #47	@ 0x2f
 8001d5a:	d90d      	bls.n	8001d78 <parse_value+0x164>
 8001d5c:	683b      	ldr	r3, [r7, #0]
 8001d5e:	681a      	ldr	r2, [r3, #0]
 8001d60:	683b      	ldr	r3, [r7, #0]
 8001d62:	689b      	ldr	r3, [r3, #8]
 8001d64:	4413      	add	r3, r2
 8001d66:	781b      	ldrb	r3, [r3, #0]
 8001d68:	2b39      	cmp	r3, #57	@ 0x39
 8001d6a:	d805      	bhi.n	8001d78 <parse_value+0x164>
    {
        return parse_number(item, input_buffer);
 8001d6c:	6839      	ldr	r1, [r7, #0]
 8001d6e:	6878      	ldr	r0, [r7, #4]
 8001d70:	f7ff faba 	bl	80012e8 <parse_number>
 8001d74:	4603      	mov	r3, r0
 8001d76:	e02e      	b.n	8001dd6 <parse_value+0x1c2>
    }
    /* array */
    if (can_access_at_index(input_buffer, 0) && (buffer_at_offset(input_buffer)[0] == '['))
 8001d78:	683b      	ldr	r3, [r7, #0]
 8001d7a:	2b00      	cmp	r3, #0
 8001d7c:	d013      	beq.n	8001da6 <parse_value+0x192>
 8001d7e:	683b      	ldr	r3, [r7, #0]
 8001d80:	689a      	ldr	r2, [r3, #8]
 8001d82:	683b      	ldr	r3, [r7, #0]
 8001d84:	685b      	ldr	r3, [r3, #4]
 8001d86:	429a      	cmp	r2, r3
 8001d88:	d20d      	bcs.n	8001da6 <parse_value+0x192>
 8001d8a:	683b      	ldr	r3, [r7, #0]
 8001d8c:	681a      	ldr	r2, [r3, #0]
 8001d8e:	683b      	ldr	r3, [r7, #0]
 8001d90:	689b      	ldr	r3, [r3, #8]
 8001d92:	4413      	add	r3, r2
 8001d94:	781b      	ldrb	r3, [r3, #0]
 8001d96:	2b5b      	cmp	r3, #91	@ 0x5b
 8001d98:	d105      	bne.n	8001da6 <parse_value+0x192>
    {
        return parse_array(item, input_buffer);
 8001d9a:	6839      	ldr	r1, [r7, #0]
 8001d9c:	6878      	ldr	r0, [r7, #4]
 8001d9e:	f000 f825 	bl	8001dec <parse_array>
 8001da2:	4603      	mov	r3, r0
 8001da4:	e017      	b.n	8001dd6 <parse_value+0x1c2>
    }
    /* object */
    if (can_access_at_index(input_buffer, 0) && (buffer_at_offset(input_buffer)[0] == '{'))
 8001da6:	683b      	ldr	r3, [r7, #0]
 8001da8:	2b00      	cmp	r3, #0
 8001daa:	d013      	beq.n	8001dd4 <parse_value+0x1c0>
 8001dac:	683b      	ldr	r3, [r7, #0]
 8001dae:	689a      	ldr	r2, [r3, #8]
 8001db0:	683b      	ldr	r3, [r7, #0]
 8001db2:	685b      	ldr	r3, [r3, #4]
 8001db4:	429a      	cmp	r2, r3
 8001db6:	d20d      	bcs.n	8001dd4 <parse_value+0x1c0>
 8001db8:	683b      	ldr	r3, [r7, #0]
 8001dba:	681a      	ldr	r2, [r3, #0]
 8001dbc:	683b      	ldr	r3, [r7, #0]
 8001dbe:	689b      	ldr	r3, [r3, #8]
 8001dc0:	4413      	add	r3, r2
 8001dc2:	781b      	ldrb	r3, [r3, #0]
 8001dc4:	2b7b      	cmp	r3, #123	@ 0x7b
 8001dc6:	d105      	bne.n	8001dd4 <parse_value+0x1c0>
    {
        return parse_object(item, input_buffer);
 8001dc8:	6839      	ldr	r1, [r7, #0]
 8001dca:	6878      	ldr	r0, [r7, #4]
 8001dcc:	f000 f8d2 	bl	8001f74 <parse_object>
 8001dd0:	4603      	mov	r3, r0
 8001dd2:	e000      	b.n	8001dd6 <parse_value+0x1c2>
    }

    return false;
 8001dd4:	2300      	movs	r3, #0
}
 8001dd6:	4618      	mov	r0, r3
 8001dd8:	3708      	adds	r7, #8
 8001dda:	46bd      	mov	sp, r7
 8001ddc:	bd80      	pop	{r7, pc}
 8001dde:	bf00      	nop
 8001de0:	0800b85c 	.word	0x0800b85c
 8001de4:	0800b88c 	.word	0x0800b88c
 8001de8:	0800b894 	.word	0x0800b894

08001dec <parse_array>:
    }
}

/* Build an array from input text. */
static cJSON_bool parse_array(cJSON * const item, parse_buffer * const input_buffer)
{
 8001dec:	b580      	push	{r7, lr}
 8001dee:	b086      	sub	sp, #24
 8001df0:	af00      	add	r7, sp, #0
 8001df2:	6078      	str	r0, [r7, #4]
 8001df4:	6039      	str	r1, [r7, #0]
    cJSON *head = NULL; /* head of the linked list */
 8001df6:	2300      	movs	r3, #0
 8001df8:	617b      	str	r3, [r7, #20]
    cJSON *current_item = NULL;
 8001dfa:	2300      	movs	r3, #0
 8001dfc:	613b      	str	r3, [r7, #16]

    if (input_buffer->depth >= CJSON_NESTING_LIMIT)
 8001dfe:	683b      	ldr	r3, [r7, #0]
 8001e00:	68db      	ldr	r3, [r3, #12]
 8001e02:	f5b3 7f7a 	cmp.w	r3, #1000	@ 0x3e8
 8001e06:	d301      	bcc.n	8001e0c <parse_array+0x20>
    {
        return false; /* to deeply nested */
 8001e08:	2300      	movs	r3, #0
 8001e0a:	e0af      	b.n	8001f6c <parse_array+0x180>
    }
    input_buffer->depth++;
 8001e0c:	683b      	ldr	r3, [r7, #0]
 8001e0e:	68db      	ldr	r3, [r3, #12]
 8001e10:	1c5a      	adds	r2, r3, #1
 8001e12:	683b      	ldr	r3, [r7, #0]
 8001e14:	60da      	str	r2, [r3, #12]

    if (buffer_at_offset(input_buffer)[0] != '[')
 8001e16:	683b      	ldr	r3, [r7, #0]
 8001e18:	681a      	ldr	r2, [r3, #0]
 8001e1a:	683b      	ldr	r3, [r7, #0]
 8001e1c:	689b      	ldr	r3, [r3, #8]
 8001e1e:	4413      	add	r3, r2
 8001e20:	781b      	ldrb	r3, [r3, #0]
 8001e22:	2b5b      	cmp	r3, #91	@ 0x5b
 8001e24:	f040 8094 	bne.w	8001f50 <parse_array+0x164>
    {
        /* not an array */
        goto fail;
    }

    input_buffer->offset++;
 8001e28:	683b      	ldr	r3, [r7, #0]
 8001e2a:	689b      	ldr	r3, [r3, #8]
 8001e2c:	1c5a      	adds	r2, r3, #1
 8001e2e:	683b      	ldr	r3, [r7, #0]
 8001e30:	609a      	str	r2, [r3, #8]
    buffer_skip_whitespace(input_buffer);
 8001e32:	6838      	ldr	r0, [r7, #0]
 8001e34:	f7ff fdb6 	bl	80019a4 <buffer_skip_whitespace>
    if (can_access_at_index(input_buffer, 0) && (buffer_at_offset(input_buffer)[0] == ']'))
 8001e38:	683b      	ldr	r3, [r7, #0]
 8001e3a:	2b00      	cmp	r3, #0
 8001e3c:	d00d      	beq.n	8001e5a <parse_array+0x6e>
 8001e3e:	683b      	ldr	r3, [r7, #0]
 8001e40:	689a      	ldr	r2, [r3, #8]
 8001e42:	683b      	ldr	r3, [r7, #0]
 8001e44:	685b      	ldr	r3, [r3, #4]
 8001e46:	429a      	cmp	r2, r3
 8001e48:	d207      	bcs.n	8001e5a <parse_array+0x6e>
 8001e4a:	683b      	ldr	r3, [r7, #0]
 8001e4c:	681a      	ldr	r2, [r3, #0]
 8001e4e:	683b      	ldr	r3, [r7, #0]
 8001e50:	689b      	ldr	r3, [r3, #8]
 8001e52:	4413      	add	r3, r2
 8001e54:	781b      	ldrb	r3, [r3, #0]
 8001e56:	2b5d      	cmp	r3, #93	@ 0x5d
 8001e58:	d061      	beq.n	8001f1e <parse_array+0x132>
        /* empty array */
        goto success;
    }

    /* check if we skipped to the end of the buffer */
    if (cannot_access_at_index(input_buffer, 0))
 8001e5a:	683b      	ldr	r3, [r7, #0]
 8001e5c:	2b00      	cmp	r3, #0
 8001e5e:	d005      	beq.n	8001e6c <parse_array+0x80>
 8001e60:	683b      	ldr	r3, [r7, #0]
 8001e62:	689a      	ldr	r2, [r3, #8]
 8001e64:	683b      	ldr	r3, [r7, #0]
 8001e66:	685b      	ldr	r3, [r3, #4]
 8001e68:	429a      	cmp	r2, r3
 8001e6a:	d305      	bcc.n	8001e78 <parse_array+0x8c>
    {
        input_buffer->offset--;
 8001e6c:	683b      	ldr	r3, [r7, #0]
 8001e6e:	689b      	ldr	r3, [r3, #8]
 8001e70:	1e5a      	subs	r2, r3, #1
 8001e72:	683b      	ldr	r3, [r7, #0]
 8001e74:	609a      	str	r2, [r3, #8]
        goto fail;
 8001e76:	e072      	b.n	8001f5e <parse_array+0x172>
    }

    /* step back to character in front of the first element */
    input_buffer->offset--;
 8001e78:	683b      	ldr	r3, [r7, #0]
 8001e7a:	689b      	ldr	r3, [r3, #8]
 8001e7c:	1e5a      	subs	r2, r3, #1
 8001e7e:	683b      	ldr	r3, [r7, #0]
 8001e80:	609a      	str	r2, [r3, #8]
    /* loop through the comma separated array elements */
    do
    {
        /* allocate next item */
        cJSON *new_item = cJSON_New_Item(&(input_buffer->hooks));
 8001e82:	683b      	ldr	r3, [r7, #0]
 8001e84:	3310      	adds	r3, #16
 8001e86:	4618      	mov	r0, r3
 8001e88:	f7ff f9be 	bl	8001208 <cJSON_New_Item>
 8001e8c:	60f8      	str	r0, [r7, #12]
        if (new_item == NULL)
 8001e8e:	68fb      	ldr	r3, [r7, #12]
 8001e90:	2b00      	cmp	r3, #0
 8001e92:	d05f      	beq.n	8001f54 <parse_array+0x168>
        {
            goto fail; /* allocation failure */
        }

        /* attach next item to list */
        if (head == NULL)
 8001e94:	697b      	ldr	r3, [r7, #20]
 8001e96:	2b00      	cmp	r3, #0
 8001e98:	d104      	bne.n	8001ea4 <parse_array+0xb8>
        {
            /* start the linked list */
            current_item = head = new_item;
 8001e9a:	68fb      	ldr	r3, [r7, #12]
 8001e9c:	617b      	str	r3, [r7, #20]
 8001e9e:	697b      	ldr	r3, [r7, #20]
 8001ea0:	613b      	str	r3, [r7, #16]
 8001ea2:	e007      	b.n	8001eb4 <parse_array+0xc8>
        }
        else
        {
            /* add to the end and advance */
            current_item->next = new_item;
 8001ea4:	693b      	ldr	r3, [r7, #16]
 8001ea6:	68fa      	ldr	r2, [r7, #12]
 8001ea8:	601a      	str	r2, [r3, #0]
            new_item->prev = current_item;
 8001eaa:	68fb      	ldr	r3, [r7, #12]
 8001eac:	693a      	ldr	r2, [r7, #16]
 8001eae:	605a      	str	r2, [r3, #4]
            current_item = new_item;
 8001eb0:	68fb      	ldr	r3, [r7, #12]
 8001eb2:	613b      	str	r3, [r7, #16]
        }

        /* parse next value */
        input_buffer->offset++;
 8001eb4:	683b      	ldr	r3, [r7, #0]
 8001eb6:	689b      	ldr	r3, [r3, #8]
 8001eb8:	1c5a      	adds	r2, r3, #1
 8001eba:	683b      	ldr	r3, [r7, #0]
 8001ebc:	609a      	str	r2, [r3, #8]
        buffer_skip_whitespace(input_buffer);
 8001ebe:	6838      	ldr	r0, [r7, #0]
 8001ec0:	f7ff fd70 	bl	80019a4 <buffer_skip_whitespace>
        if (!parse_value(current_item, input_buffer))
 8001ec4:	6839      	ldr	r1, [r7, #0]
 8001ec6:	6938      	ldr	r0, [r7, #16]
 8001ec8:	f7ff fea4 	bl	8001c14 <parse_value>
 8001ecc:	4603      	mov	r3, r0
 8001ece:	2b00      	cmp	r3, #0
 8001ed0:	d042      	beq.n	8001f58 <parse_array+0x16c>
        {
            goto fail; /* failed to parse value */
        }
        buffer_skip_whitespace(input_buffer);
 8001ed2:	6838      	ldr	r0, [r7, #0]
 8001ed4:	f7ff fd66 	bl	80019a4 <buffer_skip_whitespace>
    }
    while (can_access_at_index(input_buffer, 0) && (buffer_at_offset(input_buffer)[0] == ','));
 8001ed8:	683b      	ldr	r3, [r7, #0]
 8001eda:	2b00      	cmp	r3, #0
 8001edc:	d00d      	beq.n	8001efa <parse_array+0x10e>
 8001ede:	683b      	ldr	r3, [r7, #0]
 8001ee0:	689a      	ldr	r2, [r3, #8]
 8001ee2:	683b      	ldr	r3, [r7, #0]
 8001ee4:	685b      	ldr	r3, [r3, #4]
 8001ee6:	429a      	cmp	r2, r3
 8001ee8:	d207      	bcs.n	8001efa <parse_array+0x10e>
 8001eea:	683b      	ldr	r3, [r7, #0]
 8001eec:	681a      	ldr	r2, [r3, #0]
 8001eee:	683b      	ldr	r3, [r7, #0]
 8001ef0:	689b      	ldr	r3, [r3, #8]
 8001ef2:	4413      	add	r3, r2
 8001ef4:	781b      	ldrb	r3, [r3, #0]
 8001ef6:	2b2c      	cmp	r3, #44	@ 0x2c
 8001ef8:	d0c3      	beq.n	8001e82 <parse_array+0x96>

    if (cannot_access_at_index(input_buffer, 0) || buffer_at_offset(input_buffer)[0] != ']')
 8001efa:	683b      	ldr	r3, [r7, #0]
 8001efc:	2b00      	cmp	r3, #0
 8001efe:	d02d      	beq.n	8001f5c <parse_array+0x170>
 8001f00:	683b      	ldr	r3, [r7, #0]
 8001f02:	689a      	ldr	r2, [r3, #8]
 8001f04:	683b      	ldr	r3, [r7, #0]
 8001f06:	685b      	ldr	r3, [r3, #4]
 8001f08:	429a      	cmp	r2, r3
 8001f0a:	d227      	bcs.n	8001f5c <parse_array+0x170>
 8001f0c:	683b      	ldr	r3, [r7, #0]
 8001f0e:	681a      	ldr	r2, [r3, #0]
 8001f10:	683b      	ldr	r3, [r7, #0]
 8001f12:	689b      	ldr	r3, [r3, #8]
 8001f14:	4413      	add	r3, r2
 8001f16:	781b      	ldrb	r3, [r3, #0]
 8001f18:	2b5d      	cmp	r3, #93	@ 0x5d
 8001f1a:	d11f      	bne.n	8001f5c <parse_array+0x170>
    {
        goto fail; /* expected end of array */
    }

success:
 8001f1c:	e000      	b.n	8001f20 <parse_array+0x134>
        goto success;
 8001f1e:	bf00      	nop
    input_buffer->depth--;
 8001f20:	683b      	ldr	r3, [r7, #0]
 8001f22:	68db      	ldr	r3, [r3, #12]
 8001f24:	1e5a      	subs	r2, r3, #1
 8001f26:	683b      	ldr	r3, [r7, #0]
 8001f28:	60da      	str	r2, [r3, #12]

    if (head != NULL) {
 8001f2a:	697b      	ldr	r3, [r7, #20]
 8001f2c:	2b00      	cmp	r3, #0
 8001f2e:	d002      	beq.n	8001f36 <parse_array+0x14a>
        head->prev = current_item;
 8001f30:	697b      	ldr	r3, [r7, #20]
 8001f32:	693a      	ldr	r2, [r7, #16]
 8001f34:	605a      	str	r2, [r3, #4]
    }

    item->type = cJSON_Array;
 8001f36:	687b      	ldr	r3, [r7, #4]
 8001f38:	2220      	movs	r2, #32
 8001f3a:	60da      	str	r2, [r3, #12]
    item->child = head;
 8001f3c:	687b      	ldr	r3, [r7, #4]
 8001f3e:	697a      	ldr	r2, [r7, #20]
 8001f40:	609a      	str	r2, [r3, #8]

    input_buffer->offset++;
 8001f42:	683b      	ldr	r3, [r7, #0]
 8001f44:	689b      	ldr	r3, [r3, #8]
 8001f46:	1c5a      	adds	r2, r3, #1
 8001f48:	683b      	ldr	r3, [r7, #0]
 8001f4a:	609a      	str	r2, [r3, #8]

    return true;
 8001f4c:	2301      	movs	r3, #1
 8001f4e:	e00d      	b.n	8001f6c <parse_array+0x180>
        goto fail;
 8001f50:	bf00      	nop
 8001f52:	e004      	b.n	8001f5e <parse_array+0x172>
            goto fail; /* allocation failure */
 8001f54:	bf00      	nop
 8001f56:	e002      	b.n	8001f5e <parse_array+0x172>
            goto fail; /* failed to parse value */
 8001f58:	bf00      	nop
 8001f5a:	e000      	b.n	8001f5e <parse_array+0x172>
        goto fail; /* expected end of array */
 8001f5c:	bf00      	nop

fail:
    if (head != NULL)
 8001f5e:	697b      	ldr	r3, [r7, #20]
 8001f60:	2b00      	cmp	r3, #0
 8001f62:	d002      	beq.n	8001f6a <parse_array+0x17e>
    {
        cJSON_Delete(head);
 8001f64:	6978      	ldr	r0, [r7, #20]
 8001f66:	f7ff f965 	bl	8001234 <cJSON_Delete>
    }

    return false;
 8001f6a:	2300      	movs	r3, #0
}
 8001f6c:	4618      	mov	r0, r3
 8001f6e:	3718      	adds	r7, #24
 8001f70:	46bd      	mov	sp, r7
 8001f72:	bd80      	pop	{r7, pc}

08001f74 <parse_object>:
    return true;
}

/* Build an object from the text. */
static cJSON_bool parse_object(cJSON * const item, parse_buffer * const input_buffer)
{
 8001f74:	b580      	push	{r7, lr}
 8001f76:	b086      	sub	sp, #24
 8001f78:	af00      	add	r7, sp, #0
 8001f7a:	6078      	str	r0, [r7, #4]
 8001f7c:	6039      	str	r1, [r7, #0]
    cJSON *head = NULL; /* linked list head */
 8001f7e:	2300      	movs	r3, #0
 8001f80:	617b      	str	r3, [r7, #20]
    cJSON *current_item = NULL;
 8001f82:	2300      	movs	r3, #0
 8001f84:	613b      	str	r3, [r7, #16]

    if (input_buffer->depth >= CJSON_NESTING_LIMIT)
 8001f86:	683b      	ldr	r3, [r7, #0]
 8001f88:	68db      	ldr	r3, [r3, #12]
 8001f8a:	f5b3 7f7a 	cmp.w	r3, #1000	@ 0x3e8
 8001f8e:	d301      	bcc.n	8001f94 <parse_object+0x20>
    {
        return false; /* to deeply nested */
 8001f90:	2300      	movs	r3, #0
 8001f92:	e0f7      	b.n	8002184 <parse_object+0x210>
    }
    input_buffer->depth++;
 8001f94:	683b      	ldr	r3, [r7, #0]
 8001f96:	68db      	ldr	r3, [r3, #12]
 8001f98:	1c5a      	adds	r2, r3, #1
 8001f9a:	683b      	ldr	r3, [r7, #0]
 8001f9c:	60da      	str	r2, [r3, #12]

    if (cannot_access_at_index(input_buffer, 0) || (buffer_at_offset(input_buffer)[0] != '{'))
 8001f9e:	683b      	ldr	r3, [r7, #0]
 8001fa0:	2b00      	cmp	r3, #0
 8001fa2:	f000 80db 	beq.w	800215c <parse_object+0x1e8>
 8001fa6:	683b      	ldr	r3, [r7, #0]
 8001fa8:	689a      	ldr	r2, [r3, #8]
 8001faa:	683b      	ldr	r3, [r7, #0]
 8001fac:	685b      	ldr	r3, [r3, #4]
 8001fae:	429a      	cmp	r2, r3
 8001fb0:	f080 80d4 	bcs.w	800215c <parse_object+0x1e8>
 8001fb4:	683b      	ldr	r3, [r7, #0]
 8001fb6:	681a      	ldr	r2, [r3, #0]
 8001fb8:	683b      	ldr	r3, [r7, #0]
 8001fba:	689b      	ldr	r3, [r3, #8]
 8001fbc:	4413      	add	r3, r2
 8001fbe:	781b      	ldrb	r3, [r3, #0]
 8001fc0:	2b7b      	cmp	r3, #123	@ 0x7b
 8001fc2:	f040 80cb 	bne.w	800215c <parse_object+0x1e8>
    {
        goto fail; /* not an object */
    }

    input_buffer->offset++;
 8001fc6:	683b      	ldr	r3, [r7, #0]
 8001fc8:	689b      	ldr	r3, [r3, #8]
 8001fca:	1c5a      	adds	r2, r3, #1
 8001fcc:	683b      	ldr	r3, [r7, #0]
 8001fce:	609a      	str	r2, [r3, #8]
    buffer_skip_whitespace(input_buffer);
 8001fd0:	6838      	ldr	r0, [r7, #0]
 8001fd2:	f7ff fce7 	bl	80019a4 <buffer_skip_whitespace>
    if (can_access_at_index(input_buffer, 0) && (buffer_at_offset(input_buffer)[0] == '}'))
 8001fd6:	683b      	ldr	r3, [r7, #0]
 8001fd8:	2b00      	cmp	r3, #0
 8001fda:	d00e      	beq.n	8001ffa <parse_object+0x86>
 8001fdc:	683b      	ldr	r3, [r7, #0]
 8001fde:	689a      	ldr	r2, [r3, #8]
 8001fe0:	683b      	ldr	r3, [r7, #0]
 8001fe2:	685b      	ldr	r3, [r3, #4]
 8001fe4:	429a      	cmp	r2, r3
 8001fe6:	d208      	bcs.n	8001ffa <parse_object+0x86>
 8001fe8:	683b      	ldr	r3, [r7, #0]
 8001fea:	681a      	ldr	r2, [r3, #0]
 8001fec:	683b      	ldr	r3, [r7, #0]
 8001fee:	689b      	ldr	r3, [r3, #8]
 8001ff0:	4413      	add	r3, r2
 8001ff2:	781b      	ldrb	r3, [r3, #0]
 8001ff4:	2b7d      	cmp	r3, #125	@ 0x7d
 8001ff6:	f000 8098 	beq.w	800212a <parse_object+0x1b6>
    {
        goto success; /* empty object */
    }

    /* check if we skipped to the end of the buffer */
    if (cannot_access_at_index(input_buffer, 0))
 8001ffa:	683b      	ldr	r3, [r7, #0]
 8001ffc:	2b00      	cmp	r3, #0
 8001ffe:	d005      	beq.n	800200c <parse_object+0x98>
 8002000:	683b      	ldr	r3, [r7, #0]
 8002002:	689a      	ldr	r2, [r3, #8]
 8002004:	683b      	ldr	r3, [r7, #0]
 8002006:	685b      	ldr	r3, [r3, #4]
 8002008:	429a      	cmp	r2, r3
 800200a:	d305      	bcc.n	8002018 <parse_object+0xa4>
    {
        input_buffer->offset--;
 800200c:	683b      	ldr	r3, [r7, #0]
 800200e:	689b      	ldr	r3, [r3, #8]
 8002010:	1e5a      	subs	r2, r3, #1
 8002012:	683b      	ldr	r3, [r7, #0]
 8002014:	609a      	str	r2, [r3, #8]
        goto fail;
 8002016:	e0ae      	b.n	8002176 <parse_object+0x202>
    }

    /* step back to character in front of the first element */
    input_buffer->offset--;
 8002018:	683b      	ldr	r3, [r7, #0]
 800201a:	689b      	ldr	r3, [r3, #8]
 800201c:	1e5a      	subs	r2, r3, #1
 800201e:	683b      	ldr	r3, [r7, #0]
 8002020:	609a      	str	r2, [r3, #8]
    /* loop through the comma separated array elements */
    do
    {
        /* allocate next item */
        cJSON *new_item = cJSON_New_Item(&(input_buffer->hooks));
 8002022:	683b      	ldr	r3, [r7, #0]
 8002024:	3310      	adds	r3, #16
 8002026:	4618      	mov	r0, r3
 8002028:	f7ff f8ee 	bl	8001208 <cJSON_New_Item>
 800202c:	60f8      	str	r0, [r7, #12]
        if (new_item == NULL)
 800202e:	68fb      	ldr	r3, [r7, #12]
 8002030:	2b00      	cmp	r3, #0
 8002032:	f000 8095 	beq.w	8002160 <parse_object+0x1ec>
        {
            goto fail; /* allocation failure */
        }

        /* attach next item to list */
        if (head == NULL)
 8002036:	697b      	ldr	r3, [r7, #20]
 8002038:	2b00      	cmp	r3, #0
 800203a:	d104      	bne.n	8002046 <parse_object+0xd2>
        {
            /* start the linked list */
            current_item = head = new_item;
 800203c:	68fb      	ldr	r3, [r7, #12]
 800203e:	617b      	str	r3, [r7, #20]
 8002040:	697b      	ldr	r3, [r7, #20]
 8002042:	613b      	str	r3, [r7, #16]
 8002044:	e007      	b.n	8002056 <parse_object+0xe2>
        }
        else
        {
            /* add to the end and advance */
            current_item->next = new_item;
 8002046:	693b      	ldr	r3, [r7, #16]
 8002048:	68fa      	ldr	r2, [r7, #12]
 800204a:	601a      	str	r2, [r3, #0]
            new_item->prev = current_item;
 800204c:	68fb      	ldr	r3, [r7, #12]
 800204e:	693a      	ldr	r2, [r7, #16]
 8002050:	605a      	str	r2, [r3, #4]
            current_item = new_item;
 8002052:	68fb      	ldr	r3, [r7, #12]
 8002054:	613b      	str	r3, [r7, #16]
        }

        if (cannot_access_at_index(input_buffer, 1))
 8002056:	683b      	ldr	r3, [r7, #0]
 8002058:	2b00      	cmp	r3, #0
 800205a:	f000 8083 	beq.w	8002164 <parse_object+0x1f0>
 800205e:	683b      	ldr	r3, [r7, #0]
 8002060:	689b      	ldr	r3, [r3, #8]
 8002062:	1c5a      	adds	r2, r3, #1
 8002064:	683b      	ldr	r3, [r7, #0]
 8002066:	685b      	ldr	r3, [r3, #4]
 8002068:	429a      	cmp	r2, r3
 800206a:	d27b      	bcs.n	8002164 <parse_object+0x1f0>
        {
            goto fail; /* nothing comes after the comma */
        }

        /* parse the name of the child */
        input_buffer->offset++;
 800206c:	683b      	ldr	r3, [r7, #0]
 800206e:	689b      	ldr	r3, [r3, #8]
 8002070:	1c5a      	adds	r2, r3, #1
 8002072:	683b      	ldr	r3, [r7, #0]
 8002074:	609a      	str	r2, [r3, #8]
        buffer_skip_whitespace(input_buffer);
 8002076:	6838      	ldr	r0, [r7, #0]
 8002078:	f7ff fc94 	bl	80019a4 <buffer_skip_whitespace>
        if (!parse_string(current_item, input_buffer))
 800207c:	6839      	ldr	r1, [r7, #0]
 800207e:	6938      	ldr	r0, [r7, #16]
 8002080:	f7ff fb48 	bl	8001714 <parse_string>
 8002084:	4603      	mov	r3, r0
 8002086:	2b00      	cmp	r3, #0
 8002088:	d06e      	beq.n	8002168 <parse_object+0x1f4>
        {
            goto fail; /* failed to parse name */
        }
        buffer_skip_whitespace(input_buffer);
 800208a:	6838      	ldr	r0, [r7, #0]
 800208c:	f7ff fc8a 	bl	80019a4 <buffer_skip_whitespace>

        /* swap valuestring and string, because we parsed the name */
        current_item->string = current_item->valuestring;
 8002090:	693b      	ldr	r3, [r7, #16]
 8002092:	691a      	ldr	r2, [r3, #16]
 8002094:	693b      	ldr	r3, [r7, #16]
 8002096:	621a      	str	r2, [r3, #32]
        current_item->valuestring = NULL;
 8002098:	693b      	ldr	r3, [r7, #16]
 800209a:	2200      	movs	r2, #0
 800209c:	611a      	str	r2, [r3, #16]

        if (cannot_access_at_index(input_buffer, 0) || (buffer_at_offset(input_buffer)[0] != ':'))
 800209e:	683b      	ldr	r3, [r7, #0]
 80020a0:	2b00      	cmp	r3, #0
 80020a2:	d063      	beq.n	800216c <parse_object+0x1f8>
 80020a4:	683b      	ldr	r3, [r7, #0]
 80020a6:	689a      	ldr	r2, [r3, #8]
 80020a8:	683b      	ldr	r3, [r7, #0]
 80020aa:	685b      	ldr	r3, [r3, #4]
 80020ac:	429a      	cmp	r2, r3
 80020ae:	d25d      	bcs.n	800216c <parse_object+0x1f8>
 80020b0:	683b      	ldr	r3, [r7, #0]
 80020b2:	681a      	ldr	r2, [r3, #0]
 80020b4:	683b      	ldr	r3, [r7, #0]
 80020b6:	689b      	ldr	r3, [r3, #8]
 80020b8:	4413      	add	r3, r2
 80020ba:	781b      	ldrb	r3, [r3, #0]
 80020bc:	2b3a      	cmp	r3, #58	@ 0x3a
 80020be:	d155      	bne.n	800216c <parse_object+0x1f8>
        {
            goto fail; /* invalid object */
        }

        /* parse the value */
        input_buffer->offset++;
 80020c0:	683b      	ldr	r3, [r7, #0]
 80020c2:	689b      	ldr	r3, [r3, #8]
 80020c4:	1c5a      	adds	r2, r3, #1
 80020c6:	683b      	ldr	r3, [r7, #0]
 80020c8:	609a      	str	r2, [r3, #8]
        buffer_skip_whitespace(input_buffer);
 80020ca:	6838      	ldr	r0, [r7, #0]
 80020cc:	f7ff fc6a 	bl	80019a4 <buffer_skip_whitespace>
        if (!parse_value(current_item, input_buffer))
 80020d0:	6839      	ldr	r1, [r7, #0]
 80020d2:	6938      	ldr	r0, [r7, #16]
 80020d4:	f7ff fd9e 	bl	8001c14 <parse_value>
 80020d8:	4603      	mov	r3, r0
 80020da:	2b00      	cmp	r3, #0
 80020dc:	d048      	beq.n	8002170 <parse_object+0x1fc>
        {
            goto fail; /* failed to parse value */
        }
        buffer_skip_whitespace(input_buffer);
 80020de:	6838      	ldr	r0, [r7, #0]
 80020e0:	f7ff fc60 	bl	80019a4 <buffer_skip_whitespace>
    }
    while (can_access_at_index(input_buffer, 0) && (buffer_at_offset(input_buffer)[0] == ','));
 80020e4:	683b      	ldr	r3, [r7, #0]
 80020e6:	2b00      	cmp	r3, #0
 80020e8:	d00d      	beq.n	8002106 <parse_object+0x192>
 80020ea:	683b      	ldr	r3, [r7, #0]
 80020ec:	689a      	ldr	r2, [r3, #8]
 80020ee:	683b      	ldr	r3, [r7, #0]
 80020f0:	685b      	ldr	r3, [r3, #4]
 80020f2:	429a      	cmp	r2, r3
 80020f4:	d207      	bcs.n	8002106 <parse_object+0x192>
 80020f6:	683b      	ldr	r3, [r7, #0]
 80020f8:	681a      	ldr	r2, [r3, #0]
 80020fa:	683b      	ldr	r3, [r7, #0]
 80020fc:	689b      	ldr	r3, [r3, #8]
 80020fe:	4413      	add	r3, r2
 8002100:	781b      	ldrb	r3, [r3, #0]
 8002102:	2b2c      	cmp	r3, #44	@ 0x2c
 8002104:	d08d      	beq.n	8002022 <parse_object+0xae>

    if (cannot_access_at_index(input_buffer, 0) || (buffer_at_offset(input_buffer)[0] != '}'))
 8002106:	683b      	ldr	r3, [r7, #0]
 8002108:	2b00      	cmp	r3, #0
 800210a:	d033      	beq.n	8002174 <parse_object+0x200>
 800210c:	683b      	ldr	r3, [r7, #0]
 800210e:	689a      	ldr	r2, [r3, #8]
 8002110:	683b      	ldr	r3, [r7, #0]
 8002112:	685b      	ldr	r3, [r3, #4]
 8002114:	429a      	cmp	r2, r3
 8002116:	d22d      	bcs.n	8002174 <parse_object+0x200>
 8002118:	683b      	ldr	r3, [r7, #0]
 800211a:	681a      	ldr	r2, [r3, #0]
 800211c:	683b      	ldr	r3, [r7, #0]
 800211e:	689b      	ldr	r3, [r3, #8]
 8002120:	4413      	add	r3, r2
 8002122:	781b      	ldrb	r3, [r3, #0]
 8002124:	2b7d      	cmp	r3, #125	@ 0x7d
 8002126:	d125      	bne.n	8002174 <parse_object+0x200>
    {
        goto fail; /* expected end of object */
    }

success:
 8002128:	e000      	b.n	800212c <parse_object+0x1b8>
        goto success; /* empty object */
 800212a:	bf00      	nop
    input_buffer->depth--;
 800212c:	683b      	ldr	r3, [r7, #0]
 800212e:	68db      	ldr	r3, [r3, #12]
 8002130:	1e5a      	subs	r2, r3, #1
 8002132:	683b      	ldr	r3, [r7, #0]
 8002134:	60da      	str	r2, [r3, #12]

    if (head != NULL) {
 8002136:	697b      	ldr	r3, [r7, #20]
 8002138:	2b00      	cmp	r3, #0
 800213a:	d002      	beq.n	8002142 <parse_object+0x1ce>
        head->prev = current_item;
 800213c:	697b      	ldr	r3, [r7, #20]
 800213e:	693a      	ldr	r2, [r7, #16]
 8002140:	605a      	str	r2, [r3, #4]
    }

    item->type = cJSON_Object;
 8002142:	687b      	ldr	r3, [r7, #4]
 8002144:	2240      	movs	r2, #64	@ 0x40
 8002146:	60da      	str	r2, [r3, #12]
    item->child = head;
 8002148:	687b      	ldr	r3, [r7, #4]
 800214a:	697a      	ldr	r2, [r7, #20]
 800214c:	609a      	str	r2, [r3, #8]

    input_buffer->offset++;
 800214e:	683b      	ldr	r3, [r7, #0]
 8002150:	689b      	ldr	r3, [r3, #8]
 8002152:	1c5a      	adds	r2, r3, #1
 8002154:	683b      	ldr	r3, [r7, #0]
 8002156:	609a      	str	r2, [r3, #8]
    return true;
 8002158:	2301      	movs	r3, #1
 800215a:	e013      	b.n	8002184 <parse_object+0x210>
        goto fail; /* not an object */
 800215c:	bf00      	nop
 800215e:	e00a      	b.n	8002176 <parse_object+0x202>
            goto fail; /* allocation failure */
 8002160:	bf00      	nop
 8002162:	e008      	b.n	8002176 <parse_object+0x202>
            goto fail; /* nothing comes after the comma */
 8002164:	bf00      	nop
 8002166:	e006      	b.n	8002176 <parse_object+0x202>
            goto fail; /* failed to parse name */
 8002168:	bf00      	nop
 800216a:	e004      	b.n	8002176 <parse_object+0x202>
            goto fail; /* invalid object */
 800216c:	bf00      	nop
 800216e:	e002      	b.n	8002176 <parse_object+0x202>
            goto fail; /* failed to parse value */
 8002170:	bf00      	nop
 8002172:	e000      	b.n	8002176 <parse_object+0x202>
        goto fail; /* expected end of object */
 8002174:	bf00      	nop

fail:
    if (head != NULL)
 8002176:	697b      	ldr	r3, [r7, #20]
 8002178:	2b00      	cmp	r3, #0
 800217a:	d002      	beq.n	8002182 <parse_object+0x20e>
    {
        cJSON_Delete(head);
 800217c:	6978      	ldr	r0, [r7, #20]
 800217e:	f7ff f859 	bl	8001234 <cJSON_Delete>
    }

    return false;
 8002182:	2300      	movs	r3, #0
}
 8002184:	4618      	mov	r0, r3
 8002186:	3718      	adds	r7, #24
 8002188:	46bd      	mov	sp, r7
 800218a:	bd80      	pop	{r7, pc}

0800218c <get_array_item>:

    return (int)size;
}

static cJSON* get_array_item(const cJSON *array, size_t index)
{
 800218c:	b480      	push	{r7}
 800218e:	b085      	sub	sp, #20
 8002190:	af00      	add	r7, sp, #0
 8002192:	6078      	str	r0, [r7, #4]
 8002194:	6039      	str	r1, [r7, #0]
    cJSON *current_child = NULL;
 8002196:	2300      	movs	r3, #0
 8002198:	60fb      	str	r3, [r7, #12]

    if (array == NULL)
 800219a:	687b      	ldr	r3, [r7, #4]
 800219c:	2b00      	cmp	r3, #0
 800219e:	d101      	bne.n	80021a4 <get_array_item+0x18>
    {
        return NULL;
 80021a0:	2300      	movs	r3, #0
 80021a2:	e010      	b.n	80021c6 <get_array_item+0x3a>
    }

    current_child = array->child;
 80021a4:	687b      	ldr	r3, [r7, #4]
 80021a6:	689b      	ldr	r3, [r3, #8]
 80021a8:	60fb      	str	r3, [r7, #12]
    while ((current_child != NULL) && (index > 0))
 80021aa:	e005      	b.n	80021b8 <get_array_item+0x2c>
    {
        index--;
 80021ac:	683b      	ldr	r3, [r7, #0]
 80021ae:	3b01      	subs	r3, #1
 80021b0:	603b      	str	r3, [r7, #0]
        current_child = current_child->next;
 80021b2:	68fb      	ldr	r3, [r7, #12]
 80021b4:	681b      	ldr	r3, [r3, #0]
 80021b6:	60fb      	str	r3, [r7, #12]
    while ((current_child != NULL) && (index > 0))
 80021b8:	68fb      	ldr	r3, [r7, #12]
 80021ba:	2b00      	cmp	r3, #0
 80021bc:	d002      	beq.n	80021c4 <get_array_item+0x38>
 80021be:	683b      	ldr	r3, [r7, #0]
 80021c0:	2b00      	cmp	r3, #0
 80021c2:	d1f3      	bne.n	80021ac <get_array_item+0x20>
    }

    return current_child;
 80021c4:	68fb      	ldr	r3, [r7, #12]
}
 80021c6:	4618      	mov	r0, r3
 80021c8:	3714      	adds	r7, #20
 80021ca:	46bd      	mov	sp, r7
 80021cc:	f85d 7b04 	ldr.w	r7, [sp], #4
 80021d0:	4770      	bx	lr

080021d2 <cJSON_GetArrayItem>:

CJSON_PUBLIC(cJSON *) cJSON_GetArrayItem(const cJSON *array, int index)
{
 80021d2:	b580      	push	{r7, lr}
 80021d4:	b082      	sub	sp, #8
 80021d6:	af00      	add	r7, sp, #0
 80021d8:	6078      	str	r0, [r7, #4]
 80021da:	6039      	str	r1, [r7, #0]
    if (index < 0)
 80021dc:	683b      	ldr	r3, [r7, #0]
 80021de:	2b00      	cmp	r3, #0
 80021e0:	da01      	bge.n	80021e6 <cJSON_GetArrayItem+0x14>
    {
        return NULL;
 80021e2:	2300      	movs	r3, #0
 80021e4:	e005      	b.n	80021f2 <cJSON_GetArrayItem+0x20>
    }

    return get_array_item(array, (size_t)index);
 80021e6:	683b      	ldr	r3, [r7, #0]
 80021e8:	4619      	mov	r1, r3
 80021ea:	6878      	ldr	r0, [r7, #4]
 80021ec:	f7ff ffce 	bl	800218c <get_array_item>
 80021f0:	4603      	mov	r3, r0
}
 80021f2:	4618      	mov	r0, r3
 80021f4:	3708      	adds	r7, #8
 80021f6:	46bd      	mov	sp, r7
 80021f8:	bd80      	pop	{r7, pc}

080021fa <get_object_item>:

static cJSON *get_object_item(const cJSON * const object, const char * const name, const cJSON_bool case_sensitive)
{
 80021fa:	b580      	push	{r7, lr}
 80021fc:	b086      	sub	sp, #24
 80021fe:	af00      	add	r7, sp, #0
 8002200:	60f8      	str	r0, [r7, #12]
 8002202:	60b9      	str	r1, [r7, #8]
 8002204:	607a      	str	r2, [r7, #4]
    cJSON *current_element = NULL;
 8002206:	2300      	movs	r3, #0
 8002208:	617b      	str	r3, [r7, #20]

    if ((object == NULL) || (name == NULL))
 800220a:	68fb      	ldr	r3, [r7, #12]
 800220c:	2b00      	cmp	r3, #0
 800220e:	d002      	beq.n	8002216 <get_object_item+0x1c>
 8002210:	68bb      	ldr	r3, [r7, #8]
 8002212:	2b00      	cmp	r3, #0
 8002214:	d101      	bne.n	800221a <get_object_item+0x20>
    {
        return NULL;
 8002216:	2300      	movs	r3, #0
 8002218:	e033      	b.n	8002282 <get_object_item+0x88>
    }

    current_element = object->child;
 800221a:	68fb      	ldr	r3, [r7, #12]
 800221c:	689b      	ldr	r3, [r3, #8]
 800221e:	617b      	str	r3, [r7, #20]
    if (case_sensitive)
 8002220:	687b      	ldr	r3, [r7, #4]
 8002222:	2b00      	cmp	r3, #0
 8002224:	d017      	beq.n	8002256 <get_object_item+0x5c>
    {
        while ((current_element != NULL) && (current_element->string != NULL) && (strcmp(name, current_element->string) != 0))
 8002226:	e002      	b.n	800222e <get_object_item+0x34>
        {
            current_element = current_element->next;
 8002228:	697b      	ldr	r3, [r7, #20]
 800222a:	681b      	ldr	r3, [r3, #0]
 800222c:	617b      	str	r3, [r7, #20]
        while ((current_element != NULL) && (current_element->string != NULL) && (strcmp(name, current_element->string) != 0))
 800222e:	697b      	ldr	r3, [r7, #20]
 8002230:	2b00      	cmp	r3, #0
 8002232:	d01c      	beq.n	800226e <get_object_item+0x74>
 8002234:	697b      	ldr	r3, [r7, #20]
 8002236:	6a1b      	ldr	r3, [r3, #32]
 8002238:	2b00      	cmp	r3, #0
 800223a:	d018      	beq.n	800226e <get_object_item+0x74>
 800223c:	697b      	ldr	r3, [r7, #20]
 800223e:	6a1b      	ldr	r3, [r3, #32]
 8002240:	4619      	mov	r1, r3
 8002242:	68b8      	ldr	r0, [r7, #8]
 8002244:	f7fd ffc4 	bl	80001d0 <strcmp>
 8002248:	4603      	mov	r3, r0
 800224a:	2b00      	cmp	r3, #0
 800224c:	d1ec      	bne.n	8002228 <get_object_item+0x2e>
 800224e:	e00e      	b.n	800226e <get_object_item+0x74>
    }
    else
    {
        while ((current_element != NULL) && (case_insensitive_strcmp((const unsigned char*)name, (const unsigned char*)(current_element->string)) != 0))
        {
            current_element = current_element->next;
 8002250:	697b      	ldr	r3, [r7, #20]
 8002252:	681b      	ldr	r3, [r3, #0]
 8002254:	617b      	str	r3, [r7, #20]
        while ((current_element != NULL) && (case_insensitive_strcmp((const unsigned char*)name, (const unsigned char*)(current_element->string)) != 0))
 8002256:	697b      	ldr	r3, [r7, #20]
 8002258:	2b00      	cmp	r3, #0
 800225a:	d008      	beq.n	800226e <get_object_item+0x74>
 800225c:	697b      	ldr	r3, [r7, #20]
 800225e:	6a1b      	ldr	r3, [r3, #32]
 8002260:	4619      	mov	r1, r3
 8002262:	68b8      	ldr	r0, [r7, #8]
 8002264:	f7fe ff64 	bl	8001130 <case_insensitive_strcmp>
 8002268:	4603      	mov	r3, r0
 800226a:	2b00      	cmp	r3, #0
 800226c:	d1f0      	bne.n	8002250 <get_object_item+0x56>
        }
    }

    if ((current_element == NULL) || (current_element->string == NULL)) {
 800226e:	697b      	ldr	r3, [r7, #20]
 8002270:	2b00      	cmp	r3, #0
 8002272:	d003      	beq.n	800227c <get_object_item+0x82>
 8002274:	697b      	ldr	r3, [r7, #20]
 8002276:	6a1b      	ldr	r3, [r3, #32]
 8002278:	2b00      	cmp	r3, #0
 800227a:	d101      	bne.n	8002280 <get_object_item+0x86>
        return NULL;
 800227c:	2300      	movs	r3, #0
 800227e:	e000      	b.n	8002282 <get_object_item+0x88>
    }

    return current_element;
 8002280:	697b      	ldr	r3, [r7, #20]
}
 8002282:	4618      	mov	r0, r3
 8002284:	3718      	adds	r7, #24
 8002286:	46bd      	mov	sp, r7
 8002288:	bd80      	pop	{r7, pc}

0800228a <cJSON_GetObjectItem>:

CJSON_PUBLIC(cJSON *) cJSON_GetObjectItem(const cJSON * const object, const char * const string)
{
 800228a:	b580      	push	{r7, lr}
 800228c:	b082      	sub	sp, #8
 800228e:	af00      	add	r7, sp, #0
 8002290:	6078      	str	r0, [r7, #4]
 8002292:	6039      	str	r1, [r7, #0]
    return get_object_item(object, string, false);
 8002294:	2200      	movs	r2, #0
 8002296:	6839      	ldr	r1, [r7, #0]
 8002298:	6878      	ldr	r0, [r7, #4]
 800229a:	f7ff ffae 	bl	80021fa <get_object_item>
 800229e:	4603      	mov	r3, r0
}
 80022a0:	4618      	mov	r0, r3
 80022a2:	3708      	adds	r7, #8
 80022a4:	46bd      	mov	sp, r7
 80022a6:	bd80      	pop	{r7, pc}

080022a8 <cJSON_IsTrue>:

    return (item->type & 0xFF) == cJSON_False;
}

CJSON_PUBLIC(cJSON_bool) cJSON_IsTrue(const cJSON * const item)
{
 80022a8:	b480      	push	{r7}
 80022aa:	b083      	sub	sp, #12
 80022ac:	af00      	add	r7, sp, #0
 80022ae:	6078      	str	r0, [r7, #4]
    if (item == NULL)
 80022b0:	687b      	ldr	r3, [r7, #4]
 80022b2:	2b00      	cmp	r3, #0
 80022b4:	d101      	bne.n	80022ba <cJSON_IsTrue+0x12>
    {
        return false;
 80022b6:	2300      	movs	r3, #0
 80022b8:	e007      	b.n	80022ca <cJSON_IsTrue+0x22>
    }

    return (item->type & 0xff) == cJSON_True;
 80022ba:	687b      	ldr	r3, [r7, #4]
 80022bc:	68db      	ldr	r3, [r3, #12]
 80022be:	b2db      	uxtb	r3, r3
 80022c0:	2b02      	cmp	r3, #2
 80022c2:	bf0c      	ite	eq
 80022c4:	2301      	moveq	r3, #1
 80022c6:	2300      	movne	r3, #0
 80022c8:	b2db      	uxtb	r3, r3
}
 80022ca:	4618      	mov	r0, r3
 80022cc:	370c      	adds	r7, #12
 80022ce:	46bd      	mov	sp, r7
 80022d0:	f85d 7b04 	ldr.w	r7, [sp], #4
 80022d4:	4770      	bx	lr

080022d6 <cJSON_IsBool>:


CJSON_PUBLIC(cJSON_bool) cJSON_IsBool(const cJSON * const item)
{
 80022d6:	b480      	push	{r7}
 80022d8:	b083      	sub	sp, #12
 80022da:	af00      	add	r7, sp, #0
 80022dc:	6078      	str	r0, [r7, #4]
    if (item == NULL)
 80022de:	687b      	ldr	r3, [r7, #4]
 80022e0:	2b00      	cmp	r3, #0
 80022e2:	d101      	bne.n	80022e8 <cJSON_IsBool+0x12>
    {
        return false;
 80022e4:	2300      	movs	r3, #0
 80022e6:	e008      	b.n	80022fa <cJSON_IsBool+0x24>
    }

    return (item->type & (cJSON_True | cJSON_False)) != 0;
 80022e8:	687b      	ldr	r3, [r7, #4]
 80022ea:	68db      	ldr	r3, [r3, #12]
 80022ec:	f003 0303 	and.w	r3, r3, #3
 80022f0:	2b00      	cmp	r3, #0
 80022f2:	bf14      	ite	ne
 80022f4:	2301      	movne	r3, #1
 80022f6:	2300      	moveq	r3, #0
 80022f8:	b2db      	uxtb	r3, r3
}
 80022fa:	4618      	mov	r0, r3
 80022fc:	370c      	adds	r7, #12
 80022fe:	46bd      	mov	sp, r7
 8002300:	f85d 7b04 	ldr.w	r7, [sp], #4
 8002304:	4770      	bx	lr

08002306 <cJSON_IsString>:

    return (item->type & 0xFF) == cJSON_Number;
}

CJSON_PUBLIC(cJSON_bool) cJSON_IsString(const cJSON * const item)
{
 8002306:	b480      	push	{r7}
 8002308:	b083      	sub	sp, #12
 800230a:	af00      	add	r7, sp, #0
 800230c:	6078      	str	r0, [r7, #4]
    if (item == NULL)
 800230e:	687b      	ldr	r3, [r7, #4]
 8002310:	2b00      	cmp	r3, #0
 8002312:	d101      	bne.n	8002318 <cJSON_IsString+0x12>
    {
        return false;
 8002314:	2300      	movs	r3, #0
 8002316:	e007      	b.n	8002328 <cJSON_IsString+0x22>
    }

    return (item->type & 0xFF) == cJSON_String;
 8002318:	687b      	ldr	r3, [r7, #4]
 800231a:	68db      	ldr	r3, [r3, #12]
 800231c:	b2db      	uxtb	r3, r3
 800231e:	2b10      	cmp	r3, #16
 8002320:	bf0c      	ite	eq
 8002322:	2301      	moveq	r3, #1
 8002324:	2300      	movne	r3, #0
 8002326:	b2db      	uxtb	r3, r3
}
 8002328:	4618      	mov	r0, r3
 800232a:	370c      	adds	r7, #12
 800232c:	46bd      	mov	sp, r7
 800232e:	f85d 7b04 	ldr.w	r7, [sp], #4
 8002332:	4770      	bx	lr

08002334 <cJSON_IsArray>:

CJSON_PUBLIC(cJSON_bool) cJSON_IsArray(const cJSON * const item)
{
 8002334:	b480      	push	{r7}
 8002336:	b083      	sub	sp, #12
 8002338:	af00      	add	r7, sp, #0
 800233a:	6078      	str	r0, [r7, #4]
    if (item == NULL)
 800233c:	687b      	ldr	r3, [r7, #4]
 800233e:	2b00      	cmp	r3, #0
 8002340:	d101      	bne.n	8002346 <cJSON_IsArray+0x12>
    {
        return false;
 8002342:	2300      	movs	r3, #0
 8002344:	e007      	b.n	8002356 <cJSON_IsArray+0x22>
    }

    return (item->type & 0xFF) == cJSON_Array;
 8002346:	687b      	ldr	r3, [r7, #4]
 8002348:	68db      	ldr	r3, [r3, #12]
 800234a:	b2db      	uxtb	r3, r3
 800234c:	2b20      	cmp	r3, #32
 800234e:	bf0c      	ite	eq
 8002350:	2301      	moveq	r3, #1
 8002352:	2300      	movne	r3, #0
 8002354:	b2db      	uxtb	r3, r3
}
 8002356:	4618      	mov	r0, r3
 8002358:	370c      	adds	r7, #12
 800235a:	46bd      	mov	sp, r7
 800235c:	f85d 7b04 	ldr.w	r7, [sp], #4
 8002360:	4770      	bx	lr
	...

08002364 <lcdInit>:
                                bool colorOrder,
                                bool horizontalRefreshOrder);


void lcdInit(void)
{
 8002364:	b580      	push	{r7, lr}
 8002366:	b082      	sub	sp, #8
 8002368:	af02      	add	r7, sp, #8
  lcdPortraitConfig = lcdBuildMemoryAccessControlConfig(
 800236a:	2300      	movs	r3, #0
 800236c:	9301      	str	r3, [sp, #4]
 800236e:	2301      	movs	r3, #1
 8002370:	9300      	str	r3, [sp, #0]
 8002372:	2300      	movs	r3, #0
 8002374:	2200      	movs	r2, #0
 8002376:	2101      	movs	r1, #1
 8002378:	2000      	movs	r0, #0
 800237a:	f001 fccf 	bl	8003d1c <lcdBuildMemoryAccessControlConfig>
 800237e:	4603      	mov	r3, r0
 8002380:	461a      	mov	r2, r3
 8002382:	4bae      	ldr	r3, [pc, #696]	@ (800263c <lcdInit+0x2d8>)
 8002384:	701a      	strb	r2, [r3, #0]
                                                    MemoryAccessControlNormalOrder,		// rowColumnExchange
                                                    MemoryAccessControlNormalOrder,		// verticalRefreshOrder
                                                    MemoryAccessControlColorOrderBGR,	// colorOrder
                                                    MemoryAccessControlNormalOrder);	// horizontalRefreshOrder

  lcdLandscapeConfig = lcdBuildMemoryAccessControlConfig(
 8002386:	2300      	movs	r3, #0
 8002388:	9301      	str	r3, [sp, #4]
 800238a:	2301      	movs	r3, #1
 800238c:	9300      	str	r3, [sp, #0]
 800238e:	2300      	movs	r3, #0
 8002390:	2201      	movs	r2, #1
 8002392:	2100      	movs	r1, #0
 8002394:	2000      	movs	r0, #0
 8002396:	f001 fcc1 	bl	8003d1c <lcdBuildMemoryAccessControlConfig>
 800239a:	4603      	mov	r3, r0
 800239c:	461a      	mov	r2, r3
 800239e:	4ba8      	ldr	r3, [pc, #672]	@ (8002640 <lcdInit+0x2dc>)
 80023a0:	701a      	strb	r2, [r3, #0]
                                                    MemoryAccessControlReverseOrder,	// rowColumnExchange
                                                    MemoryAccessControlNormalOrder,		// verticalRefreshOrder
                                                    MemoryAccessControlColorOrderBGR,	// colorOrder
                                                    MemoryAccessControlNormalOrder);	// horizontalRefreshOrder

  lcdPortraitMirrorConfig = lcdBuildMemoryAccessControlConfig(
 80023a2:	2300      	movs	r3, #0
 80023a4:	9301      	str	r3, [sp, #4]
 80023a6:	2301      	movs	r3, #1
 80023a8:	9300      	str	r3, [sp, #0]
 80023aa:	2300      	movs	r3, #0
 80023ac:	2200      	movs	r2, #0
 80023ae:	2100      	movs	r1, #0
 80023b0:	2001      	movs	r0, #1
 80023b2:	f001 fcb3 	bl	8003d1c <lcdBuildMemoryAccessControlConfig>
 80023b6:	4603      	mov	r3, r0
 80023b8:	461a      	mov	r2, r3
 80023ba:	4ba2      	ldr	r3, [pc, #648]	@ (8002644 <lcdInit+0x2e0>)
 80023bc:	701a      	strb	r2, [r3, #0]
		                                            MemoryAccessControlNormalOrder,		// rowColumnExchange
		                                            MemoryAccessControlNormalOrder,		// verticalRefreshOrder
		                                            MemoryAccessControlColorOrderBGR,	// colorOrder
		                                            MemoryAccessControlNormalOrder);	// horizontalRefreshOrder

  lcdLandscapeMirrorConfig = lcdBuildMemoryAccessControlConfig(
 80023be:	2300      	movs	r3, #0
 80023c0:	9301      	str	r3, [sp, #4]
 80023c2:	2301      	movs	r3, #1
 80023c4:	9300      	str	r3, [sp, #0]
 80023c6:	2300      	movs	r3, #0
 80023c8:	2201      	movs	r2, #1
 80023ca:	2101      	movs	r1, #1
 80023cc:	2001      	movs	r0, #1
 80023ce:	f001 fca5 	bl	8003d1c <lcdBuildMemoryAccessControlConfig>
 80023d2:	4603      	mov	r3, r0
 80023d4:	461a      	mov	r2, r3
 80023d6:	4b9c      	ldr	r3, [pc, #624]	@ (8002648 <lcdInit+0x2e4>)
 80023d8:	701a      	strb	r2, [r3, #0]
                                                    MemoryAccessControlReverseOrder,	// rowColumnExchange
                                                    MemoryAccessControlNormalOrder,		// verticalRefreshOrder
                                                    MemoryAccessControlColorOrderBGR,	// colorOrder
                                                    MemoryAccessControlNormalOrder);	// horizontalRefreshOrder

  lcdReset();
 80023da:	f001 fc75 	bl	8003cc8 <lcdReset>

  lcdWriteCommand(ILI9341_DISPLAYOFF);
 80023de:	2028      	movs	r0, #40	@ 0x28
 80023e0:	f001 fc7c 	bl	8003cdc <lcdWriteCommand>

  lcdWriteCommand(0xCF);
 80023e4:	20cf      	movs	r0, #207	@ 0xcf
 80023e6:	f001 fc79 	bl	8003cdc <lcdWriteCommand>
  lcdWriteData(0x00);
 80023ea:	2000      	movs	r0, #0
 80023ec:	f001 fc86 	bl	8003cfc <lcdWriteData>
  lcdWriteData(0x83);
 80023f0:	2083      	movs	r0, #131	@ 0x83
 80023f2:	f001 fc83 	bl	8003cfc <lcdWriteData>
  lcdWriteData(0x30);
 80023f6:	2030      	movs	r0, #48	@ 0x30
 80023f8:	f001 fc80 	bl	8003cfc <lcdWriteData>

  lcdWriteCommand(0xED);
 80023fc:	20ed      	movs	r0, #237	@ 0xed
 80023fe:	f001 fc6d 	bl	8003cdc <lcdWriteCommand>
  lcdWriteData(0x64);
 8002402:	2064      	movs	r0, #100	@ 0x64
 8002404:	f001 fc7a 	bl	8003cfc <lcdWriteData>
  lcdWriteData(0x03);
 8002408:	2003      	movs	r0, #3
 800240a:	f001 fc77 	bl	8003cfc <lcdWriteData>
  lcdWriteData(0x12);
 800240e:	2012      	movs	r0, #18
 8002410:	f001 fc74 	bl	8003cfc <lcdWriteData>
  lcdWriteData(0x81);
 8002414:	2081      	movs	r0, #129	@ 0x81
 8002416:	f001 fc71 	bl	8003cfc <lcdWriteData>

  lcdWriteCommand(0xE8);
 800241a:	20e8      	movs	r0, #232	@ 0xe8
 800241c:	f001 fc5e 	bl	8003cdc <lcdWriteCommand>
  lcdWriteData(0x85);
 8002420:	2085      	movs	r0, #133	@ 0x85
 8002422:	f001 fc6b 	bl	8003cfc <lcdWriteData>
  lcdWriteData(0x01);
 8002426:	2001      	movs	r0, #1
 8002428:	f001 fc68 	bl	8003cfc <lcdWriteData>
  lcdWriteData(0x79);
 800242c:	2079      	movs	r0, #121	@ 0x79
 800242e:	f001 fc65 	bl	8003cfc <lcdWriteData>

  lcdWriteCommand(0xCB);
 8002432:	20cb      	movs	r0, #203	@ 0xcb
 8002434:	f001 fc52 	bl	8003cdc <lcdWriteCommand>
  lcdWriteData(0x39);
 8002438:	2039      	movs	r0, #57	@ 0x39
 800243a:	f001 fc5f 	bl	8003cfc <lcdWriteData>
  lcdWriteData(0x2C);
 800243e:	202c      	movs	r0, #44	@ 0x2c
 8002440:	f001 fc5c 	bl	8003cfc <lcdWriteData>
  lcdWriteData(0x00);
 8002444:	2000      	movs	r0, #0
 8002446:	f001 fc59 	bl	8003cfc <lcdWriteData>
  lcdWriteData(0x34);
 800244a:	2034      	movs	r0, #52	@ 0x34
 800244c:	f001 fc56 	bl	8003cfc <lcdWriteData>
  lcdWriteData(0x02);
 8002450:	2002      	movs	r0, #2
 8002452:	f001 fc53 	bl	8003cfc <lcdWriteData>

  lcdWriteCommand(0xF7);
 8002456:	20f7      	movs	r0, #247	@ 0xf7
 8002458:	f001 fc40 	bl	8003cdc <lcdWriteCommand>
  lcdWriteData(0x20);
 800245c:	2020      	movs	r0, #32
 800245e:	f001 fc4d 	bl	8003cfc <lcdWriteData>

  lcdWriteCommand(0xEA);
 8002462:	20ea      	movs	r0, #234	@ 0xea
 8002464:	f001 fc3a 	bl	8003cdc <lcdWriteCommand>
  lcdWriteData(0x00);
 8002468:	2000      	movs	r0, #0
 800246a:	f001 fc47 	bl	8003cfc <lcdWriteData>
  lcdWriteData(0x00);
 800246e:	2000      	movs	r0, #0
 8002470:	f001 fc44 	bl	8003cfc <lcdWriteData>

  lcdWriteCommand(ILI9341_POWERCONTROL1);
 8002474:	20c0      	movs	r0, #192	@ 0xc0
 8002476:	f001 fc31 	bl	8003cdc <lcdWriteCommand>
  lcdWriteData(0x26);
 800247a:	2026      	movs	r0, #38	@ 0x26
 800247c:	f001 fc3e 	bl	8003cfc <lcdWriteData>

  lcdWriteCommand(ILI9341_POWERCONTROL2);
 8002480:	20c1      	movs	r0, #193	@ 0xc1
 8002482:	f001 fc2b 	bl	8003cdc <lcdWriteCommand>
  lcdWriteData(0x11);
 8002486:	2011      	movs	r0, #17
 8002488:	f001 fc38 	bl	8003cfc <lcdWriteData>

  lcdWriteCommand(ILI9341_VCOMCONTROL1);
 800248c:	20c5      	movs	r0, #197	@ 0xc5
 800248e:	f001 fc25 	bl	8003cdc <lcdWriteCommand>
  lcdWriteData(0x35);
 8002492:	2035      	movs	r0, #53	@ 0x35
 8002494:	f001 fc32 	bl	8003cfc <lcdWriteData>
  lcdWriteData(0x3E);
 8002498:	203e      	movs	r0, #62	@ 0x3e
 800249a:	f001 fc2f 	bl	8003cfc <lcdWriteData>

  lcdWriteCommand(ILI9341_VCOMCONTROL2);
 800249e:	20c7      	movs	r0, #199	@ 0xc7
 80024a0:	f001 fc1c 	bl	8003cdc <lcdWriteCommand>
  lcdWriteData(0xBE);
 80024a4:	20be      	movs	r0, #190	@ 0xbe
 80024a6:	f001 fc29 	bl	8003cfc <lcdWriteData>

  lcdWriteCommand(ILI9341_MEMCONTROL);
 80024aa:	2036      	movs	r0, #54	@ 0x36
 80024ac:	f001 fc16 	bl	8003cdc <lcdWriteCommand>
  lcdWriteData(lcdPortraitConfig);
 80024b0:	4b62      	ldr	r3, [pc, #392]	@ (800263c <lcdInit+0x2d8>)
 80024b2:	781b      	ldrb	r3, [r3, #0]
 80024b4:	4618      	mov	r0, r3
 80024b6:	f001 fc21 	bl	8003cfc <lcdWriteData>

  lcdWriteCommand(ILI9341_PIXELFORMAT);
 80024ba:	203a      	movs	r0, #58	@ 0x3a
 80024bc:	f001 fc0e 	bl	8003cdc <lcdWriteCommand>
  lcdWriteData(0x55);
 80024c0:	2055      	movs	r0, #85	@ 0x55
 80024c2:	f001 fc1b 	bl	8003cfc <lcdWriteData>

  lcdWriteCommand(ILI9341_FRAMECONTROLNORMAL);
 80024c6:	20b1      	movs	r0, #177	@ 0xb1
 80024c8:	f001 fc08 	bl	8003cdc <lcdWriteCommand>
  lcdWriteData(0x00);
 80024cc:	2000      	movs	r0, #0
 80024ce:	f001 fc15 	bl	8003cfc <lcdWriteData>
  lcdWriteData(0x1B);
 80024d2:	201b      	movs	r0, #27
 80024d4:	f001 fc12 	bl	8003cfc <lcdWriteData>

  lcdWriteCommand(0xF2);
 80024d8:	20f2      	movs	r0, #242	@ 0xf2
 80024da:	f001 fbff 	bl	8003cdc <lcdWriteCommand>
  lcdWriteData(0x08);
 80024de:	2008      	movs	r0, #8
 80024e0:	f001 fc0c 	bl	8003cfc <lcdWriteData>

  lcdWriteCommand(ILI9341_GAMMASET);
 80024e4:	2026      	movs	r0, #38	@ 0x26
 80024e6:	f001 fbf9 	bl	8003cdc <lcdWriteCommand>
  lcdWriteData(0x01);
 80024ea:	2001      	movs	r0, #1
 80024ec:	f001 fc06 	bl	8003cfc <lcdWriteData>

  lcdWriteCommand(ILI9341_POSITIVEGAMMCORR);
 80024f0:	20e0      	movs	r0, #224	@ 0xe0
 80024f2:	f001 fbf3 	bl	8003cdc <lcdWriteCommand>
  lcdWriteData(0x1F);
 80024f6:	201f      	movs	r0, #31
 80024f8:	f001 fc00 	bl	8003cfc <lcdWriteData>
  lcdWriteData(0x1A);
 80024fc:	201a      	movs	r0, #26
 80024fe:	f001 fbfd 	bl	8003cfc <lcdWriteData>
  lcdWriteData(0x18);
 8002502:	2018      	movs	r0, #24
 8002504:	f001 fbfa 	bl	8003cfc <lcdWriteData>
  lcdWriteData(0x0A);
 8002508:	200a      	movs	r0, #10
 800250a:	f001 fbf7 	bl	8003cfc <lcdWriteData>
  lcdWriteData(0x0F);
 800250e:	200f      	movs	r0, #15
 8002510:	f001 fbf4 	bl	8003cfc <lcdWriteData>
  lcdWriteData(0x06);
 8002514:	2006      	movs	r0, #6
 8002516:	f001 fbf1 	bl	8003cfc <lcdWriteData>
  lcdWriteData(0x45);
 800251a:	2045      	movs	r0, #69	@ 0x45
 800251c:	f001 fbee 	bl	8003cfc <lcdWriteData>
  lcdWriteData(0x87);
 8002520:	2087      	movs	r0, #135	@ 0x87
 8002522:	f001 fbeb 	bl	8003cfc <lcdWriteData>
  lcdWriteData(0x32);
 8002526:	2032      	movs	r0, #50	@ 0x32
 8002528:	f001 fbe8 	bl	8003cfc <lcdWriteData>
  lcdWriteData(0x0A);
 800252c:	200a      	movs	r0, #10
 800252e:	f001 fbe5 	bl	8003cfc <lcdWriteData>
  lcdWriteData(0x07);
 8002532:	2007      	movs	r0, #7
 8002534:	f001 fbe2 	bl	8003cfc <lcdWriteData>
  lcdWriteData(0x02);
 8002538:	2002      	movs	r0, #2
 800253a:	f001 fbdf 	bl	8003cfc <lcdWriteData>
  lcdWriteData(0x07);
 800253e:	2007      	movs	r0, #7
 8002540:	f001 fbdc 	bl	8003cfc <lcdWriteData>
  lcdWriteData(0x05);
 8002544:	2005      	movs	r0, #5
 8002546:	f001 fbd9 	bl	8003cfc <lcdWriteData>
  lcdWriteData(0x00);
 800254a:	2000      	movs	r0, #0
 800254c:	f001 fbd6 	bl	8003cfc <lcdWriteData>

  lcdWriteCommand(ILI9341_NEGATIVEGAMMCORR);
 8002550:	20e1      	movs	r0, #225	@ 0xe1
 8002552:	f001 fbc3 	bl	8003cdc <lcdWriteCommand>
  lcdWriteData(0x00);
 8002556:	2000      	movs	r0, #0
 8002558:	f001 fbd0 	bl	8003cfc <lcdWriteData>
  lcdWriteData(0x25);
 800255c:	2025      	movs	r0, #37	@ 0x25
 800255e:	f001 fbcd 	bl	8003cfc <lcdWriteData>
  lcdWriteData(0x27);
 8002562:	2027      	movs	r0, #39	@ 0x27
 8002564:	f001 fbca 	bl	8003cfc <lcdWriteData>
  lcdWriteData(0x05);
 8002568:	2005      	movs	r0, #5
 800256a:	f001 fbc7 	bl	8003cfc <lcdWriteData>
  lcdWriteData(0x10);
 800256e:	2010      	movs	r0, #16
 8002570:	f001 fbc4 	bl	8003cfc <lcdWriteData>
  lcdWriteData(0x09);
 8002574:	2009      	movs	r0, #9
 8002576:	f001 fbc1 	bl	8003cfc <lcdWriteData>
  lcdWriteData(0x3A);
 800257a:	203a      	movs	r0, #58	@ 0x3a
 800257c:	f001 fbbe 	bl	8003cfc <lcdWriteData>
  lcdWriteData(0x78);
 8002580:	2078      	movs	r0, #120	@ 0x78
 8002582:	f001 fbbb 	bl	8003cfc <lcdWriteData>
  lcdWriteData(0x4D);
 8002586:	204d      	movs	r0, #77	@ 0x4d
 8002588:	f001 fbb8 	bl	8003cfc <lcdWriteData>
  lcdWriteData(0x05);
 800258c:	2005      	movs	r0, #5
 800258e:	f001 fbb5 	bl	8003cfc <lcdWriteData>
  lcdWriteData(0x18);
 8002592:	2018      	movs	r0, #24
 8002594:	f001 fbb2 	bl	8003cfc <lcdWriteData>
  lcdWriteData(0x0D);
 8002598:	200d      	movs	r0, #13
 800259a:	f001 fbaf 	bl	8003cfc <lcdWriteData>
  lcdWriteData(0x38);
 800259e:	2038      	movs	r0, #56	@ 0x38
 80025a0:	f001 fbac 	bl	8003cfc <lcdWriteData>
  lcdWriteData(0x3A);
 80025a4:	203a      	movs	r0, #58	@ 0x3a
 80025a6:	f001 fba9 	bl	8003cfc <lcdWriteData>
  lcdWriteData(0x1F);
 80025aa:	201f      	movs	r0, #31
 80025ac:	f001 fba6 	bl	8003cfc <lcdWriteData>

  lcdWriteCommand(ILI9341_COLADDRSET);
 80025b0:	202a      	movs	r0, #42	@ 0x2a
 80025b2:	f001 fb93 	bl	8003cdc <lcdWriteCommand>
  lcdWriteData(0x00);
 80025b6:	2000      	movs	r0, #0
 80025b8:	f001 fba0 	bl	8003cfc <lcdWriteData>
  lcdWriteData(0x00);
 80025bc:	2000      	movs	r0, #0
 80025be:	f001 fb9d 	bl	8003cfc <lcdWriteData>
  lcdWriteData(0x00);
 80025c2:	2000      	movs	r0, #0
 80025c4:	f001 fb9a 	bl	8003cfc <lcdWriteData>
  lcdWriteData(0xEF);
 80025c8:	20ef      	movs	r0, #239	@ 0xef
 80025ca:	f001 fb97 	bl	8003cfc <lcdWriteData>

  lcdWriteCommand(ILI9341_PAGEADDRSET);
 80025ce:	202b      	movs	r0, #43	@ 0x2b
 80025d0:	f001 fb84 	bl	8003cdc <lcdWriteCommand>
  lcdWriteData(0x00);
 80025d4:	2000      	movs	r0, #0
 80025d6:	f001 fb91 	bl	8003cfc <lcdWriteData>
  lcdWriteData(0x00);
 80025da:	2000      	movs	r0, #0
 80025dc:	f001 fb8e 	bl	8003cfc <lcdWriteData>
  lcdWriteData(0x01);
 80025e0:	2001      	movs	r0, #1
 80025e2:	f001 fb8b 	bl	8003cfc <lcdWriteData>
  lcdWriteData(0x3F);
 80025e6:	203f      	movs	r0, #63	@ 0x3f
 80025e8:	f001 fb88 	bl	8003cfc <lcdWriteData>

  lcdWriteCommand(ILI9341_ENTRYMODE);
 80025ec:	20b7      	movs	r0, #183	@ 0xb7
 80025ee:	f001 fb75 	bl	8003cdc <lcdWriteCommand>
  lcdWriteData(0x07);
 80025f2:	2007      	movs	r0, #7
 80025f4:	f001 fb82 	bl	8003cfc <lcdWriteData>

  lcdWriteCommand(ILI9341_DISPLAYFUNC);
 80025f8:	20b6      	movs	r0, #182	@ 0xb6
 80025fa:	f001 fb6f 	bl	8003cdc <lcdWriteCommand>
  lcdWriteData(0x0A);
 80025fe:	200a      	movs	r0, #10
 8002600:	f001 fb7c 	bl	8003cfc <lcdWriteData>
  lcdWriteData(0x82);
 8002604:	2082      	movs	r0, #130	@ 0x82
 8002606:	f001 fb79 	bl	8003cfc <lcdWriteData>
  lcdWriteData(0x27);
 800260a:	2027      	movs	r0, #39	@ 0x27
 800260c:	f001 fb76 	bl	8003cfc <lcdWriteData>
  lcdWriteData(0x00);
 8002610:	2000      	movs	r0, #0
 8002612:	f001 fb73 	bl	8003cfc <lcdWriteData>

  lcdWriteCommand(ILI9341_SLEEPOUT);
 8002616:	2011      	movs	r0, #17
 8002618:	f001 fb60 	bl	8003cdc <lcdWriteCommand>
  HAL_Delay(100);
 800261c:	2064      	movs	r0, #100	@ 0x64
 800261e:	f003 fb01 	bl	8005c24 <HAL_Delay>
  lcdWriteCommand(ILI9341_DISPLAYON);
 8002622:	2029      	movs	r0, #41	@ 0x29
 8002624:	f001 fb5a 	bl	8003cdc <lcdWriteCommand>
  HAL_Delay(100);
 8002628:	2064      	movs	r0, #100	@ 0x64
 800262a:	f003 fafb 	bl	8005c24 <HAL_Delay>
  lcdWriteCommand(ILI9341_MEMORYWRITE);
 800262e:	202c      	movs	r0, #44	@ 0x2c
 8002630:	f001 fb54 	bl	8003cdc <lcdWriteCommand>
}
 8002634:	bf00      	nop
 8002636:	46bd      	mov	sp, r7
 8002638:	bd80      	pop	{r7, pc}
 800263a:	bf00      	nop
 800263c:	200002fc 	.word	0x200002fc
 8002640:	200002fd 	.word	0x200002fd
 8002644:	200002fe 	.word	0x200002fe
 8002648:	200002ff 	.word	0x200002ff

0800264c <drawAlignedText>:

void drawAlignedText(char *text, int yPosition, int sectionWidth, int size, int backColor)
{
 800264c:	b580      	push	{r7, lr}
 800264e:	b086      	sub	sp, #24
 8002650:	af00      	add	r7, sp, #0
 8002652:	60f8      	str	r0, [r7, #12]
 8002654:	60b9      	str	r1, [r7, #8]
 8002656:	607a      	str	r2, [r7, #4]
 8002658:	603b      	str	r3, [r7, #0]
    int textWidth = getTextWidth(text, size);
 800265a:	6839      	ldr	r1, [r7, #0]
 800265c:	68f8      	ldr	r0, [r7, #12]
 800265e:	f000 faec 	bl	8002c3a <getTextWidth>
 8002662:	6178      	str	r0, [r7, #20]
    int xPosition = (sectionWidth - textWidth) / 2;
 8002664:	687a      	ldr	r2, [r7, #4]
 8002666:	697b      	ldr	r3, [r7, #20]
 8002668:	1ad3      	subs	r3, r2, r3
 800266a:	0fda      	lsrs	r2, r3, #31
 800266c:	4413      	add	r3, r2
 800266e:	105b      	asrs	r3, r3, #1
 8002670:	613b      	str	r3, [r7, #16]
    lcdSetCursor(xPosition, yPosition);
 8002672:	693b      	ldr	r3, [r7, #16]
 8002674:	b29b      	uxth	r3, r3
 8002676:	68ba      	ldr	r2, [r7, #8]
 8002678:	b292      	uxth	r2, r2
 800267a:	4611      	mov	r1, r2
 800267c:	4618      	mov	r0, r3
 800267e:	f001 fa91 	bl	8003ba4 <lcdSetCursor>
    if (backColor == 1)
 8002682:	6a3b      	ldr	r3, [r7, #32]
 8002684:	2b01      	cmp	r3, #1
 8002686:	d103      	bne.n	8002690 <drawAlignedText+0x44>
    {
    	lcdPrintf(text);
 8002688:	68f8      	ldr	r0, [r7, #12]
 800268a:	f001 f8e9 	bl	8003860 <lcdPrintf>
    }
    else
    {
    	lcdPrintfNoBackColor(text);
    }
}
 800268e:	e002      	b.n	8002696 <drawAlignedText+0x4a>
    	lcdPrintfNoBackColor(text);
 8002690:	68f8      	ldr	r0, [r7, #12]
 8002692:	f001 f971 	bl	8003978 <lcdPrintfNoBackColor>
}
 8002696:	bf00      	nop
 8002698:	3718      	adds	r7, #24
 800269a:	46bd      	mov	sp, r7
 800269c:	bd80      	pop	{r7, pc}

0800269e <drawClearDay>:

void drawClearDay(uint16_t xPosition, uint16_t yPosition)
{
 800269e:	b580      	push	{r7, lr}
 80026a0:	b084      	sub	sp, #16
 80026a2:	af00      	add	r7, sp, #0
 80026a4:	4603      	mov	r3, r0
 80026a6:	460a      	mov	r2, r1
 80026a8:	80fb      	strh	r3, [r7, #6]
 80026aa:	4613      	mov	r3, r2
 80026ac:	80bb      	strh	r3, [r7, #4]
	uint8_t sunRadius = 12;
 80026ae:	230c      	movs	r3, #12
 80026b0:	73fb      	strb	r3, [r7, #15]

	lcdFillCircle(xPosition, yPosition, sunRadius, COLOR_YELLOW);
 80026b2:	f9b7 0006 	ldrsh.w	r0, [r7, #6]
 80026b6:	f9b7 1004 	ldrsh.w	r1, [r7, #4]
 80026ba:	7bfb      	ldrb	r3, [r7, #15]
 80026bc:	b21a      	sxth	r2, r3
 80026be:	f64f 73e0 	movw	r3, #65504	@ 0xffe0
 80026c2:	f000 fc57 	bl	8002f74 <lcdFillCircle>
}
 80026c6:	bf00      	nop
 80026c8:	3710      	adds	r7, #16
 80026ca:	46bd      	mov	sp, r7
 80026cc:	bd80      	pop	{r7, pc}

080026ce <drawCloudyDay>:

void drawCloudyDay(uint16_t xPosition, uint16_t yPosition)
{
 80026ce:	b580      	push	{r7, lr}
 80026d0:	b086      	sub	sp, #24
 80026d2:	af00      	add	r7, sp, #0
 80026d4:	4603      	mov	r3, r0
 80026d6:	460a      	mov	r2, r1
 80026d8:	80fb      	strh	r3, [r7, #6]
 80026da:	4613      	mov	r3, r2
 80026dc:	80bb      	strh	r3, [r7, #4]
	uint16_t cloudCenterX1 = xPosition - 11;
 80026de:	88fb      	ldrh	r3, [r7, #6]
 80026e0:	3b0b      	subs	r3, #11
 80026e2:	82fb      	strh	r3, [r7, #22]
	uint16_t cloudCenterY1 = yPosition + 5;
 80026e4:	88bb      	ldrh	r3, [r7, #4]
 80026e6:	3305      	adds	r3, #5
 80026e8:	82bb      	strh	r3, [r7, #20]

	uint16_t cloudCenterX2 = xPosition;
 80026ea:	88fb      	ldrh	r3, [r7, #6]
 80026ec:	827b      	strh	r3, [r7, #18]
	uint16_t cloudCenterY2 = yPosition;
 80026ee:	88bb      	ldrh	r3, [r7, #4]
 80026f0:	823b      	strh	r3, [r7, #16]

	uint16_t cloudCenterX3 = xPosition + 8;
 80026f2:	88fb      	ldrh	r3, [r7, #6]
 80026f4:	3308      	adds	r3, #8
 80026f6:	81fb      	strh	r3, [r7, #14]
	uint16_t cloudCenterY3 = yPosition + 8;
 80026f8:	88bb      	ldrh	r3, [r7, #4]
 80026fa:	3308      	adds	r3, #8
 80026fc:	81bb      	strh	r3, [r7, #12]

	uint8_t cloudRadius1 = 8;
 80026fe:	2308      	movs	r3, #8
 8002700:	72fb      	strb	r3, [r7, #11]
	uint8_t cloudRadius2 = 10;
 8002702:	230a      	movs	r3, #10
 8002704:	72bb      	strb	r3, [r7, #10]
	uint8_t cloudRadius3 = 8;
 8002706:	2308      	movs	r3, #8
 8002708:	727b      	strb	r3, [r7, #9]

	lcdFillCircle(cloudCenterX1, cloudCenterY1, cloudRadius1, COLOR_WHITE);
 800270a:	f9b7 0016 	ldrsh.w	r0, [r7, #22]
 800270e:	f9b7 1014 	ldrsh.w	r1, [r7, #20]
 8002712:	7afb      	ldrb	r3, [r7, #11]
 8002714:	b21a      	sxth	r2, r3
 8002716:	f64f 73ff 	movw	r3, #65535	@ 0xffff
 800271a:	f000 fc2b 	bl	8002f74 <lcdFillCircle>
	lcdFillCircle(cloudCenterX2, cloudCenterY2, cloudRadius2, COLOR_WHITE);
 800271e:	f9b7 0012 	ldrsh.w	r0, [r7, #18]
 8002722:	f9b7 1010 	ldrsh.w	r1, [r7, #16]
 8002726:	7abb      	ldrb	r3, [r7, #10]
 8002728:	b21a      	sxth	r2, r3
 800272a:	f64f 73ff 	movw	r3, #65535	@ 0xffff
 800272e:	f000 fc21 	bl	8002f74 <lcdFillCircle>
	lcdFillCircle(cloudCenterX3, cloudCenterY3, cloudRadius3, COLOR_WHITE);
 8002732:	f9b7 000e 	ldrsh.w	r0, [r7, #14]
 8002736:	f9b7 100c 	ldrsh.w	r1, [r7, #12]
 800273a:	7a7b      	ldrb	r3, [r7, #9]
 800273c:	b21a      	sxth	r2, r3
 800273e:	f64f 73ff 	movw	r3, #65535	@ 0xffff
 8002742:	f000 fc17 	bl	8002f74 <lcdFillCircle>
}
 8002746:	bf00      	nop
 8002748:	3718      	adds	r7, #24
 800274a:	46bd      	mov	sp, r7
 800274c:	bd80      	pop	{r7, pc}

0800274e <drawRainyDay>:

void drawRainyDay(uint16_t xPosition, uint16_t yPosition)
{
 800274e:	b580      	push	{r7, lr}
 8002750:	b084      	sub	sp, #16
 8002752:	af02      	add	r7, sp, #8
 8002754:	4603      	mov	r3, r0
 8002756:	460a      	mov	r2, r1
 8002758:	80fb      	strh	r3, [r7, #6]
 800275a:	4613      	mov	r3, r2
 800275c:	80bb      	strh	r3, [r7, #4]
	drawDiagonal(xPosition - 10, yPosition - 4, 11, COLOR_WHITE, -1);
 800275e:	88fb      	ldrh	r3, [r7, #6]
 8002760:	3b0a      	subs	r3, #10
 8002762:	b29b      	uxth	r3, r3
 8002764:	b218      	sxth	r0, r3
 8002766:	88bb      	ldrh	r3, [r7, #4]
 8002768:	3b04      	subs	r3, #4
 800276a:	b29b      	uxth	r3, r3
 800276c:	b219      	sxth	r1, r3
 800276e:	f04f 33ff 	mov.w	r3, #4294967295
 8002772:	9300      	str	r3, [sp, #0]
 8002774:	f64f 73ff 	movw	r3, #65535	@ 0xffff
 8002778:	220b      	movs	r2, #11
 800277a:	f000 fa29 	bl	8002bd0 <drawDiagonal>
	drawDiagonal(xPosition + 2, yPosition, 15, COLOR_WHITE, -1);
 800277e:	88fb      	ldrh	r3, [r7, #6]
 8002780:	3302      	adds	r3, #2
 8002782:	b29b      	uxth	r3, r3
 8002784:	b218      	sxth	r0, r3
 8002786:	f9b7 1004 	ldrsh.w	r1, [r7, #4]
 800278a:	f04f 33ff 	mov.w	r3, #4294967295
 800278e:	9300      	str	r3, [sp, #0]
 8002790:	f64f 73ff 	movw	r3, #65535	@ 0xffff
 8002794:	220f      	movs	r2, #15
 8002796:	f000 fa1b 	bl	8002bd0 <drawDiagonal>
	drawDiagonal(xPosition - 17, yPosition + 9, 13, COLOR_WHITE, -1);
 800279a:	88fb      	ldrh	r3, [r7, #6]
 800279c:	3b11      	subs	r3, #17
 800279e:	b29b      	uxth	r3, r3
 80027a0:	b218      	sxth	r0, r3
 80027a2:	88bb      	ldrh	r3, [r7, #4]
 80027a4:	3309      	adds	r3, #9
 80027a6:	b29b      	uxth	r3, r3
 80027a8:	b219      	sxth	r1, r3
 80027aa:	f04f 33ff 	mov.w	r3, #4294967295
 80027ae:	9300      	str	r3, [sp, #0]
 80027b0:	f64f 73ff 	movw	r3, #65535	@ 0xffff
 80027b4:	220d      	movs	r2, #13
 80027b6:	f000 fa0b 	bl	8002bd0 <drawDiagonal>
	drawDiagonal(xPosition - 7, yPosition + 3, 10, COLOR_WHITE, -1);
 80027ba:	88fb      	ldrh	r3, [r7, #6]
 80027bc:	3b07      	subs	r3, #7
 80027be:	b29b      	uxth	r3, r3
 80027c0:	b218      	sxth	r0, r3
 80027c2:	88bb      	ldrh	r3, [r7, #4]
 80027c4:	3303      	adds	r3, #3
 80027c6:	b29b      	uxth	r3, r3
 80027c8:	b219      	sxth	r1, r3
 80027ca:	f04f 33ff 	mov.w	r3, #4294967295
 80027ce:	9300      	str	r3, [sp, #0]
 80027d0:	f64f 73ff 	movw	r3, #65535	@ 0xffff
 80027d4:	220a      	movs	r2, #10
 80027d6:	f000 f9fb 	bl	8002bd0 <drawDiagonal>
	drawDiagonal(xPosition - 4, yPosition + 15, 12, COLOR_WHITE, -1);
 80027da:	88fb      	ldrh	r3, [r7, #6]
 80027dc:	3b04      	subs	r3, #4
 80027de:	b29b      	uxth	r3, r3
 80027e0:	b218      	sxth	r0, r3
 80027e2:	88bb      	ldrh	r3, [r7, #4]
 80027e4:	330f      	adds	r3, #15
 80027e6:	b29b      	uxth	r3, r3
 80027e8:	b219      	sxth	r1, r3
 80027ea:	f04f 33ff 	mov.w	r3, #4294967295
 80027ee:	9300      	str	r3, [sp, #0]
 80027f0:	f64f 73ff 	movw	r3, #65535	@ 0xffff
 80027f4:	220c      	movs	r2, #12
 80027f6:	f000 f9eb 	bl	8002bd0 <drawDiagonal>
	drawDiagonal(xPosition - 9, yPosition + 13, 8, COLOR_WHITE, -1);
 80027fa:	88fb      	ldrh	r3, [r7, #6]
 80027fc:	3b09      	subs	r3, #9
 80027fe:	b29b      	uxth	r3, r3
 8002800:	b218      	sxth	r0, r3
 8002802:	88bb      	ldrh	r3, [r7, #4]
 8002804:	330d      	adds	r3, #13
 8002806:	b29b      	uxth	r3, r3
 8002808:	b219      	sxth	r1, r3
 800280a:	f04f 33ff 	mov.w	r3, #4294967295
 800280e:	9300      	str	r3, [sp, #0]
 8002810:	f64f 73ff 	movw	r3, #65535	@ 0xffff
 8002814:	2208      	movs	r2, #8
 8002816:	f000 f9db 	bl	8002bd0 <drawDiagonal>
}
 800281a:	bf00      	nop
 800281c:	3708      	adds	r7, #8
 800281e:	46bd      	mov	sp, r7
 8002820:	bd80      	pop	{r7, pc}
	...

08002824 <drawSnowyDay>:

void drawSnowyDay(uint16_t xPosition, uint16_t yPosition)
{
 8002824:	b580      	push	{r7, lr}
 8002826:	b082      	sub	sp, #8
 8002828:	af00      	add	r7, sp, #0
 800282a:	4603      	mov	r3, r0
 800282c:	460a      	mov	r2, r1
 800282e:	80fb      	strh	r3, [r7, #6]
 8002830:	4613      	mov	r3, r2
 8002832:	80bb      	strh	r3, [r7, #4]
	lcdSetTextFont(&Font16);
 8002834:	4823      	ldr	r0, [pc, #140]	@ (80028c4 <drawSnowyDay+0xa0>)
 8002836:	f001 f925 	bl	8003a84 <lcdSetTextFont>
	lcdSetCursor(xPosition, yPosition);
 800283a:	88ba      	ldrh	r2, [r7, #4]
 800283c:	88fb      	ldrh	r3, [r7, #6]
 800283e:	4611      	mov	r1, r2
 8002840:	4618      	mov	r0, r3
 8002842:	f001 f9af 	bl	8003ba4 <lcdSetCursor>
	lcdPrintfNoBackColor("*");
 8002846:	4820      	ldr	r0, [pc, #128]	@ (80028c8 <drawSnowyDay+0xa4>)
 8002848:	f001 f896 	bl	8003978 <lcdPrintfNoBackColor>
	lcdSetCursor(xPosition - 10, yPosition - 10);
 800284c:	88fb      	ldrh	r3, [r7, #6]
 800284e:	3b0a      	subs	r3, #10
 8002850:	b29a      	uxth	r2, r3
 8002852:	88bb      	ldrh	r3, [r7, #4]
 8002854:	3b0a      	subs	r3, #10
 8002856:	b29b      	uxth	r3, r3
 8002858:	4619      	mov	r1, r3
 800285a:	4610      	mov	r0, r2
 800285c:	f001 f9a2 	bl	8003ba4 <lcdSetCursor>
	lcdPrintfNoBackColor("*");
 8002860:	4819      	ldr	r0, [pc, #100]	@ (80028c8 <drawSnowyDay+0xa4>)
 8002862:	f001 f889 	bl	8003978 <lcdPrintfNoBackColor>
	lcdSetCursor(xPosition + 10, yPosition + 10);
 8002866:	88fb      	ldrh	r3, [r7, #6]
 8002868:	330a      	adds	r3, #10
 800286a:	b29a      	uxth	r2, r3
 800286c:	88bb      	ldrh	r3, [r7, #4]
 800286e:	330a      	adds	r3, #10
 8002870:	b29b      	uxth	r3, r3
 8002872:	4619      	mov	r1, r3
 8002874:	4610      	mov	r0, r2
 8002876:	f001 f995 	bl	8003ba4 <lcdSetCursor>
	lcdPrintfNoBackColor("*");
 800287a:	4813      	ldr	r0, [pc, #76]	@ (80028c8 <drawSnowyDay+0xa4>)
 800287c:	f001 f87c 	bl	8003978 <lcdPrintfNoBackColor>
	lcdSetCursor(xPosition + 10, yPosition - 10);
 8002880:	88fb      	ldrh	r3, [r7, #6]
 8002882:	330a      	adds	r3, #10
 8002884:	b29a      	uxth	r2, r3
 8002886:	88bb      	ldrh	r3, [r7, #4]
 8002888:	3b0a      	subs	r3, #10
 800288a:	b29b      	uxth	r3, r3
 800288c:	4619      	mov	r1, r3
 800288e:	4610      	mov	r0, r2
 8002890:	f001 f988 	bl	8003ba4 <lcdSetCursor>
	lcdPrintfNoBackColor("*");
 8002894:	480c      	ldr	r0, [pc, #48]	@ (80028c8 <drawSnowyDay+0xa4>)
 8002896:	f001 f86f 	bl	8003978 <lcdPrintfNoBackColor>
	lcdSetCursor(xPosition - 10, yPosition + 10);
 800289a:	88fb      	ldrh	r3, [r7, #6]
 800289c:	3b0a      	subs	r3, #10
 800289e:	b29a      	uxth	r2, r3
 80028a0:	88bb      	ldrh	r3, [r7, #4]
 80028a2:	330a      	adds	r3, #10
 80028a4:	b29b      	uxth	r3, r3
 80028a6:	4619      	mov	r1, r3
 80028a8:	4610      	mov	r0, r2
 80028aa:	f001 f97b 	bl	8003ba4 <lcdSetCursor>
	lcdPrintfNoBackColor("*");
 80028ae:	4806      	ldr	r0, [pc, #24]	@ (80028c8 <drawSnowyDay+0xa4>)
 80028b0:	f001 f862 	bl	8003978 <lcdPrintfNoBackColor>
	lcdSetTextFont(&Font12);
 80028b4:	4805      	ldr	r0, [pc, #20]	@ (80028cc <drawSnowyDay+0xa8>)
 80028b6:	f001 f8e5 	bl	8003a84 <lcdSetTextFont>

}
 80028ba:	bf00      	nop
 80028bc:	3708      	adds	r7, #8
 80028be:	46bd      	mov	sp, r7
 80028c0:	bd80      	pop	{r7, pc}
 80028c2:	bf00      	nop
 80028c4:	20000014 	.word	0x20000014
 80028c8:	0800b89c 	.word	0x0800b89c
 80028cc:	2000000c 	.word	0x2000000c

080028d0 <drawFoggyDay>:

void drawFoggyDay(uint16_t xPosition, uint16_t yPosition)
{
 80028d0:	b590      	push	{r4, r7, lr}
 80028d2:	b089      	sub	sp, #36	@ 0x24
 80028d4:	af02      	add	r7, sp, #8
 80028d6:	4603      	mov	r3, r0
 80028d8:	460a      	mov	r2, r1
 80028da:	80fb      	strh	r3, [r7, #6]
 80028dc:	4613      	mov	r3, r2
 80028de:	80bb      	strh	r3, [r7, #4]
	uint16_t cloudCenterX1 = xPosition - 11;
 80028e0:	88fb      	ldrh	r3, [r7, #6]
 80028e2:	3b0b      	subs	r3, #11
 80028e4:	82fb      	strh	r3, [r7, #22]
	uint16_t cloudCenterY1 = yPosition + 5;
 80028e6:	88bb      	ldrh	r3, [r7, #4]
 80028e8:	3305      	adds	r3, #5
 80028ea:	82bb      	strh	r3, [r7, #20]

	uint16_t cloudCenterX2 = xPosition;
 80028ec:	88fb      	ldrh	r3, [r7, #6]
 80028ee:	827b      	strh	r3, [r7, #18]
	uint16_t cloudCenterY2 = yPosition;
 80028f0:	88bb      	ldrh	r3, [r7, #4]
 80028f2:	823b      	strh	r3, [r7, #16]

	uint16_t cloudCenterX3 = xPosition + 8;
 80028f4:	88fb      	ldrh	r3, [r7, #6]
 80028f6:	3308      	adds	r3, #8
 80028f8:	81fb      	strh	r3, [r7, #14]
	uint16_t cloudCenterY3 = yPosition + 8;
 80028fa:	88bb      	ldrh	r3, [r7, #4]
 80028fc:	3308      	adds	r3, #8
 80028fe:	81bb      	strh	r3, [r7, #12]

	uint8_t cloudRadius1 = 8;
 8002900:	2308      	movs	r3, #8
 8002902:	72fb      	strb	r3, [r7, #11]
	uint8_t cloudRadius2 = 10;
 8002904:	230a      	movs	r3, #10
 8002906:	72bb      	strb	r3, [r7, #10]
	uint8_t cloudRadius3 = 8;
 8002908:	2308      	movs	r3, #8
 800290a:	727b      	strb	r3, [r7, #9]

	lcdFillCircle(cloudCenterX1, cloudCenterY1, cloudRadius1, COLOR_WHITE);
 800290c:	f9b7 0016 	ldrsh.w	r0, [r7, #22]
 8002910:	f9b7 1014 	ldrsh.w	r1, [r7, #20]
 8002914:	7afb      	ldrb	r3, [r7, #11]
 8002916:	b21a      	sxth	r2, r3
 8002918:	f64f 73ff 	movw	r3, #65535	@ 0xffff
 800291c:	f000 fb2a 	bl	8002f74 <lcdFillCircle>
	lcdFillCircle(cloudCenterX2, cloudCenterY2, cloudRadius2, COLOR_WHITE);
 8002920:	f9b7 0012 	ldrsh.w	r0, [r7, #18]
 8002924:	f9b7 1010 	ldrsh.w	r1, [r7, #16]
 8002928:	7abb      	ldrb	r3, [r7, #10]
 800292a:	b21a      	sxth	r2, r3
 800292c:	f64f 73ff 	movw	r3, #65535	@ 0xffff
 8002930:	f000 fb20 	bl	8002f74 <lcdFillCircle>
	lcdFillCircle(cloudCenterX3, cloudCenterY3, cloudRadius3, COLOR_WHITE);
 8002934:	f9b7 000e 	ldrsh.w	r0, [r7, #14]
 8002938:	f9b7 100c 	ldrsh.w	r1, [r7, #12]
 800293c:	7a7b      	ldrb	r3, [r7, #9]
 800293e:	b21a      	sxth	r2, r3
 8002940:	f64f 73ff 	movw	r3, #65535	@ 0xffff
 8002944:	f000 fb16 	bl	8002f74 <lcdFillCircle>

	lcdDrawLine(xPosition - 10, yPosition + 2, xPosition + 10, yPosition + 2, COLOR_BLACK);
 8002948:	88fb      	ldrh	r3, [r7, #6]
 800294a:	3b0a      	subs	r3, #10
 800294c:	b29b      	uxth	r3, r3
 800294e:	b218      	sxth	r0, r3
 8002950:	88bb      	ldrh	r3, [r7, #4]
 8002952:	3302      	adds	r3, #2
 8002954:	b29b      	uxth	r3, r3
 8002956:	b219      	sxth	r1, r3
 8002958:	88fb      	ldrh	r3, [r7, #6]
 800295a:	330a      	adds	r3, #10
 800295c:	b29b      	uxth	r3, r3
 800295e:	b21a      	sxth	r2, r3
 8002960:	88bb      	ldrh	r3, [r7, #4]
 8002962:	3302      	adds	r3, #2
 8002964:	b29b      	uxth	r3, r3
 8002966:	b21b      	sxth	r3, r3
 8002968:	2400      	movs	r4, #0
 800296a:	9400      	str	r4, [sp, #0]
 800296c:	f000 fa64 	bl	8002e38 <lcdDrawLine>
	lcdDrawLine(xPosition - 10, yPosition + 3, xPosition + 10, yPosition + 3, COLOR_BLACK);
 8002970:	88fb      	ldrh	r3, [r7, #6]
 8002972:	3b0a      	subs	r3, #10
 8002974:	b29b      	uxth	r3, r3
 8002976:	b218      	sxth	r0, r3
 8002978:	88bb      	ldrh	r3, [r7, #4]
 800297a:	3303      	adds	r3, #3
 800297c:	b29b      	uxth	r3, r3
 800297e:	b219      	sxth	r1, r3
 8002980:	88fb      	ldrh	r3, [r7, #6]
 8002982:	330a      	adds	r3, #10
 8002984:	b29b      	uxth	r3, r3
 8002986:	b21a      	sxth	r2, r3
 8002988:	88bb      	ldrh	r3, [r7, #4]
 800298a:	3303      	adds	r3, #3
 800298c:	b29b      	uxth	r3, r3
 800298e:	b21b      	sxth	r3, r3
 8002990:	2400      	movs	r4, #0
 8002992:	9400      	str	r4, [sp, #0]
 8002994:	f000 fa50 	bl	8002e38 <lcdDrawLine>
	lcdDrawLine(xPosition - 25, yPosition + 6, xPosition - 9, yPosition + 6, COLOR_BLACK);
 8002998:	88fb      	ldrh	r3, [r7, #6]
 800299a:	3b19      	subs	r3, #25
 800299c:	b29b      	uxth	r3, r3
 800299e:	b218      	sxth	r0, r3
 80029a0:	88bb      	ldrh	r3, [r7, #4]
 80029a2:	3306      	adds	r3, #6
 80029a4:	b29b      	uxth	r3, r3
 80029a6:	b219      	sxth	r1, r3
 80029a8:	88fb      	ldrh	r3, [r7, #6]
 80029aa:	3b09      	subs	r3, #9
 80029ac:	b29b      	uxth	r3, r3
 80029ae:	b21a      	sxth	r2, r3
 80029b0:	88bb      	ldrh	r3, [r7, #4]
 80029b2:	3306      	adds	r3, #6
 80029b4:	b29b      	uxth	r3, r3
 80029b6:	b21b      	sxth	r3, r3
 80029b8:	2400      	movs	r4, #0
 80029ba:	9400      	str	r4, [sp, #0]
 80029bc:	f000 fa3c 	bl	8002e38 <lcdDrawLine>
	lcdDrawLine(xPosition - 25, yPosition + 7, xPosition - 9, yPosition + 7, COLOR_BLACK);
 80029c0:	88fb      	ldrh	r3, [r7, #6]
 80029c2:	3b19      	subs	r3, #25
 80029c4:	b29b      	uxth	r3, r3
 80029c6:	b218      	sxth	r0, r3
 80029c8:	88bb      	ldrh	r3, [r7, #4]
 80029ca:	3307      	adds	r3, #7
 80029cc:	b29b      	uxth	r3, r3
 80029ce:	b219      	sxth	r1, r3
 80029d0:	88fb      	ldrh	r3, [r7, #6]
 80029d2:	3b09      	subs	r3, #9
 80029d4:	b29b      	uxth	r3, r3
 80029d6:	b21a      	sxth	r2, r3
 80029d8:	88bb      	ldrh	r3, [r7, #4]
 80029da:	3307      	adds	r3, #7
 80029dc:	b29b      	uxth	r3, r3
 80029de:	b21b      	sxth	r3, r3
 80029e0:	2400      	movs	r4, #0
 80029e2:	9400      	str	r4, [sp, #0]
 80029e4:	f000 fa28 	bl	8002e38 <lcdDrawLine>
	lcdDrawLine(xPosition + 2, yPosition + 8, xPosition + 15, yPosition + 8, COLOR_BLACK);
 80029e8:	88fb      	ldrh	r3, [r7, #6]
 80029ea:	3302      	adds	r3, #2
 80029ec:	b29b      	uxth	r3, r3
 80029ee:	b218      	sxth	r0, r3
 80029f0:	88bb      	ldrh	r3, [r7, #4]
 80029f2:	3308      	adds	r3, #8
 80029f4:	b29b      	uxth	r3, r3
 80029f6:	b219      	sxth	r1, r3
 80029f8:	88fb      	ldrh	r3, [r7, #6]
 80029fa:	330f      	adds	r3, #15
 80029fc:	b29b      	uxth	r3, r3
 80029fe:	b21a      	sxth	r2, r3
 8002a00:	88bb      	ldrh	r3, [r7, #4]
 8002a02:	3308      	adds	r3, #8
 8002a04:	b29b      	uxth	r3, r3
 8002a06:	b21b      	sxth	r3, r3
 8002a08:	2400      	movs	r4, #0
 8002a0a:	9400      	str	r4, [sp, #0]
 8002a0c:	f000 fa14 	bl	8002e38 <lcdDrawLine>
	lcdDrawLine(xPosition + 2, yPosition + 9, xPosition + 15, yPosition + 9, COLOR_BLACK);
 8002a10:	88fb      	ldrh	r3, [r7, #6]
 8002a12:	3302      	adds	r3, #2
 8002a14:	b29b      	uxth	r3, r3
 8002a16:	b218      	sxth	r0, r3
 8002a18:	88bb      	ldrh	r3, [r7, #4]
 8002a1a:	3309      	adds	r3, #9
 8002a1c:	b29b      	uxth	r3, r3
 8002a1e:	b219      	sxth	r1, r3
 8002a20:	88fb      	ldrh	r3, [r7, #6]
 8002a22:	330f      	adds	r3, #15
 8002a24:	b29b      	uxth	r3, r3
 8002a26:	b21a      	sxth	r2, r3
 8002a28:	88bb      	ldrh	r3, [r7, #4]
 8002a2a:	3309      	adds	r3, #9
 8002a2c:	b29b      	uxth	r3, r3
 8002a2e:	b21b      	sxth	r3, r3
 8002a30:	2400      	movs	r4, #0
 8002a32:	9400      	str	r4, [sp, #0]
 8002a34:	f000 fa00 	bl	8002e38 <lcdDrawLine>
	lcdDrawLine(xPosition - 9, yPosition + 10, xPosition + 5, yPosition + 10, COLOR_BLACK);
 8002a38:	88fb      	ldrh	r3, [r7, #6]
 8002a3a:	3b09      	subs	r3, #9
 8002a3c:	b29b      	uxth	r3, r3
 8002a3e:	b218      	sxth	r0, r3
 8002a40:	88bb      	ldrh	r3, [r7, #4]
 8002a42:	330a      	adds	r3, #10
 8002a44:	b29b      	uxth	r3, r3
 8002a46:	b219      	sxth	r1, r3
 8002a48:	88fb      	ldrh	r3, [r7, #6]
 8002a4a:	3305      	adds	r3, #5
 8002a4c:	b29b      	uxth	r3, r3
 8002a4e:	b21a      	sxth	r2, r3
 8002a50:	88bb      	ldrh	r3, [r7, #4]
 8002a52:	330a      	adds	r3, #10
 8002a54:	b29b      	uxth	r3, r3
 8002a56:	b21b      	sxth	r3, r3
 8002a58:	2400      	movs	r4, #0
 8002a5a:	9400      	str	r4, [sp, #0]
 8002a5c:	f000 f9ec 	bl	8002e38 <lcdDrawLine>
	lcdDrawLine(xPosition - 9, yPosition + 11, xPosition + 5, yPosition + 11, COLOR_BLACK);
 8002a60:	88fb      	ldrh	r3, [r7, #6]
 8002a62:	3b09      	subs	r3, #9
 8002a64:	b29b      	uxth	r3, r3
 8002a66:	b218      	sxth	r0, r3
 8002a68:	88bb      	ldrh	r3, [r7, #4]
 8002a6a:	330b      	adds	r3, #11
 8002a6c:	b29b      	uxth	r3, r3
 8002a6e:	b219      	sxth	r1, r3
 8002a70:	88fb      	ldrh	r3, [r7, #6]
 8002a72:	3305      	adds	r3, #5
 8002a74:	b29b      	uxth	r3, r3
 8002a76:	b21a      	sxth	r2, r3
 8002a78:	88bb      	ldrh	r3, [r7, #4]
 8002a7a:	330b      	adds	r3, #11
 8002a7c:	b29b      	uxth	r3, r3
 8002a7e:	b21b      	sxth	r3, r3
 8002a80:	2400      	movs	r4, #0
 8002a82:	9400      	str	r4, [sp, #0]
 8002a84:	f000 f9d8 	bl	8002e38 <lcdDrawLine>
}
 8002a88:	bf00      	nop
 8002a8a:	371c      	adds	r7, #28
 8002a8c:	46bd      	mov	sp, r7
 8002a8e:	bd90      	pop	{r4, r7, pc}

08002a90 <drawStormyDay>:

void drawStormyDay(uint16_t xPosition, uint16_t yPosition)
{
 8002a90:	b590      	push	{r4, r7, lr}
 8002a92:	b08b      	sub	sp, #44	@ 0x2c
 8002a94:	af02      	add	r7, sp, #8
 8002a96:	4603      	mov	r3, r0
 8002a98:	460a      	mov	r2, r1
 8002a9a:	80fb      	strh	r3, [r7, #6]
 8002a9c:	4613      	mov	r3, r2
 8002a9e:	80bb      	strh	r3, [r7, #4]
	uint16_t cloudCenterX1 = xPosition - 11;
 8002aa0:	88fb      	ldrh	r3, [r7, #6]
 8002aa2:	3b0b      	subs	r3, #11
 8002aa4:	837b      	strh	r3, [r7, #26]
	uint16_t cloudCenterY1 = yPosition + 5;
 8002aa6:	88bb      	ldrh	r3, [r7, #4]
 8002aa8:	3305      	adds	r3, #5
 8002aaa:	833b      	strh	r3, [r7, #24]

	uint16_t cloudCenterX2 = xPosition;
 8002aac:	88fb      	ldrh	r3, [r7, #6]
 8002aae:	82fb      	strh	r3, [r7, #22]
	uint16_t cloudCenterY2 = yPosition;
 8002ab0:	88bb      	ldrh	r3, [r7, #4]
 8002ab2:	82bb      	strh	r3, [r7, #20]

	uint16_t cloudCenterX3 = xPosition + 8;
 8002ab4:	88fb      	ldrh	r3, [r7, #6]
 8002ab6:	3308      	adds	r3, #8
 8002ab8:	827b      	strh	r3, [r7, #18]
	uint16_t cloudCenterY3 = yPosition + 8;
 8002aba:	88bb      	ldrh	r3, [r7, #4]
 8002abc:	3308      	adds	r3, #8
 8002abe:	823b      	strh	r3, [r7, #16]

	uint8_t cloudRadius1 = 8;
 8002ac0:	2308      	movs	r3, #8
 8002ac2:	73fb      	strb	r3, [r7, #15]
	uint8_t cloudRadius2 = 10;
 8002ac4:	230a      	movs	r3, #10
 8002ac6:	73bb      	strb	r3, [r7, #14]
	uint8_t cloudRadius3 = 8;
 8002ac8:	2308      	movs	r3, #8
 8002aca:	737b      	strb	r3, [r7, #13]

	lcdFillCircle(cloudCenterX1, cloudCenterY1, cloudRadius1, COLOR_BLACK);
 8002acc:	f9b7 001a 	ldrsh.w	r0, [r7, #26]
 8002ad0:	f9b7 1018 	ldrsh.w	r1, [r7, #24]
 8002ad4:	7bfb      	ldrb	r3, [r7, #15]
 8002ad6:	b21a      	sxth	r2, r3
 8002ad8:	2300      	movs	r3, #0
 8002ada:	f000 fa4b 	bl	8002f74 <lcdFillCircle>
	lcdFillCircle(cloudCenterX2, cloudCenterY2, cloudRadius2, COLOR_BLACK);
 8002ade:	f9b7 0016 	ldrsh.w	r0, [r7, #22]
 8002ae2:	f9b7 1014 	ldrsh.w	r1, [r7, #20]
 8002ae6:	7bbb      	ldrb	r3, [r7, #14]
 8002ae8:	b21a      	sxth	r2, r3
 8002aea:	2300      	movs	r3, #0
 8002aec:	f000 fa42 	bl	8002f74 <lcdFillCircle>
	lcdFillCircle(cloudCenterX3, cloudCenterY3, cloudRadius3, COLOR_BLACK);
 8002af0:	f9b7 0012 	ldrsh.w	r0, [r7, #18]
 8002af4:	f9b7 1010 	ldrsh.w	r1, [r7, #16]
 8002af8:	7b7b      	ldrb	r3, [r7, #13]
 8002afa:	b21a      	sxth	r2, r3
 8002afc:	2300      	movs	r3, #0
 8002afe:	f000 fa39 	bl	8002f74 <lcdFillCircle>

	for (uint16_t i = 0; i <= 8; i++)
 8002b02:	2300      	movs	r3, #0
 8002b04:	83fb      	strh	r3, [r7, #30]
 8002b06:	e024      	b.n	8002b52 <drawStormyDay+0xc2>
	{
		lcdDrawLine(xPosition - 5 - i, yPosition + 4 + i, xPosition + 5 - i, yPosition + 4 + i, COLOR_YELLOW);
 8002b08:	88fa      	ldrh	r2, [r7, #6]
 8002b0a:	8bfb      	ldrh	r3, [r7, #30]
 8002b0c:	1ad3      	subs	r3, r2, r3
 8002b0e:	b29b      	uxth	r3, r3
 8002b10:	3b05      	subs	r3, #5
 8002b12:	b29b      	uxth	r3, r3
 8002b14:	b218      	sxth	r0, r3
 8002b16:	88ba      	ldrh	r2, [r7, #4]
 8002b18:	8bfb      	ldrh	r3, [r7, #30]
 8002b1a:	4413      	add	r3, r2
 8002b1c:	b29b      	uxth	r3, r3
 8002b1e:	3304      	adds	r3, #4
 8002b20:	b29b      	uxth	r3, r3
 8002b22:	b219      	sxth	r1, r3
 8002b24:	88fa      	ldrh	r2, [r7, #6]
 8002b26:	8bfb      	ldrh	r3, [r7, #30]
 8002b28:	1ad3      	subs	r3, r2, r3
 8002b2a:	b29b      	uxth	r3, r3
 8002b2c:	3305      	adds	r3, #5
 8002b2e:	b29b      	uxth	r3, r3
 8002b30:	b21c      	sxth	r4, r3
 8002b32:	88ba      	ldrh	r2, [r7, #4]
 8002b34:	8bfb      	ldrh	r3, [r7, #30]
 8002b36:	4413      	add	r3, r2
 8002b38:	b29b      	uxth	r3, r3
 8002b3a:	3304      	adds	r3, #4
 8002b3c:	b29b      	uxth	r3, r3
 8002b3e:	b21b      	sxth	r3, r3
 8002b40:	f64f 72e0 	movw	r2, #65504	@ 0xffe0
 8002b44:	9200      	str	r2, [sp, #0]
 8002b46:	4622      	mov	r2, r4
 8002b48:	f000 f976 	bl	8002e38 <lcdDrawLine>
	for (uint16_t i = 0; i <= 8; i++)
 8002b4c:	8bfb      	ldrh	r3, [r7, #30]
 8002b4e:	3301      	adds	r3, #1
 8002b50:	83fb      	strh	r3, [r7, #30]
 8002b52:	8bfb      	ldrh	r3, [r7, #30]
 8002b54:	2b08      	cmp	r3, #8
 8002b56:	d9d7      	bls.n	8002b08 <drawStormyDay+0x78>
	}
	for (uint16_t i = 0; i <= 7; i++)
 8002b58:	2300      	movs	r3, #0
 8002b5a:	83bb      	strh	r3, [r7, #28]
 8002b5c:	e026      	b.n	8002bac <drawStormyDay+0x11c>
	{
		lcdDrawLine(xPosition - 5 - i, yPosition + 13 + i, xPosition + 3 - 2 * i, yPosition + 13 + i, COLOR_YELLOW);
 8002b5e:	88fa      	ldrh	r2, [r7, #6]
 8002b60:	8bbb      	ldrh	r3, [r7, #28]
 8002b62:	1ad3      	subs	r3, r2, r3
 8002b64:	b29b      	uxth	r3, r3
 8002b66:	3b05      	subs	r3, #5
 8002b68:	b29b      	uxth	r3, r3
 8002b6a:	b218      	sxth	r0, r3
 8002b6c:	88ba      	ldrh	r2, [r7, #4]
 8002b6e:	8bbb      	ldrh	r3, [r7, #28]
 8002b70:	4413      	add	r3, r2
 8002b72:	b29b      	uxth	r3, r3
 8002b74:	330d      	adds	r3, #13
 8002b76:	b29b      	uxth	r3, r3
 8002b78:	b219      	sxth	r1, r3
 8002b7a:	8bbb      	ldrh	r3, [r7, #28]
 8002b7c:	005b      	lsls	r3, r3, #1
 8002b7e:	b29b      	uxth	r3, r3
 8002b80:	88fa      	ldrh	r2, [r7, #6]
 8002b82:	1ad3      	subs	r3, r2, r3
 8002b84:	b29b      	uxth	r3, r3
 8002b86:	3303      	adds	r3, #3
 8002b88:	b29b      	uxth	r3, r3
 8002b8a:	b21c      	sxth	r4, r3
 8002b8c:	88ba      	ldrh	r2, [r7, #4]
 8002b8e:	8bbb      	ldrh	r3, [r7, #28]
 8002b90:	4413      	add	r3, r2
 8002b92:	b29b      	uxth	r3, r3
 8002b94:	330d      	adds	r3, #13
 8002b96:	b29b      	uxth	r3, r3
 8002b98:	b21b      	sxth	r3, r3
 8002b9a:	f64f 72e0 	movw	r2, #65504	@ 0xffe0
 8002b9e:	9200      	str	r2, [sp, #0]
 8002ba0:	4622      	mov	r2, r4
 8002ba2:	f000 f949 	bl	8002e38 <lcdDrawLine>
	for (uint16_t i = 0; i <= 7; i++)
 8002ba6:	8bbb      	ldrh	r3, [r7, #28]
 8002ba8:	3301      	adds	r3, #1
 8002baa:	83bb      	strh	r3, [r7, #28]
 8002bac:	8bbb      	ldrh	r3, [r7, #28]
 8002bae:	2b07      	cmp	r3, #7
 8002bb0:	d9d5      	bls.n	8002b5e <drawStormyDay+0xce>
	}
	lcdDrawPixel(xPosition - 13, yPosition + 21, COLOR_YELLOW);
 8002bb2:	88fb      	ldrh	r3, [r7, #6]
 8002bb4:	3b0d      	subs	r3, #13
 8002bb6:	b298      	uxth	r0, r3
 8002bb8:	88bb      	ldrh	r3, [r7, #4]
 8002bba:	3315      	adds	r3, #21
 8002bbc:	b29b      	uxth	r3, r3
 8002bbe:	f64f 72e0 	movw	r2, #65504	@ 0xffe0
 8002bc2:	4619      	mov	r1, r3
 8002bc4:	f000 f87e 	bl	8002cc4 <lcdDrawPixel>
}
 8002bc8:	bf00      	nop
 8002bca:	3724      	adds	r7, #36	@ 0x24
 8002bcc:	46bd      	mov	sp, r7
 8002bce:	bd90      	pop	{r4, r7, pc}

08002bd0 <drawDiagonal>:

void drawDiagonal(int16_t x, int16_t y, int16_t length, uint16_t color, int8_t direction)
{
 8002bd0:	b590      	push	{r4, r7, lr}
 8002bd2:	b085      	sub	sp, #20
 8002bd4:	af00      	add	r7, sp, #0
 8002bd6:	4604      	mov	r4, r0
 8002bd8:	4608      	mov	r0, r1
 8002bda:	4611      	mov	r1, r2
 8002bdc:	461a      	mov	r2, r3
 8002bde:	4623      	mov	r3, r4
 8002be0:	80fb      	strh	r3, [r7, #6]
 8002be2:	4603      	mov	r3, r0
 8002be4:	80bb      	strh	r3, [r7, #4]
 8002be6:	460b      	mov	r3, r1
 8002be8:	807b      	strh	r3, [r7, #2]
 8002bea:	4613      	mov	r3, r2
 8002bec:	803b      	strh	r3, [r7, #0]
    for (int16_t i = 0; i < length; i++)
 8002bee:	2300      	movs	r3, #0
 8002bf0:	81fb      	strh	r3, [r7, #14]
 8002bf2:	e017      	b.n	8002c24 <drawDiagonal+0x54>
    {
        lcdDrawPixel(x + i, y + i * direction, color);
 8002bf4:	88fa      	ldrh	r2, [r7, #6]
 8002bf6:	89fb      	ldrh	r3, [r7, #14]
 8002bf8:	4413      	add	r3, r2
 8002bfa:	b298      	uxth	r0, r3
 8002bfc:	f997 3020 	ldrsb.w	r3, [r7, #32]
 8002c00:	b29a      	uxth	r2, r3
 8002c02:	89fb      	ldrh	r3, [r7, #14]
 8002c04:	fb12 f303 	smulbb	r3, r2, r3
 8002c08:	b29a      	uxth	r2, r3
 8002c0a:	88bb      	ldrh	r3, [r7, #4]
 8002c0c:	4413      	add	r3, r2
 8002c0e:	b29b      	uxth	r3, r3
 8002c10:	883a      	ldrh	r2, [r7, #0]
 8002c12:	4619      	mov	r1, r3
 8002c14:	f000 f856 	bl	8002cc4 <lcdDrawPixel>
    for (int16_t i = 0; i < length; i++)
 8002c18:	f9b7 300e 	ldrsh.w	r3, [r7, #14]
 8002c1c:	b29b      	uxth	r3, r3
 8002c1e:	3301      	adds	r3, #1
 8002c20:	b29b      	uxth	r3, r3
 8002c22:	81fb      	strh	r3, [r7, #14]
 8002c24:	f9b7 200e 	ldrsh.w	r2, [r7, #14]
 8002c28:	f9b7 3002 	ldrsh.w	r3, [r7, #2]
 8002c2c:	429a      	cmp	r2, r3
 8002c2e:	dbe1      	blt.n	8002bf4 <drawDiagonal+0x24>
    }
}
 8002c30:	bf00      	nop
 8002c32:	bf00      	nop
 8002c34:	3714      	adds	r7, #20
 8002c36:	46bd      	mov	sp, r7
 8002c38:	bd90      	pop	{r4, r7, pc}

08002c3a <getTextWidth>:


int getTextWidth(const char *text, int size)
{
 8002c3a:	b580      	push	{r7, lr}
 8002c3c:	b084      	sub	sp, #16
 8002c3e:	af00      	add	r7, sp, #0
 8002c40:	6078      	str	r0, [r7, #4]
 8002c42:	6039      	str	r1, [r7, #0]
    int characterWidth;
	if (size == 12)
 8002c44:	683b      	ldr	r3, [r7, #0]
 8002c46:	2b0c      	cmp	r3, #12
 8002c48:	d102      	bne.n	8002c50 <getTextWidth+0x16>
    {
    	characterWidth = 7;
 8002c4a:	2307      	movs	r3, #7
 8002c4c:	60fb      	str	r3, [r7, #12]
 8002c4e:	e001      	b.n	8002c54 <getTextWidth+0x1a>
    }
    else
    {
    	characterWidth = 11;
 8002c50:	230b      	movs	r3, #11
 8002c52:	60fb      	str	r3, [r7, #12]
    }
    int length = strlen(text);
 8002c54:	6878      	ldr	r0, [r7, #4]
 8002c56:	f7fd fac5 	bl	80001e4 <strlen>
 8002c5a:	4603      	mov	r3, r0
 8002c5c:	60bb      	str	r3, [r7, #8]

    return length * characterWidth;
 8002c5e:	68bb      	ldr	r3, [r7, #8]
 8002c60:	68fa      	ldr	r2, [r7, #12]
 8002c62:	fb02 f303 	mul.w	r3, r2, r3
}
 8002c66:	4618      	mov	r0, r3
 8002c68:	3710      	adds	r7, #16
 8002c6a:	46bd      	mov	sp, r7
 8002c6c:	bd80      	pop	{r7, pc}
	...

08002c70 <lcdFillRGB>:

void lcdFillRGB(uint16_t color)
{
 8002c70:	b580      	push	{r7, lr}
 8002c72:	b084      	sub	sp, #16
 8002c74:	af00      	add	r7, sp, #0
 8002c76:	4603      	mov	r3, r0
 8002c78:	80fb      	strh	r3, [r7, #6]
  lcdSetWindow(0, 0, lcdProperties.width - 1, lcdProperties.height - 1);
 8002c7a:	4b11      	ldr	r3, [pc, #68]	@ (8002cc0 <lcdFillRGB+0x50>)
 8002c7c:	881b      	ldrh	r3, [r3, #0]
 8002c7e:	3b01      	subs	r3, #1
 8002c80:	b29a      	uxth	r2, r3
 8002c82:	4b0f      	ldr	r3, [pc, #60]	@ (8002cc0 <lcdFillRGB+0x50>)
 8002c84:	885b      	ldrh	r3, [r3, #2]
 8002c86:	3b01      	subs	r3, #1
 8002c88:	b29b      	uxth	r3, r3
 8002c8a:	2100      	movs	r1, #0
 8002c8c:	2000      	movs	r0, #0
 8002c8e:	f000 ffa3 	bl	8003bd8 <lcdSetWindow>
  int dimensions = lcdProperties.width * lcdProperties.height;
 8002c92:	4b0b      	ldr	r3, [pc, #44]	@ (8002cc0 <lcdFillRGB+0x50>)
 8002c94:	881b      	ldrh	r3, [r3, #0]
 8002c96:	461a      	mov	r2, r3
 8002c98:	4b09      	ldr	r3, [pc, #36]	@ (8002cc0 <lcdFillRGB+0x50>)
 8002c9a:	885b      	ldrh	r3, [r3, #2]
 8002c9c:	fb02 f303 	mul.w	r3, r2, r3
 8002ca0:	60fb      	str	r3, [r7, #12]
  while(dimensions--)
 8002ca2:	e003      	b.n	8002cac <lcdFillRGB+0x3c>
  {
    lcdWriteData(color);
 8002ca4:	88fb      	ldrh	r3, [r7, #6]
 8002ca6:	4618      	mov	r0, r3
 8002ca8:	f001 f828 	bl	8003cfc <lcdWriteData>
  while(dimensions--)
 8002cac:	68fb      	ldr	r3, [r7, #12]
 8002cae:	1e5a      	subs	r2, r3, #1
 8002cb0:	60fa      	str	r2, [r7, #12]
 8002cb2:	2b00      	cmp	r3, #0
 8002cb4:	d1f6      	bne.n	8002ca4 <lcdFillRGB+0x34>
  }
}
 8002cb6:	bf00      	nop
 8002cb8:	bf00      	nop
 8002cba:	3710      	adds	r7, #16
 8002cbc:	46bd      	mov	sp, r7
 8002cbe:	bd80      	pop	{r7, pc}
 8002cc0:	20000024 	.word	0x20000024

08002cc4 <lcdDrawPixel>:
 * \param color    Color
 *
 * \return void
 */
void lcdDrawPixel(uint16_t x, uint16_t y, uint16_t color)
{
 8002cc4:	b580      	push	{r7, lr}
 8002cc6:	b082      	sub	sp, #8
 8002cc8:	af00      	add	r7, sp, #0
 8002cca:	4603      	mov	r3, r0
 8002ccc:	80fb      	strh	r3, [r7, #6]
 8002cce:	460b      	mov	r3, r1
 8002cd0:	80bb      	strh	r3, [r7, #4]
 8002cd2:	4613      	mov	r3, r2
 8002cd4:	807b      	strh	r3, [r7, #2]
    // Clip
    if ((x < 0) || (y < 0) || (x >= lcdProperties.width) || (y >= lcdProperties.height))
 8002cd6:	4b0c      	ldr	r3, [pc, #48]	@ (8002d08 <lcdDrawPixel+0x44>)
 8002cd8:	881b      	ldrh	r3, [r3, #0]
 8002cda:	88fa      	ldrh	r2, [r7, #6]
 8002cdc:	429a      	cmp	r2, r3
 8002cde:	d20f      	bcs.n	8002d00 <lcdDrawPixel+0x3c>
 8002ce0:	4b09      	ldr	r3, [pc, #36]	@ (8002d08 <lcdDrawPixel+0x44>)
 8002ce2:	885b      	ldrh	r3, [r3, #2]
 8002ce4:	88ba      	ldrh	r2, [r7, #4]
 8002ce6:	429a      	cmp	r2, r3
 8002ce8:	d20a      	bcs.n	8002d00 <lcdDrawPixel+0x3c>
        return;

    lcdSetWindow(x, y, x, y);
 8002cea:	88bb      	ldrh	r3, [r7, #4]
 8002cec:	88fa      	ldrh	r2, [r7, #6]
 8002cee:	88b9      	ldrh	r1, [r7, #4]
 8002cf0:	88f8      	ldrh	r0, [r7, #6]
 8002cf2:	f000 ff71 	bl	8003bd8 <lcdSetWindow>
    lcdWriteData(color);
 8002cf6:	887b      	ldrh	r3, [r7, #2]
 8002cf8:	4618      	mov	r0, r3
 8002cfa:	f000 ffff 	bl	8003cfc <lcdWriteData>
 8002cfe:	e000      	b.n	8002d02 <lcdDrawPixel+0x3e>
        return;
 8002d00:	bf00      	nop
}
 8002d02:	3708      	adds	r7, #8
 8002d04:	46bd      	mov	sp, r7
 8002d06:	bd80      	pop	{r7, pc}
 8002d08:	20000024 	.word	0x20000024

08002d0c <lcdDrawHLine>:

void lcdDrawHLine(uint16_t x0, uint16_t x1, uint16_t y, uint16_t color)
{
 8002d0c:	b590      	push	{r4, r7, lr}
 8002d0e:	b085      	sub	sp, #20
 8002d10:	af00      	add	r7, sp, #0
 8002d12:	4604      	mov	r4, r0
 8002d14:	4608      	mov	r0, r1
 8002d16:	4611      	mov	r1, r2
 8002d18:	461a      	mov	r2, r3
 8002d1a:	4623      	mov	r3, r4
 8002d1c:	80fb      	strh	r3, [r7, #6]
 8002d1e:	4603      	mov	r3, r0
 8002d20:	80bb      	strh	r3, [r7, #4]
 8002d22:	460b      	mov	r3, r1
 8002d24:	807b      	strh	r3, [r7, #2]
 8002d26:	4613      	mov	r3, r2
 8002d28:	803b      	strh	r3, [r7, #0]
  // Allows for slightly better performance than setting individual pixels

	if (x1 < x0)
 8002d2a:	88ba      	ldrh	r2, [r7, #4]
 8002d2c:	88fb      	ldrh	r3, [r7, #6]
 8002d2e:	429a      	cmp	r2, r3
 8002d30:	d205      	bcs.n	8002d3e <lcdDrawHLine+0x32>
	{
		// Switch x1 and x0
		swap(x0, x1);
 8002d32:	88fb      	ldrh	r3, [r7, #6]
 8002d34:	817b      	strh	r3, [r7, #10]
 8002d36:	88bb      	ldrh	r3, [r7, #4]
 8002d38:	80fb      	strh	r3, [r7, #6]
 8002d3a:	897b      	ldrh	r3, [r7, #10]
 8002d3c:	80bb      	strh	r3, [r7, #4]
	}

	// Check limits
	if (x1 >= lcdProperties.width)
 8002d3e:	4b15      	ldr	r3, [pc, #84]	@ (8002d94 <lcdDrawHLine+0x88>)
 8002d40:	881b      	ldrh	r3, [r3, #0]
 8002d42:	88ba      	ldrh	r2, [r7, #4]
 8002d44:	429a      	cmp	r2, r3
 8002d46:	d303      	bcc.n	8002d50 <lcdDrawHLine+0x44>
	{
		x1 = lcdProperties.width - 1;
 8002d48:	4b12      	ldr	r3, [pc, #72]	@ (8002d94 <lcdDrawHLine+0x88>)
 8002d4a:	881b      	ldrh	r3, [r3, #0]
 8002d4c:	3b01      	subs	r3, #1
 8002d4e:	80bb      	strh	r3, [r7, #4]
	}

	if (x0 >= lcdProperties.width)
 8002d50:	4b10      	ldr	r3, [pc, #64]	@ (8002d94 <lcdDrawHLine+0x88>)
 8002d52:	881b      	ldrh	r3, [r3, #0]
 8002d54:	88fa      	ldrh	r2, [r7, #6]
 8002d56:	429a      	cmp	r2, r3
 8002d58:	d303      	bcc.n	8002d62 <lcdDrawHLine+0x56>
	{
		x0 = lcdProperties.width - 1;
 8002d5a:	4b0e      	ldr	r3, [pc, #56]	@ (8002d94 <lcdDrawHLine+0x88>)
 8002d5c:	881b      	ldrh	r3, [r3, #0]
 8002d5e:	3b01      	subs	r3, #1
 8002d60:	80fb      	strh	r3, [r7, #6]
	}

	lcdSetWindow(x0, y, x1, y);
 8002d62:	887b      	ldrh	r3, [r7, #2]
 8002d64:	88ba      	ldrh	r2, [r7, #4]
 8002d66:	8879      	ldrh	r1, [r7, #2]
 8002d68:	88f8      	ldrh	r0, [r7, #6]
 8002d6a:	f000 ff35 	bl	8003bd8 <lcdSetWindow>

	for (int line = x0; line <= x1; line++)
 8002d6e:	88fb      	ldrh	r3, [r7, #6]
 8002d70:	60fb      	str	r3, [r7, #12]
 8002d72:	e006      	b.n	8002d82 <lcdDrawHLine+0x76>
	{
		lcdWriteData(color);
 8002d74:	883b      	ldrh	r3, [r7, #0]
 8002d76:	4618      	mov	r0, r3
 8002d78:	f000 ffc0 	bl	8003cfc <lcdWriteData>
	for (int line = x0; line <= x1; line++)
 8002d7c:	68fb      	ldr	r3, [r7, #12]
 8002d7e:	3301      	adds	r3, #1
 8002d80:	60fb      	str	r3, [r7, #12]
 8002d82:	88bb      	ldrh	r3, [r7, #4]
 8002d84:	68fa      	ldr	r2, [r7, #12]
 8002d86:	429a      	cmp	r2, r3
 8002d88:	ddf4      	ble.n	8002d74 <lcdDrawHLine+0x68>
	}
}
 8002d8a:	bf00      	nop
 8002d8c:	bf00      	nop
 8002d8e:	3714      	adds	r7, #20
 8002d90:	46bd      	mov	sp, r7
 8002d92:	bd90      	pop	{r4, r7, pc}
 8002d94:	20000024 	.word	0x20000024

08002d98 <lcdDrawVLine>:

void lcdDrawVLine(uint16_t x, uint16_t y0, uint16_t y1, uint16_t color)
{
 8002d98:	b590      	push	{r4, r7, lr}
 8002d9a:	b085      	sub	sp, #20
 8002d9c:	af00      	add	r7, sp, #0
 8002d9e:	4604      	mov	r4, r0
 8002da0:	4608      	mov	r0, r1
 8002da2:	4611      	mov	r1, r2
 8002da4:	461a      	mov	r2, r3
 8002da6:	4623      	mov	r3, r4
 8002da8:	80fb      	strh	r3, [r7, #6]
 8002daa:	4603      	mov	r3, r0
 8002dac:	80bb      	strh	r3, [r7, #4]
 8002dae:	460b      	mov	r3, r1
 8002db0:	807b      	strh	r3, [r7, #2]
 8002db2:	4613      	mov	r3, r2
 8002db4:	803b      	strh	r3, [r7, #0]
  if (y1 < y0)
 8002db6:	887a      	ldrh	r2, [r7, #2]
 8002db8:	88bb      	ldrh	r3, [r7, #4]
 8002dba:	429a      	cmp	r2, r3
 8002dbc:	d205      	bcs.n	8002dca <lcdDrawVLine+0x32>
  {
	  swap(y0, y1);
 8002dbe:	88bb      	ldrh	r3, [r7, #4]
 8002dc0:	817b      	strh	r3, [r7, #10]
 8002dc2:	887b      	ldrh	r3, [r7, #2]
 8002dc4:	80bb      	strh	r3, [r7, #4]
 8002dc6:	897b      	ldrh	r3, [r7, #10]
 8002dc8:	807b      	strh	r3, [r7, #2]
  }

  if (x >= lcdProperties.width)
 8002dca:	4b1a      	ldr	r3, [pc, #104]	@ (8002e34 <lcdDrawVLine+0x9c>)
 8002dcc:	881b      	ldrh	r3, [r3, #0]
 8002dce:	88fa      	ldrh	r2, [r7, #6]
 8002dd0:	429a      	cmp	r2, r3
 8002dd2:	d303      	bcc.n	8002ddc <lcdDrawVLine+0x44>
  {
    x = lcdProperties.width - 1;
 8002dd4:	4b17      	ldr	r3, [pc, #92]	@ (8002e34 <lcdDrawVLine+0x9c>)
 8002dd6:	881b      	ldrh	r3, [r3, #0]
 8002dd8:	3b01      	subs	r3, #1
 8002dda:	80fb      	strh	r3, [r7, #6]
  }

  if (y0 >= lcdProperties.height)
 8002ddc:	4b15      	ldr	r3, [pc, #84]	@ (8002e34 <lcdDrawVLine+0x9c>)
 8002dde:	885b      	ldrh	r3, [r3, #2]
 8002de0:	88ba      	ldrh	r2, [r7, #4]
 8002de2:	429a      	cmp	r2, r3
 8002de4:	d303      	bcc.n	8002dee <lcdDrawVLine+0x56>
  {
    y0 = lcdProperties.height - 1;
 8002de6:	4b13      	ldr	r3, [pc, #76]	@ (8002e34 <lcdDrawVLine+0x9c>)
 8002de8:	885b      	ldrh	r3, [r3, #2]
 8002dea:	3b01      	subs	r3, #1
 8002dec:	80bb      	strh	r3, [r7, #4]
  }

  if (y1 >= lcdProperties.height)
 8002dee:	4b11      	ldr	r3, [pc, #68]	@ (8002e34 <lcdDrawVLine+0x9c>)
 8002df0:	885b      	ldrh	r3, [r3, #2]
 8002df2:	887a      	ldrh	r2, [r7, #2]
 8002df4:	429a      	cmp	r2, r3
 8002df6:	d303      	bcc.n	8002e00 <lcdDrawVLine+0x68>
  {
    y1 = lcdProperties.height - 1;
 8002df8:	4b0e      	ldr	r3, [pc, #56]	@ (8002e34 <lcdDrawVLine+0x9c>)
 8002dfa:	885b      	ldrh	r3, [r3, #2]
 8002dfc:	3b01      	subs	r3, #1
 8002dfe:	807b      	strh	r3, [r7, #2]
  }

  lcdSetWindow(x, y0, x, y1);
 8002e00:	887b      	ldrh	r3, [r7, #2]
 8002e02:	88fa      	ldrh	r2, [r7, #6]
 8002e04:	88b9      	ldrh	r1, [r7, #4]
 8002e06:	88f8      	ldrh	r0, [r7, #6]
 8002e08:	f000 fee6 	bl	8003bd8 <lcdSetWindow>

  for(int line = y0; line <= y1; line++)
 8002e0c:	88bb      	ldrh	r3, [r7, #4]
 8002e0e:	60fb      	str	r3, [r7, #12]
 8002e10:	e006      	b.n	8002e20 <lcdDrawVLine+0x88>
  {
	  lcdWriteData(color);
 8002e12:	883b      	ldrh	r3, [r7, #0]
 8002e14:	4618      	mov	r0, r3
 8002e16:	f000 ff71 	bl	8003cfc <lcdWriteData>
  for(int line = y0; line <= y1; line++)
 8002e1a:	68fb      	ldr	r3, [r7, #12]
 8002e1c:	3301      	adds	r3, #1
 8002e1e:	60fb      	str	r3, [r7, #12]
 8002e20:	887b      	ldrh	r3, [r7, #2]
 8002e22:	68fa      	ldr	r2, [r7, #12]
 8002e24:	429a      	cmp	r2, r3
 8002e26:	ddf4      	ble.n	8002e12 <lcdDrawVLine+0x7a>
  }
}
 8002e28:	bf00      	nop
 8002e2a:	bf00      	nop
 8002e2c:	3714      	adds	r7, #20
 8002e2e:	46bd      	mov	sp, r7
 8002e30:	bd90      	pop	{r4, r7, pc}
 8002e32:	bf00      	nop
 8002e34:	20000024 	.word	0x20000024

08002e38 <lcdDrawLine>:
 * \param color	Color
 *
 * \return void
 */
void lcdDrawLine(int16_t x1, int16_t y1, int16_t x2, int16_t y2, uint16_t color)
{
 8002e38:	b590      	push	{r4, r7, lr}
 8002e3a:	b089      	sub	sp, #36	@ 0x24
 8002e3c:	af00      	add	r7, sp, #0
 8002e3e:	4604      	mov	r4, r0
 8002e40:	4608      	mov	r0, r1
 8002e42:	4611      	mov	r1, r2
 8002e44:	461a      	mov	r2, r3
 8002e46:	4623      	mov	r3, r4
 8002e48:	80fb      	strh	r3, [r7, #6]
 8002e4a:	4603      	mov	r3, r0
 8002e4c:	80bb      	strh	r3, [r7, #4]
 8002e4e:	460b      	mov	r3, r1
 8002e50:	807b      	strh	r3, [r7, #2]
 8002e52:	4613      	mov	r3, r2
 8002e54:	803b      	strh	r3, [r7, #0]
	// Bresenham's algorithm - thx wikpedia

	int16_t steep = abs(y2 - y1) > abs(x2 - x1);
 8002e56:	f9b7 2000 	ldrsh.w	r2, [r7]
 8002e5a:	f9b7 3004 	ldrsh.w	r3, [r7, #4]
 8002e5e:	1ad3      	subs	r3, r2, r3
 8002e60:	ea83 72e3 	eor.w	r2, r3, r3, asr #31
 8002e64:	eba2 72e3 	sub.w	r2, r2, r3, asr #31
 8002e68:	f9b7 1002 	ldrsh.w	r1, [r7, #2]
 8002e6c:	f9b7 3006 	ldrsh.w	r3, [r7, #6]
 8002e70:	1acb      	subs	r3, r1, r3
 8002e72:	2b00      	cmp	r3, #0
 8002e74:	bfb8      	it	lt
 8002e76:	425b      	neglt	r3, r3
 8002e78:	429a      	cmp	r2, r3
 8002e7a:	bfcc      	ite	gt
 8002e7c:	2301      	movgt	r3, #1
 8002e7e:	2300      	movle	r3, #0
 8002e80:	b2db      	uxtb	r3, r3
 8002e82:	837b      	strh	r3, [r7, #26]
	if (steep)
 8002e84:	f9b7 301a 	ldrsh.w	r3, [r7, #26]
 8002e88:	2b00      	cmp	r3, #0
 8002e8a:	d00b      	beq.n	8002ea4 <lcdDrawLine+0x6c>
	{
		swap(x1, y1);
 8002e8c:	88fb      	ldrh	r3, [r7, #6]
 8002e8e:	833b      	strh	r3, [r7, #24]
 8002e90:	88bb      	ldrh	r3, [r7, #4]
 8002e92:	80fb      	strh	r3, [r7, #6]
 8002e94:	8b3b      	ldrh	r3, [r7, #24]
 8002e96:	80bb      	strh	r3, [r7, #4]
		swap(x2, y2);
 8002e98:	887b      	ldrh	r3, [r7, #2]
 8002e9a:	82fb      	strh	r3, [r7, #22]
 8002e9c:	883b      	ldrh	r3, [r7, #0]
 8002e9e:	807b      	strh	r3, [r7, #2]
 8002ea0:	8afb      	ldrh	r3, [r7, #22]
 8002ea2:	803b      	strh	r3, [r7, #0]
	}

	if (x1 > x2)
 8002ea4:	f9b7 2006 	ldrsh.w	r2, [r7, #6]
 8002ea8:	f9b7 3002 	ldrsh.w	r3, [r7, #2]
 8002eac:	429a      	cmp	r2, r3
 8002eae:	dd0b      	ble.n	8002ec8 <lcdDrawLine+0x90>
	{
		swap(x1, x2);
 8002eb0:	88fb      	ldrh	r3, [r7, #6]
 8002eb2:	82bb      	strh	r3, [r7, #20]
 8002eb4:	887b      	ldrh	r3, [r7, #2]
 8002eb6:	80fb      	strh	r3, [r7, #6]
 8002eb8:	8abb      	ldrh	r3, [r7, #20]
 8002eba:	807b      	strh	r3, [r7, #2]
		swap(y1, y2);
 8002ebc:	88bb      	ldrh	r3, [r7, #4]
 8002ebe:	827b      	strh	r3, [r7, #18]
 8002ec0:	883b      	ldrh	r3, [r7, #0]
 8002ec2:	80bb      	strh	r3, [r7, #4]
 8002ec4:	8a7b      	ldrh	r3, [r7, #18]
 8002ec6:	803b      	strh	r3, [r7, #0]
	}

	int16_t dx, dy;
	dx = x2 - x1;
 8002ec8:	887a      	ldrh	r2, [r7, #2]
 8002eca:	88fb      	ldrh	r3, [r7, #6]
 8002ecc:	1ad3      	subs	r3, r2, r3
 8002ece:	b29b      	uxth	r3, r3
 8002ed0:	823b      	strh	r3, [r7, #16]
	dy = abs(y2 - y1);
 8002ed2:	f9b7 2000 	ldrsh.w	r2, [r7]
 8002ed6:	f9b7 3004 	ldrsh.w	r3, [r7, #4]
 8002eda:	1ad3      	subs	r3, r2, r3
 8002edc:	2b00      	cmp	r3, #0
 8002ede:	bfb8      	it	lt
 8002ee0:	425b      	neglt	r3, r3
 8002ee2:	81fb      	strh	r3, [r7, #14]

	int16_t err = dx / 2;
 8002ee4:	f9b7 3010 	ldrsh.w	r3, [r7, #16]
 8002ee8:	0fda      	lsrs	r2, r3, #31
 8002eea:	4413      	add	r3, r2
 8002eec:	105b      	asrs	r3, r3, #1
 8002eee:	83fb      	strh	r3, [r7, #30]
	int16_t ystep;

	if (y1 < y2)
 8002ef0:	f9b7 2004 	ldrsh.w	r2, [r7, #4]
 8002ef4:	f9b7 3000 	ldrsh.w	r3, [r7]
 8002ef8:	429a      	cmp	r2, r3
 8002efa:	da02      	bge.n	8002f02 <lcdDrawLine+0xca>
	{
		ystep = 1;
 8002efc:	2301      	movs	r3, #1
 8002efe:	83bb      	strh	r3, [r7, #28]
 8002f00:	e02d      	b.n	8002f5e <lcdDrawLine+0x126>
	}
	else
	{
		ystep = -1;
 8002f02:	f64f 73ff 	movw	r3, #65535	@ 0xffff
 8002f06:	83bb      	strh	r3, [r7, #28]
	}

	for (; x1 <= x2; x1++)
 8002f08:	e029      	b.n	8002f5e <lcdDrawLine+0x126>
	{
		if (steep)
 8002f0a:	f9b7 301a 	ldrsh.w	r3, [r7, #26]
 8002f0e:	2b00      	cmp	r3, #0
 8002f10:	d006      	beq.n	8002f20 <lcdDrawLine+0xe8>
		{
			lcdDrawPixel(y1, x1, color);
 8002f12:	88bb      	ldrh	r3, [r7, #4]
 8002f14:	88f9      	ldrh	r1, [r7, #6]
 8002f16:	8e3a      	ldrh	r2, [r7, #48]	@ 0x30
 8002f18:	4618      	mov	r0, r3
 8002f1a:	f7ff fed3 	bl	8002cc4 <lcdDrawPixel>
 8002f1e:	e005      	b.n	8002f2c <lcdDrawLine+0xf4>
		}
		else
		{
			lcdDrawPixel(x1, y1, color);
 8002f20:	88fb      	ldrh	r3, [r7, #6]
 8002f22:	88b9      	ldrh	r1, [r7, #4]
 8002f24:	8e3a      	ldrh	r2, [r7, #48]	@ 0x30
 8002f26:	4618      	mov	r0, r3
 8002f28:	f7ff fecc 	bl	8002cc4 <lcdDrawPixel>
		}
		err -= dy;
 8002f2c:	8bfa      	ldrh	r2, [r7, #30]
 8002f2e:	89fb      	ldrh	r3, [r7, #14]
 8002f30:	1ad3      	subs	r3, r2, r3
 8002f32:	b29b      	uxth	r3, r3
 8002f34:	83fb      	strh	r3, [r7, #30]
		if (err < 0)
 8002f36:	f9b7 301e 	ldrsh.w	r3, [r7, #30]
 8002f3a:	2b00      	cmp	r3, #0
 8002f3c:	da09      	bge.n	8002f52 <lcdDrawLine+0x11a>
		{
			y1 += ystep;
 8002f3e:	88ba      	ldrh	r2, [r7, #4]
 8002f40:	8bbb      	ldrh	r3, [r7, #28]
 8002f42:	4413      	add	r3, r2
 8002f44:	b29b      	uxth	r3, r3
 8002f46:	80bb      	strh	r3, [r7, #4]
			err += dx;
 8002f48:	8bfa      	ldrh	r2, [r7, #30]
 8002f4a:	8a3b      	ldrh	r3, [r7, #16]
 8002f4c:	4413      	add	r3, r2
 8002f4e:	b29b      	uxth	r3, r3
 8002f50:	83fb      	strh	r3, [r7, #30]
	for (; x1 <= x2; x1++)
 8002f52:	f9b7 3006 	ldrsh.w	r3, [r7, #6]
 8002f56:	b29b      	uxth	r3, r3
 8002f58:	3301      	adds	r3, #1
 8002f5a:	b29b      	uxth	r3, r3
 8002f5c:	80fb      	strh	r3, [r7, #6]
 8002f5e:	f9b7 2006 	ldrsh.w	r2, [r7, #6]
 8002f62:	f9b7 3002 	ldrsh.w	r3, [r7, #2]
 8002f66:	429a      	cmp	r2, r3
 8002f68:	ddcf      	ble.n	8002f0a <lcdDrawLine+0xd2>
		}
	}
}
 8002f6a:	bf00      	nop
 8002f6c:	bf00      	nop
 8002f6e:	3724      	adds	r7, #36	@ 0x24
 8002f70:	46bd      	mov	sp, r7
 8002f72:	bd90      	pop	{r4, r7, pc}

08002f74 <lcdFillCircle>:
 * \param color		Color
 *
 * \return void
 */
void lcdFillCircle(int16_t x0, int16_t y0, int16_t r, uint16_t color)
{
 8002f74:	b590      	push	{r4, r7, lr}
 8002f76:	b085      	sub	sp, #20
 8002f78:	af02      	add	r7, sp, #8
 8002f7a:	4604      	mov	r4, r0
 8002f7c:	4608      	mov	r0, r1
 8002f7e:	4611      	mov	r1, r2
 8002f80:	461a      	mov	r2, r3
 8002f82:	4623      	mov	r3, r4
 8002f84:	80fb      	strh	r3, [r7, #6]
 8002f86:	4603      	mov	r3, r0
 8002f88:	80bb      	strh	r3, [r7, #4]
 8002f8a:	460b      	mov	r3, r1
 8002f8c:	807b      	strh	r3, [r7, #2]
 8002f8e:	4613      	mov	r3, r2
 8002f90:	803b      	strh	r3, [r7, #0]
	lcdDrawVLine(x0, y0 - r, y0 + r + 1, color);
 8002f92:	88f8      	ldrh	r0, [r7, #6]
 8002f94:	88ba      	ldrh	r2, [r7, #4]
 8002f96:	887b      	ldrh	r3, [r7, #2]
 8002f98:	1ad3      	subs	r3, r2, r3
 8002f9a:	b299      	uxth	r1, r3
 8002f9c:	88ba      	ldrh	r2, [r7, #4]
 8002f9e:	887b      	ldrh	r3, [r7, #2]
 8002fa0:	4413      	add	r3, r2
 8002fa2:	b29b      	uxth	r3, r3
 8002fa4:	3301      	adds	r3, #1
 8002fa6:	b29a      	uxth	r2, r3
 8002fa8:	883b      	ldrh	r3, [r7, #0]
 8002faa:	f7ff fef5 	bl	8002d98 <lcdDrawVLine>
	lcdFillCircleHelper(x0, y0, r, 3, 0, color);
 8002fae:	f9b7 2002 	ldrsh.w	r2, [r7, #2]
 8002fb2:	f9b7 1004 	ldrsh.w	r1, [r7, #4]
 8002fb6:	f9b7 0006 	ldrsh.w	r0, [r7, #6]
 8002fba:	883b      	ldrh	r3, [r7, #0]
 8002fbc:	9301      	str	r3, [sp, #4]
 8002fbe:	2300      	movs	r3, #0
 8002fc0:	9300      	str	r3, [sp, #0]
 8002fc2:	2303      	movs	r3, #3
 8002fc4:	f000 f804 	bl	8002fd0 <lcdFillCircleHelper>
}
 8002fc8:	bf00      	nop
 8002fca:	370c      	adds	r7, #12
 8002fcc:	46bd      	mov	sp, r7
 8002fce:	bd90      	pop	{r4, r7, pc}

08002fd0 <lcdFillCircleHelper>:
 * \param color			Color
 *
 * \return void
 */
void lcdFillCircleHelper(int16_t x0, int16_t y0, int16_t r, uint8_t cornername, int16_t delta, uint16_t color)
{
 8002fd0:	b590      	push	{r4, r7, lr}
 8002fd2:	b087      	sub	sp, #28
 8002fd4:	af00      	add	r7, sp, #0
 8002fd6:	4604      	mov	r4, r0
 8002fd8:	4608      	mov	r0, r1
 8002fda:	4611      	mov	r1, r2
 8002fdc:	461a      	mov	r2, r3
 8002fde:	4623      	mov	r3, r4
 8002fe0:	80fb      	strh	r3, [r7, #6]
 8002fe2:	4603      	mov	r3, r0
 8002fe4:	80bb      	strh	r3, [r7, #4]
 8002fe6:	460b      	mov	r3, r1
 8002fe8:	807b      	strh	r3, [r7, #2]
 8002fea:	4613      	mov	r3, r2
 8002fec:	707b      	strb	r3, [r7, #1]
	int16_t f = 1 - r;
 8002fee:	887b      	ldrh	r3, [r7, #2]
 8002ff0:	f1c3 0301 	rsb	r3, r3, #1
 8002ff4:	b29b      	uxth	r3, r3
 8002ff6:	82fb      	strh	r3, [r7, #22]
	int16_t ddF_x = 1;
 8002ff8:	2301      	movs	r3, #1
 8002ffa:	82bb      	strh	r3, [r7, #20]
	int16_t ddF_y = -2 * r;
 8002ffc:	887b      	ldrh	r3, [r7, #2]
 8002ffe:	461a      	mov	r2, r3
 8003000:	03d2      	lsls	r2, r2, #15
 8003002:	1ad3      	subs	r3, r2, r3
 8003004:	005b      	lsls	r3, r3, #1
 8003006:	b29b      	uxth	r3, r3
 8003008:	827b      	strh	r3, [r7, #18]
	int16_t x = 0;
 800300a:	2300      	movs	r3, #0
 800300c:	823b      	strh	r3, [r7, #16]
	int16_t y = r;
 800300e:	887b      	ldrh	r3, [r7, #2]
 8003010:	81fb      	strh	r3, [r7, #14]

	while (x < y)
 8003012:	e07b      	b.n	800310c <lcdFillCircleHelper+0x13c>
	{
		if (f >= 0)
 8003014:	f9b7 3016 	ldrsh.w	r3, [r7, #22]
 8003018:	2b00      	cmp	r3, #0
 800301a:	db0e      	blt.n	800303a <lcdFillCircleHelper+0x6a>
		{
			y--;
 800301c:	f9b7 300e 	ldrsh.w	r3, [r7, #14]
 8003020:	b29b      	uxth	r3, r3
 8003022:	3b01      	subs	r3, #1
 8003024:	b29b      	uxth	r3, r3
 8003026:	81fb      	strh	r3, [r7, #14]
			ddF_y += 2;
 8003028:	8a7b      	ldrh	r3, [r7, #18]
 800302a:	3302      	adds	r3, #2
 800302c:	b29b      	uxth	r3, r3
 800302e:	827b      	strh	r3, [r7, #18]
			f += ddF_y;
 8003030:	8afa      	ldrh	r2, [r7, #22]
 8003032:	8a7b      	ldrh	r3, [r7, #18]
 8003034:	4413      	add	r3, r2
 8003036:	b29b      	uxth	r3, r3
 8003038:	82fb      	strh	r3, [r7, #22]
		}
		x++;
 800303a:	f9b7 3010 	ldrsh.w	r3, [r7, #16]
 800303e:	b29b      	uxth	r3, r3
 8003040:	3301      	adds	r3, #1
 8003042:	b29b      	uxth	r3, r3
 8003044:	823b      	strh	r3, [r7, #16]
		ddF_x += 2;
 8003046:	8abb      	ldrh	r3, [r7, #20]
 8003048:	3302      	adds	r3, #2
 800304a:	b29b      	uxth	r3, r3
 800304c:	82bb      	strh	r3, [r7, #20]
		f += ddF_x;
 800304e:	8afa      	ldrh	r2, [r7, #22]
 8003050:	8abb      	ldrh	r3, [r7, #20]
 8003052:	4413      	add	r3, r2
 8003054:	b29b      	uxth	r3, r3
 8003056:	82fb      	strh	r3, [r7, #22]

		if (cornername & 0x1)
 8003058:	787b      	ldrb	r3, [r7, #1]
 800305a:	f003 0301 	and.w	r3, r3, #1
 800305e:	2b00      	cmp	r3, #0
 8003060:	d027      	beq.n	80030b2 <lcdFillCircleHelper+0xe2>
		{
			lcdDrawVLine(x0 + x, y0 - y, y0 + y + 1 + delta, color);
 8003062:	88fa      	ldrh	r2, [r7, #6]
 8003064:	8a3b      	ldrh	r3, [r7, #16]
 8003066:	4413      	add	r3, r2
 8003068:	b298      	uxth	r0, r3
 800306a:	88ba      	ldrh	r2, [r7, #4]
 800306c:	89fb      	ldrh	r3, [r7, #14]
 800306e:	1ad3      	subs	r3, r2, r3
 8003070:	b299      	uxth	r1, r3
 8003072:	88ba      	ldrh	r2, [r7, #4]
 8003074:	89fb      	ldrh	r3, [r7, #14]
 8003076:	4413      	add	r3, r2
 8003078:	b29a      	uxth	r2, r3
 800307a:	8d3b      	ldrh	r3, [r7, #40]	@ 0x28
 800307c:	4413      	add	r3, r2
 800307e:	b29b      	uxth	r3, r3
 8003080:	3301      	adds	r3, #1
 8003082:	b29a      	uxth	r2, r3
 8003084:	8dbb      	ldrh	r3, [r7, #44]	@ 0x2c
 8003086:	f7ff fe87 	bl	8002d98 <lcdDrawVLine>
			lcdDrawVLine(x0 + y, y0 - x, y0 + x + 1 + delta, color);
 800308a:	88fa      	ldrh	r2, [r7, #6]
 800308c:	89fb      	ldrh	r3, [r7, #14]
 800308e:	4413      	add	r3, r2
 8003090:	b298      	uxth	r0, r3
 8003092:	88ba      	ldrh	r2, [r7, #4]
 8003094:	8a3b      	ldrh	r3, [r7, #16]
 8003096:	1ad3      	subs	r3, r2, r3
 8003098:	b299      	uxth	r1, r3
 800309a:	88ba      	ldrh	r2, [r7, #4]
 800309c:	8a3b      	ldrh	r3, [r7, #16]
 800309e:	4413      	add	r3, r2
 80030a0:	b29a      	uxth	r2, r3
 80030a2:	8d3b      	ldrh	r3, [r7, #40]	@ 0x28
 80030a4:	4413      	add	r3, r2
 80030a6:	b29b      	uxth	r3, r3
 80030a8:	3301      	adds	r3, #1
 80030aa:	b29a      	uxth	r2, r3
 80030ac:	8dbb      	ldrh	r3, [r7, #44]	@ 0x2c
 80030ae:	f7ff fe73 	bl	8002d98 <lcdDrawVLine>
		}
		if (cornername & 0x2)
 80030b2:	787b      	ldrb	r3, [r7, #1]
 80030b4:	f003 0302 	and.w	r3, r3, #2
 80030b8:	2b00      	cmp	r3, #0
 80030ba:	d027      	beq.n	800310c <lcdFillCircleHelper+0x13c>
		{
			lcdDrawVLine(x0 - x, y0 - y, y0 + y + 1 + delta, color);
 80030bc:	88fa      	ldrh	r2, [r7, #6]
 80030be:	8a3b      	ldrh	r3, [r7, #16]
 80030c0:	1ad3      	subs	r3, r2, r3
 80030c2:	b298      	uxth	r0, r3
 80030c4:	88ba      	ldrh	r2, [r7, #4]
 80030c6:	89fb      	ldrh	r3, [r7, #14]
 80030c8:	1ad3      	subs	r3, r2, r3
 80030ca:	b299      	uxth	r1, r3
 80030cc:	88ba      	ldrh	r2, [r7, #4]
 80030ce:	89fb      	ldrh	r3, [r7, #14]
 80030d0:	4413      	add	r3, r2
 80030d2:	b29a      	uxth	r2, r3
 80030d4:	8d3b      	ldrh	r3, [r7, #40]	@ 0x28
 80030d6:	4413      	add	r3, r2
 80030d8:	b29b      	uxth	r3, r3
 80030da:	3301      	adds	r3, #1
 80030dc:	b29a      	uxth	r2, r3
 80030de:	8dbb      	ldrh	r3, [r7, #44]	@ 0x2c
 80030e0:	f7ff fe5a 	bl	8002d98 <lcdDrawVLine>
			lcdDrawVLine(x0 - y, y0 - x, y0 + x + 1 + delta, color);
 80030e4:	88fa      	ldrh	r2, [r7, #6]
 80030e6:	89fb      	ldrh	r3, [r7, #14]
 80030e8:	1ad3      	subs	r3, r2, r3
 80030ea:	b298      	uxth	r0, r3
 80030ec:	88ba      	ldrh	r2, [r7, #4]
 80030ee:	8a3b      	ldrh	r3, [r7, #16]
 80030f0:	1ad3      	subs	r3, r2, r3
 80030f2:	b299      	uxth	r1, r3
 80030f4:	88ba      	ldrh	r2, [r7, #4]
 80030f6:	8a3b      	ldrh	r3, [r7, #16]
 80030f8:	4413      	add	r3, r2
 80030fa:	b29a      	uxth	r2, r3
 80030fc:	8d3b      	ldrh	r3, [r7, #40]	@ 0x28
 80030fe:	4413      	add	r3, r2
 8003100:	b29b      	uxth	r3, r3
 8003102:	3301      	adds	r3, #1
 8003104:	b29a      	uxth	r2, r3
 8003106:	8dbb      	ldrh	r3, [r7, #44]	@ 0x2c
 8003108:	f7ff fe46 	bl	8002d98 <lcdDrawVLine>
	while (x < y)
 800310c:	f9b7 2010 	ldrsh.w	r2, [r7, #16]
 8003110:	f9b7 300e 	ldrsh.w	r3, [r7, #14]
 8003114:	429a      	cmp	r2, r3
 8003116:	f6ff af7d 	blt.w	8003014 <lcdFillCircleHelper+0x44>
		}
	}
}
 800311a:	bf00      	nop
 800311c:	bf00      	nop
 800311e:	371c      	adds	r7, #28
 8003120:	46bd      	mov	sp, r7
 8003122:	bd90      	pop	{r4, r7, pc}

08003124 <lcdFillRect>:
 * \param fillcolor		Color
 *
 * \return void
 */
void lcdFillRect(int16_t x, int16_t y, int16_t w, int16_t h, uint16_t fillcolor)
{
 8003124:	b590      	push	{r4, r7, lr}
 8003126:	b085      	sub	sp, #20
 8003128:	af00      	add	r7, sp, #0
 800312a:	4604      	mov	r4, r0
 800312c:	4608      	mov	r0, r1
 800312e:	4611      	mov	r1, r2
 8003130:	461a      	mov	r2, r3
 8003132:	4623      	mov	r3, r4
 8003134:	80fb      	strh	r3, [r7, #6]
 8003136:	4603      	mov	r3, r0
 8003138:	80bb      	strh	r3, [r7, #4]
 800313a:	460b      	mov	r3, r1
 800313c:	807b      	strh	r3, [r7, #2]
 800313e:	4613      	mov	r3, r2
 8003140:	803b      	strh	r3, [r7, #0]
	// clipping
	if((x >= lcdProperties.width) || (y >= lcdProperties.height)) return;
 8003142:	f9b7 3006 	ldrsh.w	r3, [r7, #6]
 8003146:	4a24      	ldr	r2, [pc, #144]	@ (80031d8 <lcdFillRect+0xb4>)
 8003148:	8812      	ldrh	r2, [r2, #0]
 800314a:	4293      	cmp	r3, r2
 800314c:	da3f      	bge.n	80031ce <lcdFillRect+0xaa>
 800314e:	f9b7 3004 	ldrsh.w	r3, [r7, #4]
 8003152:	4a21      	ldr	r2, [pc, #132]	@ (80031d8 <lcdFillRect+0xb4>)
 8003154:	8852      	ldrh	r2, [r2, #2]
 8003156:	4293      	cmp	r3, r2
 8003158:	da39      	bge.n	80031ce <lcdFillRect+0xaa>
	if((x + w - 1) >= lcdProperties.width) w = lcdProperties.width - x;
 800315a:	f9b7 2006 	ldrsh.w	r2, [r7, #6]
 800315e:	f9b7 3002 	ldrsh.w	r3, [r7, #2]
 8003162:	4413      	add	r3, r2
 8003164:	4a1c      	ldr	r2, [pc, #112]	@ (80031d8 <lcdFillRect+0xb4>)
 8003166:	8812      	ldrh	r2, [r2, #0]
 8003168:	4293      	cmp	r3, r2
 800316a:	dd05      	ble.n	8003178 <lcdFillRect+0x54>
 800316c:	4b1a      	ldr	r3, [pc, #104]	@ (80031d8 <lcdFillRect+0xb4>)
 800316e:	881a      	ldrh	r2, [r3, #0]
 8003170:	88fb      	ldrh	r3, [r7, #6]
 8003172:	1ad3      	subs	r3, r2, r3
 8003174:	b29b      	uxth	r3, r3
 8003176:	807b      	strh	r3, [r7, #2]
	if((y + h - 1) >= lcdProperties.height) h = lcdProperties.height - y;
 8003178:	f9b7 2004 	ldrsh.w	r2, [r7, #4]
 800317c:	f9b7 3000 	ldrsh.w	r3, [r7]
 8003180:	4413      	add	r3, r2
 8003182:	4a15      	ldr	r2, [pc, #84]	@ (80031d8 <lcdFillRect+0xb4>)
 8003184:	8852      	ldrh	r2, [r2, #2]
 8003186:	4293      	cmp	r3, r2
 8003188:	dd05      	ble.n	8003196 <lcdFillRect+0x72>
 800318a:	4b13      	ldr	r3, [pc, #76]	@ (80031d8 <lcdFillRect+0xb4>)
 800318c:	885a      	ldrh	r2, [r3, #2]
 800318e:	88bb      	ldrh	r3, [r7, #4]
 8003190:	1ad3      	subs	r3, r2, r3
 8003192:	b29b      	uxth	r3, r3
 8003194:	803b      	strh	r3, [r7, #0]

	for(int16_t y1 = y; y1 <= y + h; y1++)
 8003196:	88bb      	ldrh	r3, [r7, #4]
 8003198:	81fb      	strh	r3, [r7, #14]
 800319a:	e00e      	b.n	80031ba <lcdFillRect+0x96>
	{
		lcdDrawHLine(x, x + w, y1, fillcolor);
 800319c:	88f8      	ldrh	r0, [r7, #6]
 800319e:	88fa      	ldrh	r2, [r7, #6]
 80031a0:	887b      	ldrh	r3, [r7, #2]
 80031a2:	4413      	add	r3, r2
 80031a4:	b299      	uxth	r1, r3
 80031a6:	89fa      	ldrh	r2, [r7, #14]
 80031a8:	8c3b      	ldrh	r3, [r7, #32]
 80031aa:	f7ff fdaf 	bl	8002d0c <lcdDrawHLine>
	for(int16_t y1 = y; y1 <= y + h; y1++)
 80031ae:	f9b7 300e 	ldrsh.w	r3, [r7, #14]
 80031b2:	b29b      	uxth	r3, r3
 80031b4:	3301      	adds	r3, #1
 80031b6:	b29b      	uxth	r3, r3
 80031b8:	81fb      	strh	r3, [r7, #14]
 80031ba:	f9b7 200e 	ldrsh.w	r2, [r7, #14]
 80031be:	f9b7 1004 	ldrsh.w	r1, [r7, #4]
 80031c2:	f9b7 3000 	ldrsh.w	r3, [r7]
 80031c6:	440b      	add	r3, r1
 80031c8:	429a      	cmp	r2, r3
 80031ca:	dde7      	ble.n	800319c <lcdFillRect+0x78>
 80031cc:	e000      	b.n	80031d0 <lcdFillRect+0xac>
	if((x >= lcdProperties.width) || (y >= lcdProperties.height)) return;
 80031ce:	bf00      	nop
	}
}
 80031d0:	3714      	adds	r7, #20
 80031d2:	46bd      	mov	sp, r7
 80031d4:	bd90      	pop	{r4, r7, pc}
 80031d6:	bf00      	nop
 80031d8:	20000024 	.word	0x20000024

080031dc <lcdFillRoundRect>:
 * \param fillcolor		Color
 *
 * \return void
 */
void lcdFillRoundRect(int16_t x, int16_t y, int16_t w, int16_t h, int16_t r, uint16_t color)
{
 80031dc:	b590      	push	{r4, r7, lr}
 80031de:	b085      	sub	sp, #20
 80031e0:	af02      	add	r7, sp, #8
 80031e2:	4604      	mov	r4, r0
 80031e4:	4608      	mov	r0, r1
 80031e6:	4611      	mov	r1, r2
 80031e8:	461a      	mov	r2, r3
 80031ea:	4623      	mov	r3, r4
 80031ec:	80fb      	strh	r3, [r7, #6]
 80031ee:	4603      	mov	r3, r0
 80031f0:	80bb      	strh	r3, [r7, #4]
 80031f2:	460b      	mov	r3, r1
 80031f4:	807b      	strh	r3, [r7, #2]
 80031f6:	4613      	mov	r3, r2
 80031f8:	803b      	strh	r3, [r7, #0]
	// smarter version
	lcdFillRect(x + r, y, w - 2 * r, h, color);
 80031fa:	88fa      	ldrh	r2, [r7, #6]
 80031fc:	8b3b      	ldrh	r3, [r7, #24]
 80031fe:	4413      	add	r3, r2
 8003200:	b29b      	uxth	r3, r3
 8003202:	b218      	sxth	r0, r3
 8003204:	887a      	ldrh	r2, [r7, #2]
 8003206:	8b3b      	ldrh	r3, [r7, #24]
 8003208:	005b      	lsls	r3, r3, #1
 800320a:	b29b      	uxth	r3, r3
 800320c:	1ad3      	subs	r3, r2, r3
 800320e:	b29b      	uxth	r3, r3
 8003210:	b21a      	sxth	r2, r3
 8003212:	f9b7 4000 	ldrsh.w	r4, [r7]
 8003216:	f9b7 1004 	ldrsh.w	r1, [r7, #4]
 800321a:	8bbb      	ldrh	r3, [r7, #28]
 800321c:	9300      	str	r3, [sp, #0]
 800321e:	4623      	mov	r3, r4
 8003220:	f7ff ff80 	bl	8003124 <lcdFillRect>

	// draw four corners
	lcdFillCircleHelper(x + w - r - 1, y + r, r, 1, h - 2 * r - 1, color);
 8003224:	88fa      	ldrh	r2, [r7, #6]
 8003226:	887b      	ldrh	r3, [r7, #2]
 8003228:	4413      	add	r3, r2
 800322a:	b29a      	uxth	r2, r3
 800322c:	8b3b      	ldrh	r3, [r7, #24]
 800322e:	1ad3      	subs	r3, r2, r3
 8003230:	b29b      	uxth	r3, r3
 8003232:	3b01      	subs	r3, #1
 8003234:	b29b      	uxth	r3, r3
 8003236:	b218      	sxth	r0, r3
 8003238:	88ba      	ldrh	r2, [r7, #4]
 800323a:	8b3b      	ldrh	r3, [r7, #24]
 800323c:	4413      	add	r3, r2
 800323e:	b29b      	uxth	r3, r3
 8003240:	b219      	sxth	r1, r3
 8003242:	883a      	ldrh	r2, [r7, #0]
 8003244:	8b3b      	ldrh	r3, [r7, #24]
 8003246:	005b      	lsls	r3, r3, #1
 8003248:	b29b      	uxth	r3, r3
 800324a:	1ad3      	subs	r3, r2, r3
 800324c:	b29b      	uxth	r3, r3
 800324e:	3b01      	subs	r3, #1
 8003250:	b29b      	uxth	r3, r3
 8003252:	b21b      	sxth	r3, r3
 8003254:	f9b7 4018 	ldrsh.w	r4, [r7, #24]
 8003258:	8bba      	ldrh	r2, [r7, #28]
 800325a:	9201      	str	r2, [sp, #4]
 800325c:	9300      	str	r3, [sp, #0]
 800325e:	2301      	movs	r3, #1
 8003260:	4622      	mov	r2, r4
 8003262:	f7ff feb5 	bl	8002fd0 <lcdFillCircleHelper>
	lcdFillCircleHelper(x + r, y + r, r, 2, h - 2 * r - 1, color);
 8003266:	88fa      	ldrh	r2, [r7, #6]
 8003268:	8b3b      	ldrh	r3, [r7, #24]
 800326a:	4413      	add	r3, r2
 800326c:	b29b      	uxth	r3, r3
 800326e:	b218      	sxth	r0, r3
 8003270:	88ba      	ldrh	r2, [r7, #4]
 8003272:	8b3b      	ldrh	r3, [r7, #24]
 8003274:	4413      	add	r3, r2
 8003276:	b29b      	uxth	r3, r3
 8003278:	b219      	sxth	r1, r3
 800327a:	883a      	ldrh	r2, [r7, #0]
 800327c:	8b3b      	ldrh	r3, [r7, #24]
 800327e:	005b      	lsls	r3, r3, #1
 8003280:	b29b      	uxth	r3, r3
 8003282:	1ad3      	subs	r3, r2, r3
 8003284:	b29b      	uxth	r3, r3
 8003286:	3b01      	subs	r3, #1
 8003288:	b29b      	uxth	r3, r3
 800328a:	b21b      	sxth	r3, r3
 800328c:	f9b7 4018 	ldrsh.w	r4, [r7, #24]
 8003290:	8bba      	ldrh	r2, [r7, #28]
 8003292:	9201      	str	r2, [sp, #4]
 8003294:	9300      	str	r3, [sp, #0]
 8003296:	2302      	movs	r3, #2
 8003298:	4622      	mov	r2, r4
 800329a:	f7ff fe99 	bl	8002fd0 <lcdFillCircleHelper>
}
 800329e:	bf00      	nop
 80032a0:	370c      	adds	r7, #12
 80032a2:	46bd      	mov	sp, r7
 80032a4:	bd90      	pop	{r4, r7, pc}

080032a6 <lcdFillTriangle>:
    @param    y2  Vertex #2 y coordinate
    @param    color 16-bit 5-6-5 Color to fill/draw with
*/
/**************************************************************************/
void lcdFillTriangle(int16_t x0, int16_t y0, int16_t x1, int16_t y1, int16_t x2, int16_t y2, uint16_t color)
{
 80032a6:	b590      	push	{r4, r7, lr}
 80032a8:	b08f      	sub	sp, #60	@ 0x3c
 80032aa:	af00      	add	r7, sp, #0
 80032ac:	4604      	mov	r4, r0
 80032ae:	4608      	mov	r0, r1
 80032b0:	4611      	mov	r1, r2
 80032b2:	461a      	mov	r2, r3
 80032b4:	4623      	mov	r3, r4
 80032b6:	80fb      	strh	r3, [r7, #6]
 80032b8:	4603      	mov	r3, r0
 80032ba:	80bb      	strh	r3, [r7, #4]
 80032bc:	460b      	mov	r3, r1
 80032be:	807b      	strh	r3, [r7, #2]
 80032c0:	4613      	mov	r3, r2
 80032c2:	803b      	strh	r3, [r7, #0]

    int16_t a, b, y, last;

    // Sort coordinates by Y order (y2 >= y1 >= y0)
    if (y0 > y1)
 80032c4:	f9b7 2004 	ldrsh.w	r2, [r7, #4]
 80032c8:	f9b7 3000 	ldrsh.w	r3, [r7]
 80032cc:	429a      	cmp	r2, r3
 80032ce:	dd0b      	ble.n	80032e8 <lcdFillTriangle+0x42>
    {
        swap(y0, y1); swap(x0, x1);
 80032d0:	88bb      	ldrh	r3, [r7, #4]
 80032d2:	84fb      	strh	r3, [r7, #38]	@ 0x26
 80032d4:	883b      	ldrh	r3, [r7, #0]
 80032d6:	80bb      	strh	r3, [r7, #4]
 80032d8:	8cfb      	ldrh	r3, [r7, #38]	@ 0x26
 80032da:	803b      	strh	r3, [r7, #0]
 80032dc:	88fb      	ldrh	r3, [r7, #6]
 80032de:	84bb      	strh	r3, [r7, #36]	@ 0x24
 80032e0:	887b      	ldrh	r3, [r7, #2]
 80032e2:	80fb      	strh	r3, [r7, #6]
 80032e4:	8cbb      	ldrh	r3, [r7, #36]	@ 0x24
 80032e6:	807b      	strh	r3, [r7, #2]
    }
    if (y1 > y2)
 80032e8:	f9b7 2000 	ldrsh.w	r2, [r7]
 80032ec:	f9b7 304c 	ldrsh.w	r3, [r7, #76]	@ 0x4c
 80032f0:	429a      	cmp	r2, r3
 80032f2:	dd0f      	ble.n	8003314 <lcdFillTriangle+0x6e>
    {
        swap(y2, y1); swap(x2, x1);
 80032f4:	f8b7 304c 	ldrh.w	r3, [r7, #76]	@ 0x4c
 80032f8:	847b      	strh	r3, [r7, #34]	@ 0x22
 80032fa:	883b      	ldrh	r3, [r7, #0]
 80032fc:	f8a7 304c 	strh.w	r3, [r7, #76]	@ 0x4c
 8003300:	8c7b      	ldrh	r3, [r7, #34]	@ 0x22
 8003302:	803b      	strh	r3, [r7, #0]
 8003304:	f8b7 3048 	ldrh.w	r3, [r7, #72]	@ 0x48
 8003308:	843b      	strh	r3, [r7, #32]
 800330a:	887b      	ldrh	r3, [r7, #2]
 800330c:	f8a7 3048 	strh.w	r3, [r7, #72]	@ 0x48
 8003310:	8c3b      	ldrh	r3, [r7, #32]
 8003312:	807b      	strh	r3, [r7, #2]
    }
    if (y0 > y1)
 8003314:	f9b7 2004 	ldrsh.w	r2, [r7, #4]
 8003318:	f9b7 3000 	ldrsh.w	r3, [r7]
 800331c:	429a      	cmp	r2, r3
 800331e:	dd0b      	ble.n	8003338 <lcdFillTriangle+0x92>
    {
        swap(y0, y1); swap(x0, x1);
 8003320:	88bb      	ldrh	r3, [r7, #4]
 8003322:	83fb      	strh	r3, [r7, #30]
 8003324:	883b      	ldrh	r3, [r7, #0]
 8003326:	80bb      	strh	r3, [r7, #4]
 8003328:	8bfb      	ldrh	r3, [r7, #30]
 800332a:	803b      	strh	r3, [r7, #0]
 800332c:	88fb      	ldrh	r3, [r7, #6]
 800332e:	83bb      	strh	r3, [r7, #28]
 8003330:	887b      	ldrh	r3, [r7, #2]
 8003332:	80fb      	strh	r3, [r7, #6]
 8003334:	8bbb      	ldrh	r3, [r7, #28]
 8003336:	807b      	strh	r3, [r7, #2]
    }

    if(y0 == y2)
 8003338:	f9b7 2004 	ldrsh.w	r2, [r7, #4]
 800333c:	f9b7 304c 	ldrsh.w	r3, [r7, #76]	@ 0x4c
 8003340:	429a      	cmp	r2, r3
 8003342:	d131      	bne.n	80033a8 <lcdFillTriangle+0x102>
    { // Handle awkward all-on-same-line case as its own thing
        a = b = x0;
 8003344:	88fb      	ldrh	r3, [r7, #6]
 8003346:	86bb      	strh	r3, [r7, #52]	@ 0x34
 8003348:	8ebb      	ldrh	r3, [r7, #52]	@ 0x34
 800334a:	86fb      	strh	r3, [r7, #54]	@ 0x36
        if(x1 < a)      a = x1;
 800334c:	f9b7 2002 	ldrsh.w	r2, [r7, #2]
 8003350:	f9b7 3036 	ldrsh.w	r3, [r7, #54]	@ 0x36
 8003354:	429a      	cmp	r2, r3
 8003356:	da02      	bge.n	800335e <lcdFillTriangle+0xb8>
 8003358:	887b      	ldrh	r3, [r7, #2]
 800335a:	86fb      	strh	r3, [r7, #54]	@ 0x36
 800335c:	e007      	b.n	800336e <lcdFillTriangle+0xc8>
        else if(x1 > b) b = x1;
 800335e:	f9b7 2002 	ldrsh.w	r2, [r7, #2]
 8003362:	f9b7 3034 	ldrsh.w	r3, [r7, #52]	@ 0x34
 8003366:	429a      	cmp	r2, r3
 8003368:	dd01      	ble.n	800336e <lcdFillTriangle+0xc8>
 800336a:	887b      	ldrh	r3, [r7, #2]
 800336c:	86bb      	strh	r3, [r7, #52]	@ 0x34
        if(x2 < a)      a = x2;
 800336e:	f9b7 2048 	ldrsh.w	r2, [r7, #72]	@ 0x48
 8003372:	f9b7 3036 	ldrsh.w	r3, [r7, #54]	@ 0x36
 8003376:	429a      	cmp	r2, r3
 8003378:	da03      	bge.n	8003382 <lcdFillTriangle+0xdc>
 800337a:	f8b7 3048 	ldrh.w	r3, [r7, #72]	@ 0x48
 800337e:	86fb      	strh	r3, [r7, #54]	@ 0x36
 8003380:	e008      	b.n	8003394 <lcdFillTriangle+0xee>
        else if(x2 > b) b = x2;
 8003382:	f9b7 2048 	ldrsh.w	r2, [r7, #72]	@ 0x48
 8003386:	f9b7 3034 	ldrsh.w	r3, [r7, #52]	@ 0x34
 800338a:	429a      	cmp	r2, r3
 800338c:	dd02      	ble.n	8003394 <lcdFillTriangle+0xee>
 800338e:	f8b7 3048 	ldrh.w	r3, [r7, #72]	@ 0x48
 8003392:	86bb      	strh	r3, [r7, #52]	@ 0x34
        lcdDrawHLine(a, b + 1, y0, color);
 8003394:	8ef8      	ldrh	r0, [r7, #54]	@ 0x36
 8003396:	8ebb      	ldrh	r3, [r7, #52]	@ 0x34
 8003398:	3301      	adds	r3, #1
 800339a:	b299      	uxth	r1, r3
 800339c:	88ba      	ldrh	r2, [r7, #4]
 800339e:	f8b7 3050 	ldrh.w	r3, [r7, #80]	@ 0x50
 80033a2:	f7ff fcb3 	bl	8002d0c <lcdDrawHLine>
        return;
 80033a6:	e0c8      	b.n	800353a <lcdFillTriangle+0x294>
    }

    int16_t
    dx01 = x1 - x0,
 80033a8:	887a      	ldrh	r2, [r7, #2]
 80033aa:	88fb      	ldrh	r3, [r7, #6]
 80033ac:	1ad3      	subs	r3, r2, r3
 80033ae:	b29b      	uxth	r3, r3
 80033b0:	837b      	strh	r3, [r7, #26]
    dy01 = y1 - y0,
 80033b2:	883a      	ldrh	r2, [r7, #0]
 80033b4:	88bb      	ldrh	r3, [r7, #4]
 80033b6:	1ad3      	subs	r3, r2, r3
 80033b8:	b29b      	uxth	r3, r3
 80033ba:	833b      	strh	r3, [r7, #24]
    dx02 = x2 - x0,
 80033bc:	f8b7 2048 	ldrh.w	r2, [r7, #72]	@ 0x48
 80033c0:	88fb      	ldrh	r3, [r7, #6]
 80033c2:	1ad3      	subs	r3, r2, r3
 80033c4:	b29b      	uxth	r3, r3
 80033c6:	82fb      	strh	r3, [r7, #22]
    dy02 = y2 - y0,
 80033c8:	f8b7 204c 	ldrh.w	r2, [r7, #76]	@ 0x4c
 80033cc:	88bb      	ldrh	r3, [r7, #4]
 80033ce:	1ad3      	subs	r3, r2, r3
 80033d0:	b29b      	uxth	r3, r3
 80033d2:	82bb      	strh	r3, [r7, #20]
    dx12 = x2 - x1,
 80033d4:	f8b7 2048 	ldrh.w	r2, [r7, #72]	@ 0x48
 80033d8:	887b      	ldrh	r3, [r7, #2]
 80033da:	1ad3      	subs	r3, r2, r3
 80033dc:	b29b      	uxth	r3, r3
 80033de:	827b      	strh	r3, [r7, #18]
    dy12 = y2 - y1;
 80033e0:	f8b7 204c 	ldrh.w	r2, [r7, #76]	@ 0x4c
 80033e4:	883b      	ldrh	r3, [r7, #0]
 80033e6:	1ad3      	subs	r3, r2, r3
 80033e8:	b29b      	uxth	r3, r3
 80033ea:	823b      	strh	r3, [r7, #16]
    int32_t
    sa   = 0,
 80033ec:	2300      	movs	r3, #0
 80033ee:	62fb      	str	r3, [r7, #44]	@ 0x2c
    sb   = 0;
 80033f0:	2300      	movs	r3, #0
 80033f2:	62bb      	str	r3, [r7, #40]	@ 0x28
    // 0-1 and 0-2.  If y1=y2 (flat-bottomed triangle), the scanline y1
    // is included here (and second loop will be skipped, avoiding a /0
    // error there), otherwise scanline y1 is skipped here and handled
    // in the second loop...which also avoids a /0 error here if y0=y1
    // (flat-topped triangle).
    if(y1 == y2) last = y1;   // Include y1 scanline
 80033f4:	f9b7 2000 	ldrsh.w	r2, [r7]
 80033f8:	f9b7 304c 	ldrsh.w	r3, [r7, #76]	@ 0x4c
 80033fc:	429a      	cmp	r2, r3
 80033fe:	d102      	bne.n	8003406 <lcdFillTriangle+0x160>
 8003400:	883b      	ldrh	r3, [r7, #0]
 8003402:	863b      	strh	r3, [r7, #48]	@ 0x30
 8003404:	e003      	b.n	800340e <lcdFillTriangle+0x168>
    else         last = y1-1; // Skip it
 8003406:	883b      	ldrh	r3, [r7, #0]
 8003408:	3b01      	subs	r3, #1
 800340a:	b29b      	uxth	r3, r3
 800340c:	863b      	strh	r3, [r7, #48]	@ 0x30

    for(y=y0; y<=last; y++)
 800340e:	88bb      	ldrh	r3, [r7, #4]
 8003410:	867b      	strh	r3, [r7, #50]	@ 0x32
 8003412:	e038      	b.n	8003486 <lcdFillTriangle+0x1e0>
    {
        a   = x0 + sa / dy01;
 8003414:	f9b7 3018 	ldrsh.w	r3, [r7, #24]
 8003418:	6afa      	ldr	r2, [r7, #44]	@ 0x2c
 800341a:	fb92 f3f3 	sdiv	r3, r2, r3
 800341e:	b29a      	uxth	r2, r3
 8003420:	88fb      	ldrh	r3, [r7, #6]
 8003422:	4413      	add	r3, r2
 8003424:	b29b      	uxth	r3, r3
 8003426:	86fb      	strh	r3, [r7, #54]	@ 0x36
        b   = x0 + sb / dy02;
 8003428:	f9b7 3014 	ldrsh.w	r3, [r7, #20]
 800342c:	6aba      	ldr	r2, [r7, #40]	@ 0x28
 800342e:	fb92 f3f3 	sdiv	r3, r2, r3
 8003432:	b29a      	uxth	r2, r3
 8003434:	88fb      	ldrh	r3, [r7, #6]
 8003436:	4413      	add	r3, r2
 8003438:	b29b      	uxth	r3, r3
 800343a:	86bb      	strh	r3, [r7, #52]	@ 0x34
        sa += dx01;
 800343c:	f9b7 301a 	ldrsh.w	r3, [r7, #26]
 8003440:	6afa      	ldr	r2, [r7, #44]	@ 0x2c
 8003442:	4413      	add	r3, r2
 8003444:	62fb      	str	r3, [r7, #44]	@ 0x2c
        sb += dx02;
 8003446:	f9b7 3016 	ldrsh.w	r3, [r7, #22]
 800344a:	6aba      	ldr	r2, [r7, #40]	@ 0x28
 800344c:	4413      	add	r3, r2
 800344e:	62bb      	str	r3, [r7, #40]	@ 0x28
        /* longhand:
        a = x0 + (x1 - x0) * (y - y0) / (y1 - y0);
        b = x0 + (x2 - x0) * (y - y0) / (y2 - y0);
        */
        if(a > b) swap(a,b);
 8003450:	f9b7 2036 	ldrsh.w	r2, [r7, #54]	@ 0x36
 8003454:	f9b7 3034 	ldrsh.w	r3, [r7, #52]	@ 0x34
 8003458:	429a      	cmp	r2, r3
 800345a:	dd05      	ble.n	8003468 <lcdFillTriangle+0x1c2>
 800345c:	8efb      	ldrh	r3, [r7, #54]	@ 0x36
 800345e:	81bb      	strh	r3, [r7, #12]
 8003460:	8ebb      	ldrh	r3, [r7, #52]	@ 0x34
 8003462:	86fb      	strh	r3, [r7, #54]	@ 0x36
 8003464:	89bb      	ldrh	r3, [r7, #12]
 8003466:	86bb      	strh	r3, [r7, #52]	@ 0x34
        lcdDrawHLine(a, b + 1, y, color);
 8003468:	8ef8      	ldrh	r0, [r7, #54]	@ 0x36
 800346a:	8ebb      	ldrh	r3, [r7, #52]	@ 0x34
 800346c:	3301      	adds	r3, #1
 800346e:	b299      	uxth	r1, r3
 8003470:	8e7a      	ldrh	r2, [r7, #50]	@ 0x32
 8003472:	f8b7 3050 	ldrh.w	r3, [r7, #80]	@ 0x50
 8003476:	f7ff fc49 	bl	8002d0c <lcdDrawHLine>
    for(y=y0; y<=last; y++)
 800347a:	f9b7 3032 	ldrsh.w	r3, [r7, #50]	@ 0x32
 800347e:	b29b      	uxth	r3, r3
 8003480:	3301      	adds	r3, #1
 8003482:	b29b      	uxth	r3, r3
 8003484:	867b      	strh	r3, [r7, #50]	@ 0x32
 8003486:	f9b7 2032 	ldrsh.w	r2, [r7, #50]	@ 0x32
 800348a:	f9b7 3030 	ldrsh.w	r3, [r7, #48]	@ 0x30
 800348e:	429a      	cmp	r2, r3
 8003490:	ddc0      	ble.n	8003414 <lcdFillTriangle+0x16e>
    }

    // For lower part of triangle, find scanline crossings for segments
    // 0-2 and 1-2.  This loop is skipped if y1=y2.
    sa = (int32_t)dx12 * (y - y1);
 8003492:	f9b7 3012 	ldrsh.w	r3, [r7, #18]
 8003496:	f9b7 1032 	ldrsh.w	r1, [r7, #50]	@ 0x32
 800349a:	f9b7 2000 	ldrsh.w	r2, [r7]
 800349e:	1a8a      	subs	r2, r1, r2
 80034a0:	fb02 f303 	mul.w	r3, r2, r3
 80034a4:	62fb      	str	r3, [r7, #44]	@ 0x2c
    sb = (int32_t)dx02 * (y - y0);
 80034a6:	f9b7 3016 	ldrsh.w	r3, [r7, #22]
 80034aa:	f9b7 1032 	ldrsh.w	r1, [r7, #50]	@ 0x32
 80034ae:	f9b7 2004 	ldrsh.w	r2, [r7, #4]
 80034b2:	1a8a      	subs	r2, r1, r2
 80034b4:	fb02 f303 	mul.w	r3, r2, r3
 80034b8:	62bb      	str	r3, [r7, #40]	@ 0x28
    for(; y<=y2; y++)
 80034ba:	e038      	b.n	800352e <lcdFillTriangle+0x288>
    {
        a   = x1 + sa / dy12;
 80034bc:	f9b7 3010 	ldrsh.w	r3, [r7, #16]
 80034c0:	6afa      	ldr	r2, [r7, #44]	@ 0x2c
 80034c2:	fb92 f3f3 	sdiv	r3, r2, r3
 80034c6:	b29a      	uxth	r2, r3
 80034c8:	887b      	ldrh	r3, [r7, #2]
 80034ca:	4413      	add	r3, r2
 80034cc:	b29b      	uxth	r3, r3
 80034ce:	86fb      	strh	r3, [r7, #54]	@ 0x36
        b   = x0 + sb / dy02;
 80034d0:	f9b7 3014 	ldrsh.w	r3, [r7, #20]
 80034d4:	6aba      	ldr	r2, [r7, #40]	@ 0x28
 80034d6:	fb92 f3f3 	sdiv	r3, r2, r3
 80034da:	b29a      	uxth	r2, r3
 80034dc:	88fb      	ldrh	r3, [r7, #6]
 80034de:	4413      	add	r3, r2
 80034e0:	b29b      	uxth	r3, r3
 80034e2:	86bb      	strh	r3, [r7, #52]	@ 0x34
        sa += dx12;
 80034e4:	f9b7 3012 	ldrsh.w	r3, [r7, #18]
 80034e8:	6afa      	ldr	r2, [r7, #44]	@ 0x2c
 80034ea:	4413      	add	r3, r2
 80034ec:	62fb      	str	r3, [r7, #44]	@ 0x2c
        sb += dx02;
 80034ee:	f9b7 3016 	ldrsh.w	r3, [r7, #22]
 80034f2:	6aba      	ldr	r2, [r7, #40]	@ 0x28
 80034f4:	4413      	add	r3, r2
 80034f6:	62bb      	str	r3, [r7, #40]	@ 0x28
        /* longhand:
        a = x1 + (x2 - x1) * (y - y1) / (y2 - y1);
        b = x0 + (x2 - x0) * (y - y0) / (y2 - y0);
        */
        if(a > b) swap(a,b);
 80034f8:	f9b7 2036 	ldrsh.w	r2, [r7, #54]	@ 0x36
 80034fc:	f9b7 3034 	ldrsh.w	r3, [r7, #52]	@ 0x34
 8003500:	429a      	cmp	r2, r3
 8003502:	dd05      	ble.n	8003510 <lcdFillTriangle+0x26a>
 8003504:	8efb      	ldrh	r3, [r7, #54]	@ 0x36
 8003506:	81fb      	strh	r3, [r7, #14]
 8003508:	8ebb      	ldrh	r3, [r7, #52]	@ 0x34
 800350a:	86fb      	strh	r3, [r7, #54]	@ 0x36
 800350c:	89fb      	ldrh	r3, [r7, #14]
 800350e:	86bb      	strh	r3, [r7, #52]	@ 0x34
        lcdDrawHLine(a, b + 1, y, color);
 8003510:	8ef8      	ldrh	r0, [r7, #54]	@ 0x36
 8003512:	8ebb      	ldrh	r3, [r7, #52]	@ 0x34
 8003514:	3301      	adds	r3, #1
 8003516:	b299      	uxth	r1, r3
 8003518:	8e7a      	ldrh	r2, [r7, #50]	@ 0x32
 800351a:	f8b7 3050 	ldrh.w	r3, [r7, #80]	@ 0x50
 800351e:	f7ff fbf5 	bl	8002d0c <lcdDrawHLine>
    for(; y<=y2; y++)
 8003522:	f9b7 3032 	ldrsh.w	r3, [r7, #50]	@ 0x32
 8003526:	b29b      	uxth	r3, r3
 8003528:	3301      	adds	r3, #1
 800352a:	b29b      	uxth	r3, r3
 800352c:	867b      	strh	r3, [r7, #50]	@ 0x32
 800352e:	f9b7 2032 	ldrsh.w	r2, [r7, #50]	@ 0x32
 8003532:	f9b7 304c 	ldrsh.w	r3, [r7, #76]	@ 0x4c
 8003536:	429a      	cmp	r2, r3
 8003538:	ddc0      	ble.n	80034bc <lcdFillTriangle+0x216>
    }
}
 800353a:	373c      	adds	r7, #60	@ 0x3c
 800353c:	46bd      	mov	sp, r7
 800353e:	bd90      	pop	{r4, r7, pc}

08003540 <lcdDrawImage>:

void lcdDrawImage(uint16_t x, uint16_t y, GUI_CONST_STORAGE GUI_BITMAP* pBitmap)
{
 8003540:	b580      	push	{r7, lr}
 8003542:	b084      	sub	sp, #16
 8003544:	af00      	add	r7, sp, #0
 8003546:	4603      	mov	r3, r0
 8003548:	603a      	str	r2, [r7, #0]
 800354a:	80fb      	strh	r3, [r7, #6]
 800354c:	460b      	mov	r3, r1
 800354e:	80bb      	strh	r3, [r7, #4]
	if((x >= lcdProperties.width) || (y >= lcdProperties.height)) return;
 8003550:	4b24      	ldr	r3, [pc, #144]	@ (80035e4 <lcdDrawImage+0xa4>)
 8003552:	881b      	ldrh	r3, [r3, #0]
 8003554:	88fa      	ldrh	r2, [r7, #6]
 8003556:	429a      	cmp	r2, r3
 8003558:	d23c      	bcs.n	80035d4 <lcdDrawImage+0x94>
 800355a:	4b22      	ldr	r3, [pc, #136]	@ (80035e4 <lcdDrawImage+0xa4>)
 800355c:	885b      	ldrh	r3, [r3, #2]
 800355e:	88ba      	ldrh	r2, [r7, #4]
 8003560:	429a      	cmp	r2, r3
 8003562:	d237      	bcs.n	80035d4 <lcdDrawImage+0x94>
	if((x + pBitmap->xSize - 1) >= lcdProperties.width) return;
 8003564:	88fb      	ldrh	r3, [r7, #6]
 8003566:	683a      	ldr	r2, [r7, #0]
 8003568:	8812      	ldrh	r2, [r2, #0]
 800356a:	4413      	add	r3, r2
 800356c:	4a1d      	ldr	r2, [pc, #116]	@ (80035e4 <lcdDrawImage+0xa4>)
 800356e:	8812      	ldrh	r2, [r2, #0]
 8003570:	4293      	cmp	r3, r2
 8003572:	dc31      	bgt.n	80035d8 <lcdDrawImage+0x98>
	if((y + pBitmap->ySize - 1) >= lcdProperties.height) return;
 8003574:	88bb      	ldrh	r3, [r7, #4]
 8003576:	683a      	ldr	r2, [r7, #0]
 8003578:	8852      	ldrh	r2, [r2, #2]
 800357a:	4413      	add	r3, r2
 800357c:	4a19      	ldr	r2, [pc, #100]	@ (80035e4 <lcdDrawImage+0xa4>)
 800357e:	8852      	ldrh	r2, [r2, #2]
 8003580:	4293      	cmp	r3, r2
 8003582:	dc2b      	bgt.n	80035dc <lcdDrawImage+0x9c>

	for (int i = 0; i < pBitmap->ySize; ++i)
 8003584:	2300      	movs	r3, #0
 8003586:	60fb      	str	r3, [r7, #12]
 8003588:	e01d      	b.n	80035c6 <lcdDrawImage+0x86>
	{
		lcdDrawPixels(x, y + i, (uint16_t*)(pBitmap->pData + i * pBitmap->bytesPerLine), pBitmap->bytesPerLine / (pBitmap->bitsPerPixel / 8));
 800358a:	68fb      	ldr	r3, [r7, #12]
 800358c:	b29a      	uxth	r2, r3
 800358e:	88bb      	ldrh	r3, [r7, #4]
 8003590:	4413      	add	r3, r2
 8003592:	b299      	uxth	r1, r3
 8003594:	683b      	ldr	r3, [r7, #0]
 8003596:	689a      	ldr	r2, [r3, #8]
 8003598:	683b      	ldr	r3, [r7, #0]
 800359a:	889b      	ldrh	r3, [r3, #4]
 800359c:	4618      	mov	r0, r3
 800359e:	68fb      	ldr	r3, [r7, #12]
 80035a0:	fb00 f303 	mul.w	r3, r0, r3
 80035a4:	005b      	lsls	r3, r3, #1
 80035a6:	441a      	add	r2, r3
 80035a8:	683b      	ldr	r3, [r7, #0]
 80035aa:	889b      	ldrh	r3, [r3, #4]
 80035ac:	4618      	mov	r0, r3
 80035ae:	683b      	ldr	r3, [r7, #0]
 80035b0:	799b      	ldrb	r3, [r3, #6]
 80035b2:	08db      	lsrs	r3, r3, #3
 80035b4:	b2db      	uxtb	r3, r3
 80035b6:	fb90 f3f3 	sdiv	r3, r0, r3
 80035ba:	88f8      	ldrh	r0, [r7, #6]
 80035bc:	f000 fb58 	bl	8003c70 <lcdDrawPixels>
	for (int i = 0; i < pBitmap->ySize; ++i)
 80035c0:	68fb      	ldr	r3, [r7, #12]
 80035c2:	3301      	adds	r3, #1
 80035c4:	60fb      	str	r3, [r7, #12]
 80035c6:	683b      	ldr	r3, [r7, #0]
 80035c8:	885b      	ldrh	r3, [r3, #2]
 80035ca:	461a      	mov	r2, r3
 80035cc:	68fb      	ldr	r3, [r7, #12]
 80035ce:	4293      	cmp	r3, r2
 80035d0:	dbdb      	blt.n	800358a <lcdDrawImage+0x4a>
 80035d2:	e004      	b.n	80035de <lcdDrawImage+0x9e>
	if((x >= lcdProperties.width) || (y >= lcdProperties.height)) return;
 80035d4:	bf00      	nop
 80035d6:	e002      	b.n	80035de <lcdDrawImage+0x9e>
	if((x + pBitmap->xSize - 1) >= lcdProperties.width) return;
 80035d8:	bf00      	nop
 80035da:	e000      	b.n	80035de <lcdDrawImage+0x9e>
	if((y + pBitmap->ySize - 1) >= lcdProperties.height) return;
 80035dc:	bf00      	nop
	}
}
 80035de:	3710      	adds	r7, #16
 80035e0:	46bd      	mov	sp, r7
 80035e2:	bd80      	pop	{r7, pc}
 80035e4:	20000024 	.word	0x20000024

080035e8 <lcdDrawChar>:
 * \param size		Character Size
 *
 * \return void
 */
void lcdDrawChar(int16_t x, int16_t y, unsigned char c, uint16_t color, uint16_t bg)
{
 80035e8:	b590      	push	{r4, r7, lr}
 80035ea:	b085      	sub	sp, #20
 80035ec:	af00      	add	r7, sp, #0
 80035ee:	4604      	mov	r4, r0
 80035f0:	4608      	mov	r0, r1
 80035f2:	4611      	mov	r1, r2
 80035f4:	461a      	mov	r2, r3
 80035f6:	4623      	mov	r3, r4
 80035f8:	80fb      	strh	r3, [r7, #6]
 80035fa:	4603      	mov	r3, r0
 80035fc:	80bb      	strh	r3, [r7, #4]
 80035fe:	460b      	mov	r3, r1
 8003600:	70fb      	strb	r3, [r7, #3]
 8003602:	4613      	mov	r3, r2
 8003604:	803b      	strh	r3, [r7, #0]
	if ((x >= lcdProperties.width) || 			// Clip right
 8003606:	f9b7 3006 	ldrsh.w	r3, [r7, #6]
 800360a:	4a4a      	ldr	r2, [pc, #296]	@ (8003734 <lcdDrawChar+0x14c>)
 800360c:	8812      	ldrh	r2, [r2, #0]
 800360e:	4293      	cmp	r3, r2
 8003610:	f280 808c 	bge.w	800372c <lcdDrawChar+0x144>
			(y >= lcdProperties.height) || 		// Clip bottom
 8003614:	f9b7 3004 	ldrsh.w	r3, [r7, #4]
 8003618:	4a46      	ldr	r2, [pc, #280]	@ (8003734 <lcdDrawChar+0x14c>)
 800361a:	8852      	ldrh	r2, [r2, #2]
	if ((x >= lcdProperties.width) || 			// Clip right
 800361c:	4293      	cmp	r3, r2
 800361e:	f280 8085 	bge.w	800372c <lcdDrawChar+0x144>
			((x + lcdFont.pFont->Width) < 0) || // Clip left
 8003622:	f9b7 3006 	ldrsh.w	r3, [r7, #6]
 8003626:	4a44      	ldr	r2, [pc, #272]	@ (8003738 <lcdDrawChar+0x150>)
 8003628:	6892      	ldr	r2, [r2, #8]
 800362a:	8892      	ldrh	r2, [r2, #4]
 800362c:	4413      	add	r3, r2
			(y >= lcdProperties.height) || 		// Clip bottom
 800362e:	2b00      	cmp	r3, #0
 8003630:	db7c      	blt.n	800372c <lcdDrawChar+0x144>
			((y + lcdFont.pFont->Height) < 0))  // Clip top
 8003632:	f9b7 3004 	ldrsh.w	r3, [r7, #4]
 8003636:	4a40      	ldr	r2, [pc, #256]	@ (8003738 <lcdDrawChar+0x150>)
 8003638:	6892      	ldr	r2, [r2, #8]
 800363a:	88d2      	ldrh	r2, [r2, #6]
 800363c:	4413      	add	r3, r2
			((x + lcdFont.pFont->Width) < 0) || // Clip left
 800363e:	2b00      	cmp	r3, #0
 8003640:	db74      	blt.n	800372c <lcdDrawChar+0x144>
		return;

	uint8_t fontCoeff = lcdFont.pFont->Height / 8;
 8003642:	4b3d      	ldr	r3, [pc, #244]	@ (8003738 <lcdDrawChar+0x150>)
 8003644:	689b      	ldr	r3, [r3, #8]
 8003646:	88db      	ldrh	r3, [r3, #6]
 8003648:	08db      	lsrs	r3, r3, #3
 800364a:	b29b      	uxth	r3, r3
 800364c:	72bb      	strb	r3, [r7, #10]
	uint8_t xP = 0;
 800364e:	2300      	movs	r3, #0
 8003650:	73fb      	strb	r3, [r7, #15]

	for(uint8_t i = 0; i < lcdFont.pFont->Height; i++)
 8003652:	2300      	movs	r3, #0
 8003654:	73bb      	strb	r3, [r7, #14]
 8003656:	e061      	b.n	800371c <lcdDrawChar+0x134>
	{
		uint8_t line;

		for(uint8_t k = 0; k < fontCoeff; k++)
 8003658:	2300      	movs	r3, #0
 800365a:	733b      	strb	r3, [r7, #12]
 800365c:	e055      	b.n	800370a <lcdDrawChar+0x122>
		{
			line = lcdFont.pFont->table[((c - 0x20) * lcdFont.pFont->Height * fontCoeff) + (i * fontCoeff) + k];
 800365e:	4b36      	ldr	r3, [pc, #216]	@ (8003738 <lcdDrawChar+0x150>)
 8003660:	689b      	ldr	r3, [r3, #8]
 8003662:	681b      	ldr	r3, [r3, #0]
 8003664:	78fa      	ldrb	r2, [r7, #3]
 8003666:	3a20      	subs	r2, #32
 8003668:	4933      	ldr	r1, [pc, #204]	@ (8003738 <lcdDrawChar+0x150>)
 800366a:	6889      	ldr	r1, [r1, #8]
 800366c:	88c9      	ldrh	r1, [r1, #6]
 800366e:	fb01 f202 	mul.w	r2, r1, r2
 8003672:	7ab9      	ldrb	r1, [r7, #10]
 8003674:	fb02 f101 	mul.w	r1, r2, r1
 8003678:	7bba      	ldrb	r2, [r7, #14]
 800367a:	7ab8      	ldrb	r0, [r7, #10]
 800367c:	fb00 f202 	mul.w	r2, r0, r2
 8003680:	4411      	add	r1, r2
 8003682:	7b3a      	ldrb	r2, [r7, #12]
 8003684:	440a      	add	r2, r1
 8003686:	4413      	add	r3, r2
 8003688:	781b      	ldrb	r3, [r3, #0]
 800368a:	737b      	strb	r3, [r7, #13]

			for(uint8_t j = 0; j < 8; j++)
 800368c:	2300      	movs	r3, #0
 800368e:	72fb      	strb	r3, [r7, #11]
 8003690:	e032      	b.n	80036f8 <lcdDrawChar+0x110>
			{
				if((line & 0x80) == 0x80)
 8003692:	f997 300d 	ldrsb.w	r3, [r7, #13]
 8003696:	2b00      	cmp	r3, #0
 8003698:	da12      	bge.n	80036c0 <lcdDrawChar+0xd8>
				{
					lcdDrawPixel(x + j + xP, y + i, color);
 800369a:	7afb      	ldrb	r3, [r7, #11]
 800369c:	b29a      	uxth	r2, r3
 800369e:	88fb      	ldrh	r3, [r7, #6]
 80036a0:	4413      	add	r3, r2
 80036a2:	b29a      	uxth	r2, r3
 80036a4:	7bfb      	ldrb	r3, [r7, #15]
 80036a6:	b29b      	uxth	r3, r3
 80036a8:	4413      	add	r3, r2
 80036aa:	b298      	uxth	r0, r3
 80036ac:	7bbb      	ldrb	r3, [r7, #14]
 80036ae:	b29a      	uxth	r2, r3
 80036b0:	88bb      	ldrh	r3, [r7, #4]
 80036b2:	4413      	add	r3, r2
 80036b4:	b29b      	uxth	r3, r3
 80036b6:	883a      	ldrh	r2, [r7, #0]
 80036b8:	4619      	mov	r1, r3
 80036ba:	f7ff fb03 	bl	8002cc4 <lcdDrawPixel>
 80036be:	e015      	b.n	80036ec <lcdDrawChar+0x104>
				}
				else if (bg != color)
 80036c0:	8c3a      	ldrh	r2, [r7, #32]
 80036c2:	883b      	ldrh	r3, [r7, #0]
 80036c4:	429a      	cmp	r2, r3
 80036c6:	d011      	beq.n	80036ec <lcdDrawChar+0x104>
				{
					lcdDrawPixel(x + j + xP, y + i, bg);
 80036c8:	7afb      	ldrb	r3, [r7, #11]
 80036ca:	b29a      	uxth	r2, r3
 80036cc:	88fb      	ldrh	r3, [r7, #6]
 80036ce:	4413      	add	r3, r2
 80036d0:	b29a      	uxth	r2, r3
 80036d2:	7bfb      	ldrb	r3, [r7, #15]
 80036d4:	b29b      	uxth	r3, r3
 80036d6:	4413      	add	r3, r2
 80036d8:	b298      	uxth	r0, r3
 80036da:	7bbb      	ldrb	r3, [r7, #14]
 80036dc:	b29a      	uxth	r2, r3
 80036de:	88bb      	ldrh	r3, [r7, #4]
 80036e0:	4413      	add	r3, r2
 80036e2:	b29b      	uxth	r3, r3
 80036e4:	8c3a      	ldrh	r2, [r7, #32]
 80036e6:	4619      	mov	r1, r3
 80036e8:	f7ff faec 	bl	8002cc4 <lcdDrawPixel>
				}
				line <<= 1;
 80036ec:	7b7b      	ldrb	r3, [r7, #13]
 80036ee:	005b      	lsls	r3, r3, #1
 80036f0:	737b      	strb	r3, [r7, #13]
			for(uint8_t j = 0; j < 8; j++)
 80036f2:	7afb      	ldrb	r3, [r7, #11]
 80036f4:	3301      	adds	r3, #1
 80036f6:	72fb      	strb	r3, [r7, #11]
 80036f8:	7afb      	ldrb	r3, [r7, #11]
 80036fa:	2b07      	cmp	r3, #7
 80036fc:	d9c9      	bls.n	8003692 <lcdDrawChar+0xaa>
			}

			xP += 8;
 80036fe:	7bfb      	ldrb	r3, [r7, #15]
 8003700:	3308      	adds	r3, #8
 8003702:	73fb      	strb	r3, [r7, #15]
		for(uint8_t k = 0; k < fontCoeff; k++)
 8003704:	7b3b      	ldrb	r3, [r7, #12]
 8003706:	3301      	adds	r3, #1
 8003708:	733b      	strb	r3, [r7, #12]
 800370a:	7b3a      	ldrb	r2, [r7, #12]
 800370c:	7abb      	ldrb	r3, [r7, #10]
 800370e:	429a      	cmp	r2, r3
 8003710:	d3a5      	bcc.n	800365e <lcdDrawChar+0x76>
		}

		xP = 0;
 8003712:	2300      	movs	r3, #0
 8003714:	73fb      	strb	r3, [r7, #15]
	for(uint8_t i = 0; i < lcdFont.pFont->Height; i++)
 8003716:	7bbb      	ldrb	r3, [r7, #14]
 8003718:	3301      	adds	r3, #1
 800371a:	73bb      	strb	r3, [r7, #14]
 800371c:	7bbb      	ldrb	r3, [r7, #14]
 800371e:	b29a      	uxth	r2, r3
 8003720:	4b05      	ldr	r3, [pc, #20]	@ (8003738 <lcdDrawChar+0x150>)
 8003722:	689b      	ldr	r3, [r3, #8]
 8003724:	88db      	ldrh	r3, [r3, #6]
 8003726:	429a      	cmp	r2, r3
 8003728:	d396      	bcc.n	8003658 <lcdDrawChar+0x70>
 800372a:	e000      	b.n	800372e <lcdDrawChar+0x146>
		return;
 800372c:	bf00      	nop
	}
}
 800372e:	3714      	adds	r7, #20
 8003730:	46bd      	mov	sp, r7
 8003732:	bd90      	pop	{r4, r7, pc}
 8003734:	20000024 	.word	0x20000024
 8003738:	2000002c 	.word	0x2000002c

0800373c <lcdDrawCharNoBackColor>:

void lcdDrawCharNoBackColor(int16_t x, int16_t y, unsigned char c, uint16_t color)
{
 800373c:	b590      	push	{r4, r7, lr}
 800373e:	b085      	sub	sp, #20
 8003740:	af00      	add	r7, sp, #0
 8003742:	4604      	mov	r4, r0
 8003744:	4608      	mov	r0, r1
 8003746:	4611      	mov	r1, r2
 8003748:	461a      	mov	r2, r3
 800374a:	4623      	mov	r3, r4
 800374c:	80fb      	strh	r3, [r7, #6]
 800374e:	4603      	mov	r3, r0
 8003750:	80bb      	strh	r3, [r7, #4]
 8003752:	460b      	mov	r3, r1
 8003754:	70fb      	strb	r3, [r7, #3]
 8003756:	4613      	mov	r3, r2
 8003758:	803b      	strh	r3, [r7, #0]
	if ((x >= lcdProperties.width) || 			// Clip right
 800375a:	f9b7 3006 	ldrsh.w	r3, [r7, #6]
 800375e:	4a3e      	ldr	r2, [pc, #248]	@ (8003858 <lcdDrawCharNoBackColor+0x11c>)
 8003760:	8812      	ldrh	r2, [r2, #0]
 8003762:	4293      	cmp	r3, r2
 8003764:	da73      	bge.n	800384e <lcdDrawCharNoBackColor+0x112>
			(y >= lcdProperties.height) || 		// Clip bottom
 8003766:	f9b7 3004 	ldrsh.w	r3, [r7, #4]
 800376a:	4a3b      	ldr	r2, [pc, #236]	@ (8003858 <lcdDrawCharNoBackColor+0x11c>)
 800376c:	8852      	ldrh	r2, [r2, #2]
	if ((x >= lcdProperties.width) || 			// Clip right
 800376e:	4293      	cmp	r3, r2
 8003770:	da6d      	bge.n	800384e <lcdDrawCharNoBackColor+0x112>
			((x + lcdFont.pFont->Width) < 0) || // Clip left
 8003772:	f9b7 3006 	ldrsh.w	r3, [r7, #6]
 8003776:	4a39      	ldr	r2, [pc, #228]	@ (800385c <lcdDrawCharNoBackColor+0x120>)
 8003778:	6892      	ldr	r2, [r2, #8]
 800377a:	8892      	ldrh	r2, [r2, #4]
 800377c:	4413      	add	r3, r2
			(y >= lcdProperties.height) || 		// Clip bottom
 800377e:	2b00      	cmp	r3, #0
 8003780:	db65      	blt.n	800384e <lcdDrawCharNoBackColor+0x112>
			((y + lcdFont.pFont->Height) < 0))  // Clip top
 8003782:	f9b7 3004 	ldrsh.w	r3, [r7, #4]
 8003786:	4a35      	ldr	r2, [pc, #212]	@ (800385c <lcdDrawCharNoBackColor+0x120>)
 8003788:	6892      	ldr	r2, [r2, #8]
 800378a:	88d2      	ldrh	r2, [r2, #6]
 800378c:	4413      	add	r3, r2
			((x + lcdFont.pFont->Width) < 0) || // Clip left
 800378e:	2b00      	cmp	r3, #0
 8003790:	db5d      	blt.n	800384e <lcdDrawCharNoBackColor+0x112>
		return;

	uint8_t fontCoeff = lcdFont.pFont->Height / 8;
 8003792:	4b32      	ldr	r3, [pc, #200]	@ (800385c <lcdDrawCharNoBackColor+0x120>)
 8003794:	689b      	ldr	r3, [r3, #8]
 8003796:	88db      	ldrh	r3, [r3, #6]
 8003798:	08db      	lsrs	r3, r3, #3
 800379a:	b29b      	uxth	r3, r3
 800379c:	72bb      	strb	r3, [r7, #10]
	uint8_t xP = 0;
 800379e:	2300      	movs	r3, #0
 80037a0:	73fb      	strb	r3, [r7, #15]

	for(uint8_t i = 0; i < lcdFont.pFont->Height; i++)
 80037a2:	2300      	movs	r3, #0
 80037a4:	73bb      	strb	r3, [r7, #14]
 80037a6:	e04a      	b.n	800383e <lcdDrawCharNoBackColor+0x102>
	{
		uint8_t line;

		for(uint8_t k = 0; k < fontCoeff; k++)
 80037a8:	2300      	movs	r3, #0
 80037aa:	733b      	strb	r3, [r7, #12]
 80037ac:	e03e      	b.n	800382c <lcdDrawCharNoBackColor+0xf0>
		{
			line = lcdFont.pFont->table[((c - 0x20) * lcdFont.pFont->Height * fontCoeff) + (i * fontCoeff) + k];
 80037ae:	4b2b      	ldr	r3, [pc, #172]	@ (800385c <lcdDrawCharNoBackColor+0x120>)
 80037b0:	689b      	ldr	r3, [r3, #8]
 80037b2:	681b      	ldr	r3, [r3, #0]
 80037b4:	78fa      	ldrb	r2, [r7, #3]
 80037b6:	3a20      	subs	r2, #32
 80037b8:	4928      	ldr	r1, [pc, #160]	@ (800385c <lcdDrawCharNoBackColor+0x120>)
 80037ba:	6889      	ldr	r1, [r1, #8]
 80037bc:	88c9      	ldrh	r1, [r1, #6]
 80037be:	fb01 f202 	mul.w	r2, r1, r2
 80037c2:	7ab9      	ldrb	r1, [r7, #10]
 80037c4:	fb02 f101 	mul.w	r1, r2, r1
 80037c8:	7bba      	ldrb	r2, [r7, #14]
 80037ca:	7ab8      	ldrb	r0, [r7, #10]
 80037cc:	fb00 f202 	mul.w	r2, r0, r2
 80037d0:	4411      	add	r1, r2
 80037d2:	7b3a      	ldrb	r2, [r7, #12]
 80037d4:	440a      	add	r2, r1
 80037d6:	4413      	add	r3, r2
 80037d8:	781b      	ldrb	r3, [r3, #0]
 80037da:	737b      	strb	r3, [r7, #13]

			for(uint8_t j = 0; j < 8; j++)
 80037dc:	2300      	movs	r3, #0
 80037de:	72fb      	strb	r3, [r7, #11]
 80037e0:	e01b      	b.n	800381a <lcdDrawCharNoBackColor+0xde>
			{
				if((line & 0x80) == 0x80)
 80037e2:	f997 300d 	ldrsb.w	r3, [r7, #13]
 80037e6:	2b00      	cmp	r3, #0
 80037e8:	da11      	bge.n	800380e <lcdDrawCharNoBackColor+0xd2>
				{
					lcdDrawPixel(x + j + xP, y + i, color);
 80037ea:	7afb      	ldrb	r3, [r7, #11]
 80037ec:	b29a      	uxth	r2, r3
 80037ee:	88fb      	ldrh	r3, [r7, #6]
 80037f0:	4413      	add	r3, r2
 80037f2:	b29a      	uxth	r2, r3
 80037f4:	7bfb      	ldrb	r3, [r7, #15]
 80037f6:	b29b      	uxth	r3, r3
 80037f8:	4413      	add	r3, r2
 80037fa:	b298      	uxth	r0, r3
 80037fc:	7bbb      	ldrb	r3, [r7, #14]
 80037fe:	b29a      	uxth	r2, r3
 8003800:	88bb      	ldrh	r3, [r7, #4]
 8003802:	4413      	add	r3, r2
 8003804:	b29b      	uxth	r3, r3
 8003806:	883a      	ldrh	r2, [r7, #0]
 8003808:	4619      	mov	r1, r3
 800380a:	f7ff fa5b 	bl	8002cc4 <lcdDrawPixel>
				}
				line <<= 1;
 800380e:	7b7b      	ldrb	r3, [r7, #13]
 8003810:	005b      	lsls	r3, r3, #1
 8003812:	737b      	strb	r3, [r7, #13]
			for(uint8_t j = 0; j < 8; j++)
 8003814:	7afb      	ldrb	r3, [r7, #11]
 8003816:	3301      	adds	r3, #1
 8003818:	72fb      	strb	r3, [r7, #11]
 800381a:	7afb      	ldrb	r3, [r7, #11]
 800381c:	2b07      	cmp	r3, #7
 800381e:	d9e0      	bls.n	80037e2 <lcdDrawCharNoBackColor+0xa6>
			}

			xP += 8;
 8003820:	7bfb      	ldrb	r3, [r7, #15]
 8003822:	3308      	adds	r3, #8
 8003824:	73fb      	strb	r3, [r7, #15]
		for(uint8_t k = 0; k < fontCoeff; k++)
 8003826:	7b3b      	ldrb	r3, [r7, #12]
 8003828:	3301      	adds	r3, #1
 800382a:	733b      	strb	r3, [r7, #12]
 800382c:	7b3a      	ldrb	r2, [r7, #12]
 800382e:	7abb      	ldrb	r3, [r7, #10]
 8003830:	429a      	cmp	r2, r3
 8003832:	d3bc      	bcc.n	80037ae <lcdDrawCharNoBackColor+0x72>
		}

		xP = 0;
 8003834:	2300      	movs	r3, #0
 8003836:	73fb      	strb	r3, [r7, #15]
	for(uint8_t i = 0; i < lcdFont.pFont->Height; i++)
 8003838:	7bbb      	ldrb	r3, [r7, #14]
 800383a:	3301      	adds	r3, #1
 800383c:	73bb      	strb	r3, [r7, #14]
 800383e:	7bbb      	ldrb	r3, [r7, #14]
 8003840:	b29a      	uxth	r2, r3
 8003842:	4b06      	ldr	r3, [pc, #24]	@ (800385c <lcdDrawCharNoBackColor+0x120>)
 8003844:	689b      	ldr	r3, [r3, #8]
 8003846:	88db      	ldrh	r3, [r3, #6]
 8003848:	429a      	cmp	r2, r3
 800384a:	d3ad      	bcc.n	80037a8 <lcdDrawCharNoBackColor+0x6c>
 800384c:	e000      	b.n	8003850 <lcdDrawCharNoBackColor+0x114>
		return;
 800384e:	bf00      	nop
	}
}
 8003850:	3714      	adds	r7, #20
 8003852:	46bd      	mov	sp, r7
 8003854:	bd90      	pop	{r4, r7, pc}
 8003856:	bf00      	nop
 8003858:	20000024 	.word	0x20000024
 800385c:	2000002c 	.word	0x2000002c

08003860 <lcdPrintf>:
 * \param
 *
 * \return void
 */
void lcdPrintf(const char *fmt, ...)
{
 8003860:	b40f      	push	{r0, r1, r2, r3}
 8003862:	b590      	push	{r4, r7, lr}
 8003864:	b085      	sub	sp, #20
 8003866:	af02      	add	r7, sp, #8
	static char buf[256];
	char *p;
	va_list lst;

	va_start(lst, fmt);
 8003868:	f107 031c 	add.w	r3, r7, #28
 800386c:	603b      	str	r3, [r7, #0]
	vsprintf(buf, fmt, lst);
 800386e:	683a      	ldr	r2, [r7, #0]
 8003870:	69b9      	ldr	r1, [r7, #24]
 8003872:	483d      	ldr	r0, [pc, #244]	@ (8003968 <lcdPrintf+0x108>)
 8003874:	f006 f804 	bl	8009880 <vsiprintf>
	va_end(lst);

	p = buf;
 8003878:	4b3b      	ldr	r3, [pc, #236]	@ (8003968 <lcdPrintf+0x108>)
 800387a:	607b      	str	r3, [r7, #4]
	while (*p)
 800387c:	e067      	b.n	800394e <lcdPrintf+0xee>
	{
		if (*p == '\n')
 800387e:	687b      	ldr	r3, [r7, #4]
 8003880:	781b      	ldrb	r3, [r3, #0]
 8003882:	2b0a      	cmp	r3, #10
 8003884:	d10c      	bne.n	80038a0 <lcdPrintf+0x40>
		{
			cursorXY.y += lcdFont.pFont->Height;
 8003886:	4b39      	ldr	r3, [pc, #228]	@ (800396c <lcdPrintf+0x10c>)
 8003888:	885a      	ldrh	r2, [r3, #2]
 800388a:	4b39      	ldr	r3, [pc, #228]	@ (8003970 <lcdPrintf+0x110>)
 800388c:	689b      	ldr	r3, [r3, #8]
 800388e:	88db      	ldrh	r3, [r3, #6]
 8003890:	4413      	add	r3, r2
 8003892:	b29a      	uxth	r2, r3
 8003894:	4b35      	ldr	r3, [pc, #212]	@ (800396c <lcdPrintf+0x10c>)
 8003896:	805a      	strh	r2, [r3, #2]
			cursorXY.x = 0;
 8003898:	4b34      	ldr	r3, [pc, #208]	@ (800396c <lcdPrintf+0x10c>)
 800389a:	2200      	movs	r2, #0
 800389c:	801a      	strh	r2, [r3, #0]
 800389e:	e04a      	b.n	8003936 <lcdPrintf+0xd6>
		}
		else if (*p == '\r')
 80038a0:	687b      	ldr	r3, [r7, #4]
 80038a2:	781b      	ldrb	r3, [r3, #0]
 80038a4:	2b0d      	cmp	r3, #13
 80038a6:	d046      	beq.n	8003936 <lcdPrintf+0xd6>
		{
			// skip em
		}
		else if (*p == '\t')
 80038a8:	687b      	ldr	r3, [r7, #4]
 80038aa:	781b      	ldrb	r3, [r3, #0]
 80038ac:	2b09      	cmp	r3, #9
 80038ae:	d10b      	bne.n	80038c8 <lcdPrintf+0x68>
		{
			cursorXY.x += lcdFont.pFont->Width * 4;
 80038b0:	4b2e      	ldr	r3, [pc, #184]	@ (800396c <lcdPrintf+0x10c>)
 80038b2:	881a      	ldrh	r2, [r3, #0]
 80038b4:	4b2e      	ldr	r3, [pc, #184]	@ (8003970 <lcdPrintf+0x110>)
 80038b6:	689b      	ldr	r3, [r3, #8]
 80038b8:	889b      	ldrh	r3, [r3, #4]
 80038ba:	009b      	lsls	r3, r3, #2
 80038bc:	b29b      	uxth	r3, r3
 80038be:	4413      	add	r3, r2
 80038c0:	b29a      	uxth	r2, r3
 80038c2:	4b2a      	ldr	r3, [pc, #168]	@ (800396c <lcdPrintf+0x10c>)
 80038c4:	801a      	strh	r2, [r3, #0]
 80038c6:	e036      	b.n	8003936 <lcdPrintf+0xd6>
		}
		else
		{
			lcdDrawChar(cursorXY.x, cursorXY.y, *p, lcdFont.TextColor, lcdFont.BackColor);
 80038c8:	4b28      	ldr	r3, [pc, #160]	@ (800396c <lcdPrintf+0x10c>)
 80038ca:	881b      	ldrh	r3, [r3, #0]
 80038cc:	b218      	sxth	r0, r3
 80038ce:	4b27      	ldr	r3, [pc, #156]	@ (800396c <lcdPrintf+0x10c>)
 80038d0:	885b      	ldrh	r3, [r3, #2]
 80038d2:	b219      	sxth	r1, r3
 80038d4:	687b      	ldr	r3, [r7, #4]
 80038d6:	781a      	ldrb	r2, [r3, #0]
 80038d8:	4b25      	ldr	r3, [pc, #148]	@ (8003970 <lcdPrintf+0x110>)
 80038da:	681b      	ldr	r3, [r3, #0]
 80038dc:	b29c      	uxth	r4, r3
 80038de:	4b24      	ldr	r3, [pc, #144]	@ (8003970 <lcdPrintf+0x110>)
 80038e0:	685b      	ldr	r3, [r3, #4]
 80038e2:	b29b      	uxth	r3, r3
 80038e4:	9300      	str	r3, [sp, #0]
 80038e6:	4623      	mov	r3, r4
 80038e8:	f7ff fe7e 	bl	80035e8 <lcdDrawChar>
			cursorXY.x += lcdFont.pFont->Width;
 80038ec:	4b1f      	ldr	r3, [pc, #124]	@ (800396c <lcdPrintf+0x10c>)
 80038ee:	881a      	ldrh	r2, [r3, #0]
 80038f0:	4b1f      	ldr	r3, [pc, #124]	@ (8003970 <lcdPrintf+0x110>)
 80038f2:	689b      	ldr	r3, [r3, #8]
 80038f4:	889b      	ldrh	r3, [r3, #4]
 80038f6:	4413      	add	r3, r2
 80038f8:	b29a      	uxth	r2, r3
 80038fa:	4b1c      	ldr	r3, [pc, #112]	@ (800396c <lcdPrintf+0x10c>)
 80038fc:	801a      	strh	r2, [r3, #0]
			if (lcdFont.TextWrap && (cursorXY.x > (lcdProperties.width - lcdFont.pFont->Width)))
 80038fe:	4b1c      	ldr	r3, [pc, #112]	@ (8003970 <lcdPrintf+0x110>)
 8003900:	7b1b      	ldrb	r3, [r3, #12]
 8003902:	2b00      	cmp	r3, #0
 8003904:	d017      	beq.n	8003936 <lcdPrintf+0xd6>
 8003906:	4b19      	ldr	r3, [pc, #100]	@ (800396c <lcdPrintf+0x10c>)
 8003908:	881b      	ldrh	r3, [r3, #0]
 800390a:	461a      	mov	r2, r3
 800390c:	4b19      	ldr	r3, [pc, #100]	@ (8003974 <lcdPrintf+0x114>)
 800390e:	881b      	ldrh	r3, [r3, #0]
 8003910:	4619      	mov	r1, r3
 8003912:	4b17      	ldr	r3, [pc, #92]	@ (8003970 <lcdPrintf+0x110>)
 8003914:	689b      	ldr	r3, [r3, #8]
 8003916:	889b      	ldrh	r3, [r3, #4]
 8003918:	1acb      	subs	r3, r1, r3
 800391a:	429a      	cmp	r2, r3
 800391c:	dd0b      	ble.n	8003936 <lcdPrintf+0xd6>
			{
				cursorXY.y += lcdFont.pFont->Height;
 800391e:	4b13      	ldr	r3, [pc, #76]	@ (800396c <lcdPrintf+0x10c>)
 8003920:	885a      	ldrh	r2, [r3, #2]
 8003922:	4b13      	ldr	r3, [pc, #76]	@ (8003970 <lcdPrintf+0x110>)
 8003924:	689b      	ldr	r3, [r3, #8]
 8003926:	88db      	ldrh	r3, [r3, #6]
 8003928:	4413      	add	r3, r2
 800392a:	b29a      	uxth	r2, r3
 800392c:	4b0f      	ldr	r3, [pc, #60]	@ (800396c <lcdPrintf+0x10c>)
 800392e:	805a      	strh	r2, [r3, #2]
				cursorXY.x = 0;
 8003930:	4b0e      	ldr	r3, [pc, #56]	@ (800396c <lcdPrintf+0x10c>)
 8003932:	2200      	movs	r2, #0
 8003934:	801a      	strh	r2, [r3, #0]
			}
		}
		p++;
 8003936:	687b      	ldr	r3, [r7, #4]
 8003938:	3301      	adds	r3, #1
 800393a:	607b      	str	r3, [r7, #4]

		if (cursorXY.y >= lcdProperties.height)
 800393c:	4b0b      	ldr	r3, [pc, #44]	@ (800396c <lcdPrintf+0x10c>)
 800393e:	885a      	ldrh	r2, [r3, #2]
 8003940:	4b0c      	ldr	r3, [pc, #48]	@ (8003974 <lcdPrintf+0x114>)
 8003942:	885b      	ldrh	r3, [r3, #2]
 8003944:	429a      	cmp	r2, r3
 8003946:	d302      	bcc.n	800394e <lcdPrintf+0xee>
		{
			cursorXY.y = 0;
 8003948:	4b08      	ldr	r3, [pc, #32]	@ (800396c <lcdPrintf+0x10c>)
 800394a:	2200      	movs	r2, #0
 800394c:	805a      	strh	r2, [r3, #2]
	while (*p)
 800394e:	687b      	ldr	r3, [r7, #4]
 8003950:	781b      	ldrb	r3, [r3, #0]
 8003952:	2b00      	cmp	r3, #0
 8003954:	d193      	bne.n	800387e <lcdPrintf+0x1e>
		}
	}
}
 8003956:	bf00      	nop
 8003958:	bf00      	nop
 800395a:	370c      	adds	r7, #12
 800395c:	46bd      	mov	sp, r7
 800395e:	e8bd 4090 	ldmia.w	sp!, {r4, r7, lr}
 8003962:	b004      	add	sp, #16
 8003964:	4770      	bx	lr
 8003966:	bf00      	nop
 8003968:	20000300 	.word	0x20000300
 800396c:	200002f8 	.word	0x200002f8
 8003970:	2000002c 	.word	0x2000002c
 8003974:	20000024 	.word	0x20000024

08003978 <lcdPrintfNoBackColor>:

void lcdPrintfNoBackColor(const char *fmt, ...)
{
 8003978:	b40f      	push	{r0, r1, r2, r3}
 800397a:	b580      	push	{r7, lr}
 800397c:	b082      	sub	sp, #8
 800397e:	af00      	add	r7, sp, #0
	static char buf[256];
	char *p;
	va_list lst;

	va_start(lst, fmt);
 8003980:	f107 0314 	add.w	r3, r7, #20
 8003984:	603b      	str	r3, [r7, #0]
	vsprintf(buf, fmt, lst);
 8003986:	683a      	ldr	r2, [r7, #0]
 8003988:	6939      	ldr	r1, [r7, #16]
 800398a:	483a      	ldr	r0, [pc, #232]	@ (8003a74 <lcdPrintfNoBackColor+0xfc>)
 800398c:	f005 ff78 	bl	8009880 <vsiprintf>
	va_end(lst);

	p = buf;
 8003990:	4b38      	ldr	r3, [pc, #224]	@ (8003a74 <lcdPrintfNoBackColor+0xfc>)
 8003992:	607b      	str	r3, [r7, #4]
	while (*p)
 8003994:	e062      	b.n	8003a5c <lcdPrintfNoBackColor+0xe4>
	{
		if (*p == '\n')
 8003996:	687b      	ldr	r3, [r7, #4]
 8003998:	781b      	ldrb	r3, [r3, #0]
 800399a:	2b0a      	cmp	r3, #10
 800399c:	d10c      	bne.n	80039b8 <lcdPrintfNoBackColor+0x40>
		{
			cursorXY.y += lcdFont.pFont->Height;
 800399e:	4b36      	ldr	r3, [pc, #216]	@ (8003a78 <lcdPrintfNoBackColor+0x100>)
 80039a0:	885a      	ldrh	r2, [r3, #2]
 80039a2:	4b36      	ldr	r3, [pc, #216]	@ (8003a7c <lcdPrintfNoBackColor+0x104>)
 80039a4:	689b      	ldr	r3, [r3, #8]
 80039a6:	88db      	ldrh	r3, [r3, #6]
 80039a8:	4413      	add	r3, r2
 80039aa:	b29a      	uxth	r2, r3
 80039ac:	4b32      	ldr	r3, [pc, #200]	@ (8003a78 <lcdPrintfNoBackColor+0x100>)
 80039ae:	805a      	strh	r2, [r3, #2]
			cursorXY.x = 0;
 80039b0:	4b31      	ldr	r3, [pc, #196]	@ (8003a78 <lcdPrintfNoBackColor+0x100>)
 80039b2:	2200      	movs	r2, #0
 80039b4:	801a      	strh	r2, [r3, #0]
 80039b6:	e045      	b.n	8003a44 <lcdPrintfNoBackColor+0xcc>
		}
		else if (*p == '\r')
 80039b8:	687b      	ldr	r3, [r7, #4]
 80039ba:	781b      	ldrb	r3, [r3, #0]
 80039bc:	2b0d      	cmp	r3, #13
 80039be:	d041      	beq.n	8003a44 <lcdPrintfNoBackColor+0xcc>
		{
			// skip em
		}
		else if (*p == '\t')
 80039c0:	687b      	ldr	r3, [r7, #4]
 80039c2:	781b      	ldrb	r3, [r3, #0]
 80039c4:	2b09      	cmp	r3, #9
 80039c6:	d10b      	bne.n	80039e0 <lcdPrintfNoBackColor+0x68>
		{
			cursorXY.x += lcdFont.pFont->Width * 4;
 80039c8:	4b2b      	ldr	r3, [pc, #172]	@ (8003a78 <lcdPrintfNoBackColor+0x100>)
 80039ca:	881a      	ldrh	r2, [r3, #0]
 80039cc:	4b2b      	ldr	r3, [pc, #172]	@ (8003a7c <lcdPrintfNoBackColor+0x104>)
 80039ce:	689b      	ldr	r3, [r3, #8]
 80039d0:	889b      	ldrh	r3, [r3, #4]
 80039d2:	009b      	lsls	r3, r3, #2
 80039d4:	b29b      	uxth	r3, r3
 80039d6:	4413      	add	r3, r2
 80039d8:	b29a      	uxth	r2, r3
 80039da:	4b27      	ldr	r3, [pc, #156]	@ (8003a78 <lcdPrintfNoBackColor+0x100>)
 80039dc:	801a      	strh	r2, [r3, #0]
 80039de:	e031      	b.n	8003a44 <lcdPrintfNoBackColor+0xcc>
		}
		else
		{
			lcdDrawCharNoBackColor(cursorXY.x, cursorXY.y, *p, lcdFont.TextColor);
 80039e0:	4b25      	ldr	r3, [pc, #148]	@ (8003a78 <lcdPrintfNoBackColor+0x100>)
 80039e2:	881b      	ldrh	r3, [r3, #0]
 80039e4:	b218      	sxth	r0, r3
 80039e6:	4b24      	ldr	r3, [pc, #144]	@ (8003a78 <lcdPrintfNoBackColor+0x100>)
 80039e8:	885b      	ldrh	r3, [r3, #2]
 80039ea:	b219      	sxth	r1, r3
 80039ec:	687b      	ldr	r3, [r7, #4]
 80039ee:	781a      	ldrb	r2, [r3, #0]
 80039f0:	4b22      	ldr	r3, [pc, #136]	@ (8003a7c <lcdPrintfNoBackColor+0x104>)
 80039f2:	681b      	ldr	r3, [r3, #0]
 80039f4:	b29b      	uxth	r3, r3
 80039f6:	f7ff fea1 	bl	800373c <lcdDrawCharNoBackColor>
			cursorXY.x += lcdFont.pFont->Width;
 80039fa:	4b1f      	ldr	r3, [pc, #124]	@ (8003a78 <lcdPrintfNoBackColor+0x100>)
 80039fc:	881a      	ldrh	r2, [r3, #0]
 80039fe:	4b1f      	ldr	r3, [pc, #124]	@ (8003a7c <lcdPrintfNoBackColor+0x104>)
 8003a00:	689b      	ldr	r3, [r3, #8]
 8003a02:	889b      	ldrh	r3, [r3, #4]
 8003a04:	4413      	add	r3, r2
 8003a06:	b29a      	uxth	r2, r3
 8003a08:	4b1b      	ldr	r3, [pc, #108]	@ (8003a78 <lcdPrintfNoBackColor+0x100>)
 8003a0a:	801a      	strh	r2, [r3, #0]
			if (lcdFont.TextWrap && (cursorXY.x > (lcdProperties.width - lcdFont.pFont->Width)))
 8003a0c:	4b1b      	ldr	r3, [pc, #108]	@ (8003a7c <lcdPrintfNoBackColor+0x104>)
 8003a0e:	7b1b      	ldrb	r3, [r3, #12]
 8003a10:	2b00      	cmp	r3, #0
 8003a12:	d017      	beq.n	8003a44 <lcdPrintfNoBackColor+0xcc>
 8003a14:	4b18      	ldr	r3, [pc, #96]	@ (8003a78 <lcdPrintfNoBackColor+0x100>)
 8003a16:	881b      	ldrh	r3, [r3, #0]
 8003a18:	461a      	mov	r2, r3
 8003a1a:	4b19      	ldr	r3, [pc, #100]	@ (8003a80 <lcdPrintfNoBackColor+0x108>)
 8003a1c:	881b      	ldrh	r3, [r3, #0]
 8003a1e:	4619      	mov	r1, r3
 8003a20:	4b16      	ldr	r3, [pc, #88]	@ (8003a7c <lcdPrintfNoBackColor+0x104>)
 8003a22:	689b      	ldr	r3, [r3, #8]
 8003a24:	889b      	ldrh	r3, [r3, #4]
 8003a26:	1acb      	subs	r3, r1, r3
 8003a28:	429a      	cmp	r2, r3
 8003a2a:	dd0b      	ble.n	8003a44 <lcdPrintfNoBackColor+0xcc>
			{
				cursorXY.y += lcdFont.pFont->Height;
 8003a2c:	4b12      	ldr	r3, [pc, #72]	@ (8003a78 <lcdPrintfNoBackColor+0x100>)
 8003a2e:	885a      	ldrh	r2, [r3, #2]
 8003a30:	4b12      	ldr	r3, [pc, #72]	@ (8003a7c <lcdPrintfNoBackColor+0x104>)
 8003a32:	689b      	ldr	r3, [r3, #8]
 8003a34:	88db      	ldrh	r3, [r3, #6]
 8003a36:	4413      	add	r3, r2
 8003a38:	b29a      	uxth	r2, r3
 8003a3a:	4b0f      	ldr	r3, [pc, #60]	@ (8003a78 <lcdPrintfNoBackColor+0x100>)
 8003a3c:	805a      	strh	r2, [r3, #2]
				cursorXY.x = 0;
 8003a3e:	4b0e      	ldr	r3, [pc, #56]	@ (8003a78 <lcdPrintfNoBackColor+0x100>)
 8003a40:	2200      	movs	r2, #0
 8003a42:	801a      	strh	r2, [r3, #0]
			}
		}
		p++;
 8003a44:	687b      	ldr	r3, [r7, #4]
 8003a46:	3301      	adds	r3, #1
 8003a48:	607b      	str	r3, [r7, #4]

		if (cursorXY.y >= lcdProperties.height)
 8003a4a:	4b0b      	ldr	r3, [pc, #44]	@ (8003a78 <lcdPrintfNoBackColor+0x100>)
 8003a4c:	885a      	ldrh	r2, [r3, #2]
 8003a4e:	4b0c      	ldr	r3, [pc, #48]	@ (8003a80 <lcdPrintfNoBackColor+0x108>)
 8003a50:	885b      	ldrh	r3, [r3, #2]
 8003a52:	429a      	cmp	r2, r3
 8003a54:	d302      	bcc.n	8003a5c <lcdPrintfNoBackColor+0xe4>
		{
			cursorXY.y = 0;
 8003a56:	4b08      	ldr	r3, [pc, #32]	@ (8003a78 <lcdPrintfNoBackColor+0x100>)
 8003a58:	2200      	movs	r2, #0
 8003a5a:	805a      	strh	r2, [r3, #2]
	while (*p)
 8003a5c:	687b      	ldr	r3, [r7, #4]
 8003a5e:	781b      	ldrb	r3, [r3, #0]
 8003a60:	2b00      	cmp	r3, #0
 8003a62:	d198      	bne.n	8003996 <lcdPrintfNoBackColor+0x1e>
		}
	}
}
 8003a64:	bf00      	nop
 8003a66:	bf00      	nop
 8003a68:	3708      	adds	r7, #8
 8003a6a:	46bd      	mov	sp, r7
 8003a6c:	e8bd 4080 	ldmia.w	sp!, {r7, lr}
 8003a70:	b004      	add	sp, #16
 8003a72:	4770      	bx	lr
 8003a74:	20000400 	.word	0x20000400
 8003a78:	200002f8 	.word	0x200002f8
 8003a7c:	2000002c 	.word	0x2000002c
 8003a80:	20000024 	.word	0x20000024

08003a84 <lcdSetTextFont>:
 * \param font pointer font
 *
 * \return void
 */
void lcdSetTextFont(sFONT* font)
{
 8003a84:	b480      	push	{r7}
 8003a86:	b083      	sub	sp, #12
 8003a88:	af00      	add	r7, sp, #0
 8003a8a:	6078      	str	r0, [r7, #4]
	lcdFont.pFont = font;
 8003a8c:	4a04      	ldr	r2, [pc, #16]	@ (8003aa0 <lcdSetTextFont+0x1c>)
 8003a8e:	687b      	ldr	r3, [r7, #4]
 8003a90:	6093      	str	r3, [r2, #8]
}
 8003a92:	bf00      	nop
 8003a94:	370c      	adds	r7, #12
 8003a96:	46bd      	mov	sp, r7
 8003a98:	f85d 7b04 	ldr.w	r7, [sp], #4
 8003a9c:	4770      	bx	lr
 8003a9e:	bf00      	nop
 8003aa0:	2000002c 	.word	0x2000002c

08003aa4 <lcdSetTextColor>:
 * \param b		Background color
 *
 * \return void
 */
void lcdSetTextColor(uint16_t c, uint16_t b)
{
 8003aa4:	b480      	push	{r7}
 8003aa6:	b083      	sub	sp, #12
 8003aa8:	af00      	add	r7, sp, #0
 8003aaa:	4603      	mov	r3, r0
 8003aac:	460a      	mov	r2, r1
 8003aae:	80fb      	strh	r3, [r7, #6]
 8003ab0:	4613      	mov	r3, r2
 8003ab2:	80bb      	strh	r3, [r7, #4]
	lcdFont.TextColor = c;
 8003ab4:	88fb      	ldrh	r3, [r7, #6]
 8003ab6:	4a05      	ldr	r2, [pc, #20]	@ (8003acc <lcdSetTextColor+0x28>)
 8003ab8:	6013      	str	r3, [r2, #0]
	lcdFont.BackColor = b;
 8003aba:	88bb      	ldrh	r3, [r7, #4]
 8003abc:	4a03      	ldr	r2, [pc, #12]	@ (8003acc <lcdSetTextColor+0x28>)
 8003abe:	6053      	str	r3, [r2, #4]
}
 8003ac0:	bf00      	nop
 8003ac2:	370c      	adds	r7, #12
 8003ac4:	46bd      	mov	sp, r7
 8003ac6:	f85d 7b04 	ldr.w	r7, [sp], #4
 8003aca:	4770      	bx	lr
 8003acc:	2000002c 	.word	0x2000002c

08003ad0 <lcdSetOrientation>:
{
	lcdFont.TextWrap = w;
}

void lcdSetOrientation(lcdOrientationTypeDef value)
{
 8003ad0:	b580      	push	{r7, lr}
 8003ad2:	b082      	sub	sp, #8
 8003ad4:	af00      	add	r7, sp, #0
 8003ad6:	4603      	mov	r3, r0
 8003ad8:	71fb      	strb	r3, [r7, #7]
	lcdProperties.orientation = value;
 8003ada:	4a2d      	ldr	r2, [pc, #180]	@ (8003b90 <lcdSetOrientation+0xc0>)
 8003adc:	79fb      	ldrb	r3, [r7, #7]
 8003ade:	7113      	strb	r3, [r2, #4]
	lcdWriteCommand(ILI9341_MEMCONTROL);
 8003ae0:	2036      	movs	r0, #54	@ 0x36
 8003ae2:	f000 f8fb 	bl	8003cdc <lcdWriteCommand>

	switch (lcdProperties.orientation)
 8003ae6:	4b2a      	ldr	r3, [pc, #168]	@ (8003b90 <lcdSetOrientation+0xc0>)
 8003ae8:	791b      	ldrb	r3, [r3, #4]
 8003aea:	2b03      	cmp	r3, #3
 8003aec:	d83e      	bhi.n	8003b6c <lcdSetOrientation+0x9c>
 8003aee:	a201      	add	r2, pc, #4	@ (adr r2, 8003af4 <lcdSetOrientation+0x24>)
 8003af0:	f852 f023 	ldr.w	pc, [r2, r3, lsl #2]
 8003af4:	08003b05 	.word	0x08003b05
 8003af8:	08003b39 	.word	0x08003b39
 8003afc:	08003b1f 	.word	0x08003b1f
 8003b00:	08003b53 	.word	0x08003b53
	{
		case LCD_ORIENTATION_PORTRAIT:
			lcdWriteData(lcdPortraitConfig);
 8003b04:	4b23      	ldr	r3, [pc, #140]	@ (8003b94 <lcdSetOrientation+0xc4>)
 8003b06:	781b      	ldrb	r3, [r3, #0]
 8003b08:	4618      	mov	r0, r3
 8003b0a:	f000 f8f7 	bl	8003cfc <lcdWriteData>
			lcdProperties.width = ILI9341_PIXEL_WIDTH;
 8003b0e:	4b20      	ldr	r3, [pc, #128]	@ (8003b90 <lcdSetOrientation+0xc0>)
 8003b10:	22f0      	movs	r2, #240	@ 0xf0
 8003b12:	801a      	strh	r2, [r3, #0]
			lcdProperties.height = ILI9341_PIXEL_HEIGHT;
 8003b14:	4b1e      	ldr	r3, [pc, #120]	@ (8003b90 <lcdSetOrientation+0xc0>)
 8003b16:	f44f 72a0 	mov.w	r2, #320	@ 0x140
 8003b1a:	805a      	strh	r2, [r3, #2]
			break;
 8003b1c:	e027      	b.n	8003b6e <lcdSetOrientation+0x9e>
		case LCD_ORIENTATION_PORTRAIT_MIRROR:
			lcdWriteData(lcdPortraitMirrorConfig);
 8003b1e:	4b1e      	ldr	r3, [pc, #120]	@ (8003b98 <lcdSetOrientation+0xc8>)
 8003b20:	781b      	ldrb	r3, [r3, #0]
 8003b22:	4618      	mov	r0, r3
 8003b24:	f000 f8ea 	bl	8003cfc <lcdWriteData>
			lcdProperties.width = ILI9341_PIXEL_WIDTH;
 8003b28:	4b19      	ldr	r3, [pc, #100]	@ (8003b90 <lcdSetOrientation+0xc0>)
 8003b2a:	22f0      	movs	r2, #240	@ 0xf0
 8003b2c:	801a      	strh	r2, [r3, #0]
			lcdProperties.height = ILI9341_PIXEL_HEIGHT;
 8003b2e:	4b18      	ldr	r3, [pc, #96]	@ (8003b90 <lcdSetOrientation+0xc0>)
 8003b30:	f44f 72a0 	mov.w	r2, #320	@ 0x140
 8003b34:	805a      	strh	r2, [r3, #2]
			break;
 8003b36:	e01a      	b.n	8003b6e <lcdSetOrientation+0x9e>
		case LCD_ORIENTATION_LANDSCAPE:
			lcdWriteData(lcdLandscapeConfig);
 8003b38:	4b18      	ldr	r3, [pc, #96]	@ (8003b9c <lcdSetOrientation+0xcc>)
 8003b3a:	781b      	ldrb	r3, [r3, #0]
 8003b3c:	4618      	mov	r0, r3
 8003b3e:	f000 f8dd 	bl	8003cfc <lcdWriteData>
			lcdProperties.width = ILI9341_PIXEL_HEIGHT;
 8003b42:	4b13      	ldr	r3, [pc, #76]	@ (8003b90 <lcdSetOrientation+0xc0>)
 8003b44:	f44f 72a0 	mov.w	r2, #320	@ 0x140
 8003b48:	801a      	strh	r2, [r3, #0]
			lcdProperties.height = ILI9341_PIXEL_WIDTH;
 8003b4a:	4b11      	ldr	r3, [pc, #68]	@ (8003b90 <lcdSetOrientation+0xc0>)
 8003b4c:	22f0      	movs	r2, #240	@ 0xf0
 8003b4e:	805a      	strh	r2, [r3, #2]
			break;
 8003b50:	e00d      	b.n	8003b6e <lcdSetOrientation+0x9e>
		case LCD_ORIENTATION_LANDSCAPE_MIRROR:
			lcdWriteData(lcdLandscapeMirrorConfig);
 8003b52:	4b13      	ldr	r3, [pc, #76]	@ (8003ba0 <lcdSetOrientation+0xd0>)
 8003b54:	781b      	ldrb	r3, [r3, #0]
 8003b56:	4618      	mov	r0, r3
 8003b58:	f000 f8d0 	bl	8003cfc <lcdWriteData>
			lcdProperties.width = ILI9341_PIXEL_HEIGHT;
 8003b5c:	4b0c      	ldr	r3, [pc, #48]	@ (8003b90 <lcdSetOrientation+0xc0>)
 8003b5e:	f44f 72a0 	mov.w	r2, #320	@ 0x140
 8003b62:	801a      	strh	r2, [r3, #0]
			lcdProperties.height = ILI9341_PIXEL_WIDTH;
 8003b64:	4b0a      	ldr	r3, [pc, #40]	@ (8003b90 <lcdSetOrientation+0xc0>)
 8003b66:	22f0      	movs	r2, #240	@ 0xf0
 8003b68:	805a      	strh	r2, [r3, #2]
			break;
 8003b6a:	e000      	b.n	8003b6e <lcdSetOrientation+0x9e>
		default:
			break;
 8003b6c:	bf00      	nop
	}

	//lcdWriteCommand(ILI9341_MEMORYWRITE);
	lcdSetWindow(0, 0, lcdProperties.width - 1, lcdProperties.height - 1);
 8003b6e:	4b08      	ldr	r3, [pc, #32]	@ (8003b90 <lcdSetOrientation+0xc0>)
 8003b70:	881b      	ldrh	r3, [r3, #0]
 8003b72:	3b01      	subs	r3, #1
 8003b74:	b29a      	uxth	r2, r3
 8003b76:	4b06      	ldr	r3, [pc, #24]	@ (8003b90 <lcdSetOrientation+0xc0>)
 8003b78:	885b      	ldrh	r3, [r3, #2]
 8003b7a:	3b01      	subs	r3, #1
 8003b7c:	b29b      	uxth	r3, r3
 8003b7e:	2100      	movs	r1, #0
 8003b80:	2000      	movs	r0, #0
 8003b82:	f000 f829 	bl	8003bd8 <lcdSetWindow>
}
 8003b86:	bf00      	nop
 8003b88:	3708      	adds	r7, #8
 8003b8a:	46bd      	mov	sp, r7
 8003b8c:	bd80      	pop	{r7, pc}
 8003b8e:	bf00      	nop
 8003b90:	20000024 	.word	0x20000024
 8003b94:	200002fc 	.word	0x200002fc
 8003b98:	200002fe 	.word	0x200002fe
 8003b9c:	200002fd 	.word	0x200002fd
 8003ba0:	200002ff 	.word	0x200002ff

08003ba4 <lcdSetCursor>:

void lcdSetCursor(unsigned short x, unsigned short y)
{
 8003ba4:	b580      	push	{r7, lr}
 8003ba6:	b082      	sub	sp, #8
 8003ba8:	af00      	add	r7, sp, #0
 8003baa:	4603      	mov	r3, r0
 8003bac:	460a      	mov	r2, r1
 8003bae:	80fb      	strh	r3, [r7, #6]
 8003bb0:	4613      	mov	r3, r2
 8003bb2:	80bb      	strh	r3, [r7, #4]
	cursorXY.x = x;
 8003bb4:	4a07      	ldr	r2, [pc, #28]	@ (8003bd4 <lcdSetCursor+0x30>)
 8003bb6:	88fb      	ldrh	r3, [r7, #6]
 8003bb8:	8013      	strh	r3, [r2, #0]
	cursorXY.y = y;
 8003bba:	4a06      	ldr	r2, [pc, #24]	@ (8003bd4 <lcdSetCursor+0x30>)
 8003bbc:	88bb      	ldrh	r3, [r7, #4]
 8003bbe:	8053      	strh	r3, [r2, #2]
	lcdSetWindow(x, y, x, y);
 8003bc0:	88bb      	ldrh	r3, [r7, #4]
 8003bc2:	88fa      	ldrh	r2, [r7, #6]
 8003bc4:	88b9      	ldrh	r1, [r7, #4]
 8003bc6:	88f8      	ldrh	r0, [r7, #6]
 8003bc8:	f000 f806 	bl	8003bd8 <lcdSetWindow>
}
 8003bcc:	bf00      	nop
 8003bce:	3708      	adds	r7, #8
 8003bd0:	46bd      	mov	sp, r7
 8003bd2:	bd80      	pop	{r7, pc}
 8003bd4:	200002f8 	.word	0x200002f8

08003bd8 <lcdSetWindow>:
 * \param y1         Rigth bottom window y-coordinate
 *
 * \return void
 */
void lcdSetWindow(unsigned short x0, unsigned short y0, unsigned short x1, unsigned short y1)
{
 8003bd8:	b590      	push	{r4, r7, lr}
 8003bda:	b083      	sub	sp, #12
 8003bdc:	af00      	add	r7, sp, #0
 8003bde:	4604      	mov	r4, r0
 8003be0:	4608      	mov	r0, r1
 8003be2:	4611      	mov	r1, r2
 8003be4:	461a      	mov	r2, r3
 8003be6:	4623      	mov	r3, r4
 8003be8:	80fb      	strh	r3, [r7, #6]
 8003bea:	4603      	mov	r3, r0
 8003bec:	80bb      	strh	r3, [r7, #4]
 8003bee:	460b      	mov	r3, r1
 8003bf0:	807b      	strh	r3, [r7, #2]
 8003bf2:	4613      	mov	r3, r2
 8003bf4:	803b      	strh	r3, [r7, #0]
  lcdWriteCommand(ILI9341_COLADDRSET);
 8003bf6:	202a      	movs	r0, #42	@ 0x2a
 8003bf8:	f000 f870 	bl	8003cdc <lcdWriteCommand>
  lcdWriteData((x0 >> 8) & 0xFF);
 8003bfc:	88fb      	ldrh	r3, [r7, #6]
 8003bfe:	0a1b      	lsrs	r3, r3, #8
 8003c00:	b29b      	uxth	r3, r3
 8003c02:	4618      	mov	r0, r3
 8003c04:	f000 f87a 	bl	8003cfc <lcdWriteData>
  lcdWriteData(x0 & 0xFF);
 8003c08:	88fb      	ldrh	r3, [r7, #6]
 8003c0a:	b2db      	uxtb	r3, r3
 8003c0c:	b29b      	uxth	r3, r3
 8003c0e:	4618      	mov	r0, r3
 8003c10:	f000 f874 	bl	8003cfc <lcdWriteData>
  lcdWriteData((x1 >> 8) & 0xFF);
 8003c14:	887b      	ldrh	r3, [r7, #2]
 8003c16:	0a1b      	lsrs	r3, r3, #8
 8003c18:	b29b      	uxth	r3, r3
 8003c1a:	4618      	mov	r0, r3
 8003c1c:	f000 f86e 	bl	8003cfc <lcdWriteData>
  lcdWriteData(x1 & 0xFF);
 8003c20:	887b      	ldrh	r3, [r7, #2]
 8003c22:	b2db      	uxtb	r3, r3
 8003c24:	b29b      	uxth	r3, r3
 8003c26:	4618      	mov	r0, r3
 8003c28:	f000 f868 	bl	8003cfc <lcdWriteData>
  lcdWriteCommand(ILI9341_PAGEADDRSET);
 8003c2c:	202b      	movs	r0, #43	@ 0x2b
 8003c2e:	f000 f855 	bl	8003cdc <lcdWriteCommand>
  lcdWriteData((y0 >> 8) & 0xFF);
 8003c32:	88bb      	ldrh	r3, [r7, #4]
 8003c34:	0a1b      	lsrs	r3, r3, #8
 8003c36:	b29b      	uxth	r3, r3
 8003c38:	4618      	mov	r0, r3
 8003c3a:	f000 f85f 	bl	8003cfc <lcdWriteData>
  lcdWriteData(y0 & 0xFF);
 8003c3e:	88bb      	ldrh	r3, [r7, #4]
 8003c40:	b2db      	uxtb	r3, r3
 8003c42:	b29b      	uxth	r3, r3
 8003c44:	4618      	mov	r0, r3
 8003c46:	f000 f859 	bl	8003cfc <lcdWriteData>
  lcdWriteData((y1 >> 8) & 0xFF);
 8003c4a:	883b      	ldrh	r3, [r7, #0]
 8003c4c:	0a1b      	lsrs	r3, r3, #8
 8003c4e:	b29b      	uxth	r3, r3
 8003c50:	4618      	mov	r0, r3
 8003c52:	f000 f853 	bl	8003cfc <lcdWriteData>
  lcdWriteData(y1 & 0xFF);
 8003c56:	883b      	ldrh	r3, [r7, #0]
 8003c58:	b2db      	uxtb	r3, r3
 8003c5a:	b29b      	uxth	r3, r3
 8003c5c:	4618      	mov	r0, r3
 8003c5e:	f000 f84d 	bl	8003cfc <lcdWriteData>
  lcdWriteCommand(ILI9341_MEMORYWRITE);
 8003c62:	202c      	movs	r0, #44	@ 0x2c
 8003c64:	f000 f83a 	bl	8003cdc <lcdWriteCommand>
}
 8003c68:	bf00      	nop
 8003c6a:	370c      	adds	r7, #12
 8003c6c:	46bd      	mov	sp, r7
 8003c6e:	bd90      	pop	{r4, r7, pc}

08003c70 <lcdDrawPixels>:
}

/*---------Static functions--------------------------*/

static void lcdDrawPixels(uint16_t x, uint16_t y, uint16_t *data, uint32_t dataLength)
{
 8003c70:	b580      	push	{r7, lr}
 8003c72:	b086      	sub	sp, #24
 8003c74:	af00      	add	r7, sp, #0
 8003c76:	60ba      	str	r2, [r7, #8]
 8003c78:	607b      	str	r3, [r7, #4]
 8003c7a:	4603      	mov	r3, r0
 8003c7c:	81fb      	strh	r3, [r7, #14]
 8003c7e:	460b      	mov	r3, r1
 8003c80:	81bb      	strh	r3, [r7, #12]
  uint32_t i = 0;
 8003c82:	2300      	movs	r3, #0
 8003c84:	617b      	str	r3, [r7, #20]

  lcdSetWindow(x, y, lcdProperties.width - 1, lcdProperties.height - 1);
 8003c86:	4b0f      	ldr	r3, [pc, #60]	@ (8003cc4 <lcdDrawPixels+0x54>)
 8003c88:	881b      	ldrh	r3, [r3, #0]
 8003c8a:	3b01      	subs	r3, #1
 8003c8c:	b29a      	uxth	r2, r3
 8003c8e:	4b0d      	ldr	r3, [pc, #52]	@ (8003cc4 <lcdDrawPixels+0x54>)
 8003c90:	885b      	ldrh	r3, [r3, #2]
 8003c92:	3b01      	subs	r3, #1
 8003c94:	b29b      	uxth	r3, r3
 8003c96:	89b9      	ldrh	r1, [r7, #12]
 8003c98:	89f8      	ldrh	r0, [r7, #14]
 8003c9a:	f7ff ff9d 	bl	8003bd8 <lcdSetWindow>

  do
  {
    lcdWriteData(data[i++]);
 8003c9e:	697b      	ldr	r3, [r7, #20]
 8003ca0:	1c5a      	adds	r2, r3, #1
 8003ca2:	617a      	str	r2, [r7, #20]
 8003ca4:	005b      	lsls	r3, r3, #1
 8003ca6:	68ba      	ldr	r2, [r7, #8]
 8003ca8:	4413      	add	r3, r2
 8003caa:	881b      	ldrh	r3, [r3, #0]
 8003cac:	4618      	mov	r0, r3
 8003cae:	f000 f825 	bl	8003cfc <lcdWriteData>
  }
  while (i < dataLength);
 8003cb2:	697a      	ldr	r2, [r7, #20]
 8003cb4:	687b      	ldr	r3, [r7, #4]
 8003cb6:	429a      	cmp	r2, r3
 8003cb8:	d3f1      	bcc.n	8003c9e <lcdDrawPixels+0x2e>
}
 8003cba:	bf00      	nop
 8003cbc:	bf00      	nop
 8003cbe:	3718      	adds	r7, #24
 8003cc0:	46bd      	mov	sp, r7
 8003cc2:	bd80      	pop	{r7, pc}
 8003cc4:	20000024 	.word	0x20000024

08003cc8 <lcdReset>:

static void lcdReset(void)
{
 8003cc8:	b580      	push	{r7, lr}
 8003cca:	af00      	add	r7, sp, #0
	lcdWriteCommand(ILI9341_SOFTRESET);
 8003ccc:	2001      	movs	r0, #1
 8003cce:	f000 f805 	bl	8003cdc <lcdWriteCommand>
	HAL_Delay(50);
 8003cd2:	2032      	movs	r0, #50	@ 0x32
 8003cd4:	f001 ffa6 	bl	8005c24 <HAL_Delay>
}
 8003cd8:	bf00      	nop
 8003cda:	bd80      	pop	{r7, pc}

08003cdc <lcdWriteCommand>:

// Write an 8 bit command to the IC driver
static void lcdWriteCommand(unsigned char command)
{
 8003cdc:	b480      	push	{r7}
 8003cde:	b083      	sub	sp, #12
 8003ce0:	af00      	add	r7, sp, #0
 8003ce2:	4603      	mov	r3, r0
 8003ce4:	71fb      	strb	r3, [r7, #7]
	LCD_CmdWrite(command);
 8003ce6:	f04f 43c0 	mov.w	r3, #1610612736	@ 0x60000000
 8003cea:	79fa      	ldrb	r2, [r7, #7]
 8003cec:	b292      	uxth	r2, r2
 8003cee:	801a      	strh	r2, [r3, #0]
}
 8003cf0:	bf00      	nop
 8003cf2:	370c      	adds	r7, #12
 8003cf4:	46bd      	mov	sp, r7
 8003cf6:	f85d 7b04 	ldr.w	r7, [sp], #4
 8003cfa:	4770      	bx	lr

08003cfc <lcdWriteData>:

// Write an 16 bit data word to the IC driver
static void lcdWriteData(unsigned short data)
{
 8003cfc:	b480      	push	{r7}
 8003cfe:	b083      	sub	sp, #12
 8003d00:	af00      	add	r7, sp, #0
 8003d02:	4603      	mov	r3, r0
 8003d04:	80fb      	strh	r3, [r7, #6]
	LCD_DataWrite(data);
 8003d06:	4a04      	ldr	r2, [pc, #16]	@ (8003d18 <lcdWriteData+0x1c>)
 8003d08:	88fb      	ldrh	r3, [r7, #6]
 8003d0a:	8013      	strh	r3, [r2, #0]
}
 8003d0c:	bf00      	nop
 8003d0e:	370c      	adds	r7, #12
 8003d10:	46bd      	mov	sp, r7
 8003d12:	f85d 7b04 	ldr.w	r7, [sp], #4
 8003d16:	4770      	bx	lr
 8003d18:	60080000 	.word	0x60080000

08003d1c <lcdBuildMemoryAccessControlConfig>:
                        bool columnAddressOrder,
                        bool rowColumnExchange,
                        bool verticalRefreshOrder,
                        bool colorOrder,
                        bool horizontalRefreshOrder)
{
 8003d1c:	b490      	push	{r4, r7}
 8003d1e:	b084      	sub	sp, #16
 8003d20:	af00      	add	r7, sp, #0
 8003d22:	4604      	mov	r4, r0
 8003d24:	4608      	mov	r0, r1
 8003d26:	4611      	mov	r1, r2
 8003d28:	461a      	mov	r2, r3
 8003d2a:	4623      	mov	r3, r4
 8003d2c:	71fb      	strb	r3, [r7, #7]
 8003d2e:	4603      	mov	r3, r0
 8003d30:	71bb      	strb	r3, [r7, #6]
 8003d32:	460b      	mov	r3, r1
 8003d34:	717b      	strb	r3, [r7, #5]
 8003d36:	4613      	mov	r3, r2
 8003d38:	713b      	strb	r3, [r7, #4]
  unsigned char value 				= 0;
 8003d3a:	2300      	movs	r3, #0
 8003d3c:	73fb      	strb	r3, [r7, #15]
  if(horizontalRefreshOrder) value 	|= ILI9341_MADCTL_MH;
 8003d3e:	7f3b      	ldrb	r3, [r7, #28]
 8003d40:	2b00      	cmp	r3, #0
 8003d42:	d003      	beq.n	8003d4c <lcdBuildMemoryAccessControlConfig+0x30>
 8003d44:	7bfb      	ldrb	r3, [r7, #15]
 8003d46:	f043 0304 	orr.w	r3, r3, #4
 8003d4a:	73fb      	strb	r3, [r7, #15]
  if(colorOrder) value 				|= ILI9341_MADCTL_BGR;
 8003d4c:	7e3b      	ldrb	r3, [r7, #24]
 8003d4e:	2b00      	cmp	r3, #0
 8003d50:	d003      	beq.n	8003d5a <lcdBuildMemoryAccessControlConfig+0x3e>
 8003d52:	7bfb      	ldrb	r3, [r7, #15]
 8003d54:	f043 0308 	orr.w	r3, r3, #8
 8003d58:	73fb      	strb	r3, [r7, #15]
  if(verticalRefreshOrder) value 	|= ILI9341_MADCTL_ML;
 8003d5a:	793b      	ldrb	r3, [r7, #4]
 8003d5c:	2b00      	cmp	r3, #0
 8003d5e:	d003      	beq.n	8003d68 <lcdBuildMemoryAccessControlConfig+0x4c>
 8003d60:	7bfb      	ldrb	r3, [r7, #15]
 8003d62:	f043 0310 	orr.w	r3, r3, #16
 8003d66:	73fb      	strb	r3, [r7, #15]
  if(rowColumnExchange) value 		|= ILI9341_MADCTL_MV;
 8003d68:	797b      	ldrb	r3, [r7, #5]
 8003d6a:	2b00      	cmp	r3, #0
 8003d6c:	d003      	beq.n	8003d76 <lcdBuildMemoryAccessControlConfig+0x5a>
 8003d6e:	7bfb      	ldrb	r3, [r7, #15]
 8003d70:	f043 0320 	orr.w	r3, r3, #32
 8003d74:	73fb      	strb	r3, [r7, #15]
  if(columnAddressOrder) value 		|= ILI9341_MADCTL_MX;
 8003d76:	79bb      	ldrb	r3, [r7, #6]
 8003d78:	2b00      	cmp	r3, #0
 8003d7a:	d003      	beq.n	8003d84 <lcdBuildMemoryAccessControlConfig+0x68>
 8003d7c:	7bfb      	ldrb	r3, [r7, #15]
 8003d7e:	f043 0340 	orr.w	r3, r3, #64	@ 0x40
 8003d82:	73fb      	strb	r3, [r7, #15]
  if(rowAddressOrder) value 		|= ILI9341_MADCTL_MY;
 8003d84:	79fb      	ldrb	r3, [r7, #7]
 8003d86:	2b00      	cmp	r3, #0
 8003d88:	d003      	beq.n	8003d92 <lcdBuildMemoryAccessControlConfig+0x76>
 8003d8a:	7bfb      	ldrb	r3, [r7, #15]
 8003d8c:	f063 037f 	orn	r3, r3, #127	@ 0x7f
 8003d90:	73fb      	strb	r3, [r7, #15]
  return value;
 8003d92:	7bfb      	ldrb	r3, [r7, #15]
}
 8003d94:	4618      	mov	r0, r3
 8003d96:	3710      	adds	r7, #16
 8003d98:	46bd      	mov	sp, r7
 8003d9a:	bc90      	pop	{r4, r7}
 8003d9c:	4770      	bx	lr
	...

08003da0 <main>:
/**
  * @brief  The application entry point.
  * @retval int
  */
int main(void)
{
 8003da0:	b580      	push	{r7, lr}
 8003da2:	af00      	add	r7, sp, #0
  /* USER CODE END 1 */

  /* MCU Configuration--------------------------------------------------------*/

  /* Reset of all peripherals, Initializes the Flash interface and the Systick. */
  HAL_Init();
 8003da4:	f001 fecc 	bl	8005b40 <HAL_Init>
  /* USER CODE BEGIN Init */

  /* USER CODE END Init */

  /* Configure the system clock */
  SystemClock_Config();
 8003da8:	f000 f858 	bl	8003e5c <SystemClock_Config>
  /* USER CODE BEGIN SysInit */

  /* USER CODE END SysInit */

  /* Initialize all configured peripherals */
  MX_GPIO_Init();
 8003dac:	f000 f920 	bl	8003ff0 <MX_GPIO_Init>
  MX_FSMC_Init();
 8003db0:	f000 f9c4 	bl	800413c <MX_FSMC_Init>
  MX_USART1_UART_Init();
 8003db4:	f000 f8f2 	bl	8003f9c <MX_USART1_UART_Init>
  MX_SPI2_Init();
 8003db8:	f000 f8ba 	bl	8003f30 <MX_SPI2_Init>
  /* USER CODE BEGIN 2 */
  LCD_BL_ON();
 8003dbc:	2201      	movs	r2, #1
 8003dbe:	2102      	movs	r1, #2
 8003dc0:	481c      	ldr	r0, [pc, #112]	@ (8003e34 <main+0x94>)
 8003dc2:	f002 faab 	bl	800631c <HAL_GPIO_WritePin>
  lcdInit();
 8003dc6:	f7fe facd 	bl	8002364 <lcdInit>
  lcdSetOrientation(PORTRAIT);
 8003dca:	2000      	movs	r0, #0
 8003dcc:	f7ff fe80 	bl	8003ad0 <lcdSetOrientation>
  HAL_UART_Receive_IT(&huart1, (uint8_t*)tempBuffer, 1);
 8003dd0:	2201      	movs	r2, #1
 8003dd2:	4919      	ldr	r1, [pc, #100]	@ (8003e38 <main+0x98>)
 8003dd4:	4819      	ldr	r0, [pc, #100]	@ (8003e3c <main+0x9c>)
 8003dd6:	f003 fce0 	bl	800779a <HAL_UART_Receive_IT>
  mainMenu();
 8003dda:	f000 fd4b 	bl	8004874 <mainMenu>

  /* Infinite loop */
  /* USER CODE BEGIN WHILE */
  while (1)
  {
	  allowTouch = true;
 8003dde:	4b18      	ldr	r3, [pc, #96]	@ (8003e40 <main+0xa0>)
 8003de0:	2201      	movs	r2, #1
 8003de2:	701a      	strb	r2, [r3, #0]
	  if(rxComplete)
 8003de4:	4b17      	ldr	r3, [pc, #92]	@ (8003e44 <main+0xa4>)
 8003de6:	781b      	ldrb	r3, [r3, #0]
 8003de8:	2b00      	cmp	r3, #0
 8003dea:	d01e      	beq.n	8003e2a <main+0x8a>
	  {
		  rxComplete = 0;
 8003dec:	4b15      	ldr	r3, [pc, #84]	@ (8003e44 <main+0xa4>)
 8003dee:	2200      	movs	r2, #0
 8003df0:	701a      	strb	r2, [r3, #0]
		  rxIndex = 0;
 8003df2:	4b15      	ldr	r3, [pc, #84]	@ (8003e48 <main+0xa8>)
 8003df4:	2200      	movs	r2, #0
 8003df6:	801a      	strh	r2, [r3, #0]
		  processData((const char*) rxBuffer);
 8003df8:	4814      	ldr	r0, [pc, #80]	@ (8003e4c <main+0xac>)
 8003dfa:	f001 fa69 	bl	80052d0 <processData>
		  if (processComplete)
 8003dfe:	4b14      	ldr	r3, [pc, #80]	@ (8003e50 <main+0xb0>)
 8003e00:	781b      	ldrb	r3, [r3, #0]
 8003e02:	2b00      	cmp	r3, #0
 8003e04:	d00a      	beq.n	8003e1c <main+0x7c>
		  {
			  processComplete = 0;
 8003e06:	4b12      	ldr	r3, [pc, #72]	@ (8003e50 <main+0xb0>)
 8003e08:	2200      	movs	r2, #0
 8003e0a:	701a      	strb	r2, [r3, #0]
			  weatherIndex = 0;
 8003e0c:	4b11      	ldr	r3, [pc, #68]	@ (8003e54 <main+0xb4>)
 8003e0e:	2200      	movs	r2, #0
 8003e10:	801a      	strh	r2, [r3, #0]
			  dateIndex = 0;
 8003e12:	4b11      	ldr	r3, [pc, #68]	@ (8003e58 <main+0xb8>)
 8003e14:	2200      	movs	r2, #0
 8003e16:	801a      	strh	r2, [r3, #0]
			  drawInterface();
 8003e18:	f001 f8fa 	bl	8005010 <drawInterface>
		  }
		  resetBuffer();
 8003e1c:	f001 fc16 	bl	800564c <resetBuffer>
		  HAL_UART_Receive_IT(&huart1, (uint8_t*)tempBuffer, 1);
 8003e20:	2201      	movs	r2, #1
 8003e22:	4905      	ldr	r1, [pc, #20]	@ (8003e38 <main+0x98>)
 8003e24:	4805      	ldr	r0, [pc, #20]	@ (8003e3c <main+0x9c>)
 8003e26:	f003 fcb8 	bl	800779a <HAL_UART_Receive_IT>
	  }
	  HAL_Delay(500);
 8003e2a:	f44f 70fa 	mov.w	r0, #500	@ 0x1f4
 8003e2e:	f001 fef9 	bl	8005c24 <HAL_Delay>
	  allowTouch = true;
 8003e32:	e7d4      	b.n	8003dde <main+0x3e>
 8003e34:	40020400 	.word	0x40020400
 8003e38:	200005f0 	.word	0x200005f0
 8003e3c:	20000558 	.word	0x20000558
 8003e40:	20000059 	.word	0x20000059
 8003e44:	200009f6 	.word	0x200009f6
 8003e48:	200009f4 	.word	0x200009f4
 8003e4c:	200005f4 	.word	0x200005f4
 8003e50:	20000a30 	.word	0x20000a30
 8003e54:	20000a2c 	.word	0x20000a2c
 8003e58:	20000a2e 	.word	0x20000a2e

08003e5c <SystemClock_Config>:
/**
  * @brief System Clock Configuration
  * @retval None
  */
void SystemClock_Config(void)
{
 8003e5c:	b580      	push	{r7, lr}
 8003e5e:	b094      	sub	sp, #80	@ 0x50
 8003e60:	af00      	add	r7, sp, #0
  RCC_OscInitTypeDef RCC_OscInitStruct = {0};
 8003e62:	f107 0320 	add.w	r3, r7, #32
 8003e66:	2230      	movs	r2, #48	@ 0x30
 8003e68:	2100      	movs	r1, #0
 8003e6a:	4618      	mov	r0, r3
 8003e6c:	f005 fd12 	bl	8009894 <memset>
  RCC_ClkInitTypeDef RCC_ClkInitStruct = {0};
 8003e70:	f107 030c 	add.w	r3, r7, #12
 8003e74:	2200      	movs	r2, #0
 8003e76:	601a      	str	r2, [r3, #0]
 8003e78:	605a      	str	r2, [r3, #4]
 8003e7a:	609a      	str	r2, [r3, #8]
 8003e7c:	60da      	str	r2, [r3, #12]
 8003e7e:	611a      	str	r2, [r3, #16]

  /** Configure the main internal regulator output voltage
  */
  __HAL_RCC_PWR_CLK_ENABLE();
 8003e80:	2300      	movs	r3, #0
 8003e82:	60bb      	str	r3, [r7, #8]
 8003e84:	4b28      	ldr	r3, [pc, #160]	@ (8003f28 <SystemClock_Config+0xcc>)
 8003e86:	6c1b      	ldr	r3, [r3, #64]	@ 0x40
 8003e88:	4a27      	ldr	r2, [pc, #156]	@ (8003f28 <SystemClock_Config+0xcc>)
 8003e8a:	f043 5380 	orr.w	r3, r3, #268435456	@ 0x10000000
 8003e8e:	6413      	str	r3, [r2, #64]	@ 0x40
 8003e90:	4b25      	ldr	r3, [pc, #148]	@ (8003f28 <SystemClock_Config+0xcc>)
 8003e92:	6c1b      	ldr	r3, [r3, #64]	@ 0x40
 8003e94:	f003 5380 	and.w	r3, r3, #268435456	@ 0x10000000
 8003e98:	60bb      	str	r3, [r7, #8]
 8003e9a:	68bb      	ldr	r3, [r7, #8]
  __HAL_PWR_VOLTAGESCALING_CONFIG(PWR_REGULATOR_VOLTAGE_SCALE1);
 8003e9c:	2300      	movs	r3, #0
 8003e9e:	607b      	str	r3, [r7, #4]
 8003ea0:	4b22      	ldr	r3, [pc, #136]	@ (8003f2c <SystemClock_Config+0xd0>)
 8003ea2:	681b      	ldr	r3, [r3, #0]
 8003ea4:	4a21      	ldr	r2, [pc, #132]	@ (8003f2c <SystemClock_Config+0xd0>)
 8003ea6:	f443 4380 	orr.w	r3, r3, #16384	@ 0x4000
 8003eaa:	6013      	str	r3, [r2, #0]
 8003eac:	4b1f      	ldr	r3, [pc, #124]	@ (8003f2c <SystemClock_Config+0xd0>)
 8003eae:	681b      	ldr	r3, [r3, #0]
 8003eb0:	f403 4380 	and.w	r3, r3, #16384	@ 0x4000
 8003eb4:	607b      	str	r3, [r7, #4]
 8003eb6:	687b      	ldr	r3, [r7, #4]

  /** Initializes the RCC Oscillators according to the specified parameters
  * in the RCC_OscInitTypeDef structure.
  */
  RCC_OscInitStruct.OscillatorType = RCC_OSCILLATORTYPE_HSE;
 8003eb8:	2301      	movs	r3, #1
 8003eba:	623b      	str	r3, [r7, #32]
  RCC_OscInitStruct.HSEState = RCC_HSE_ON;
 8003ebc:	f44f 3380 	mov.w	r3, #65536	@ 0x10000
 8003ec0:	627b      	str	r3, [r7, #36]	@ 0x24
  RCC_OscInitStruct.PLL.PLLState = RCC_PLL_ON;
 8003ec2:	2302      	movs	r3, #2
 8003ec4:	63bb      	str	r3, [r7, #56]	@ 0x38
  RCC_OscInitStruct.PLL.PLLSource = RCC_PLLSOURCE_HSE;
 8003ec6:	f44f 0380 	mov.w	r3, #4194304	@ 0x400000
 8003eca:	63fb      	str	r3, [r7, #60]	@ 0x3c
  RCC_OscInitStruct.PLL.PLLM = 4;
 8003ecc:	2304      	movs	r3, #4
 8003ece:	643b      	str	r3, [r7, #64]	@ 0x40
  RCC_OscInitStruct.PLL.PLLN = 168;
 8003ed0:	23a8      	movs	r3, #168	@ 0xa8
 8003ed2:	647b      	str	r3, [r7, #68]	@ 0x44
  RCC_OscInitStruct.PLL.PLLP = RCC_PLLP_DIV2;
 8003ed4:	2302      	movs	r3, #2
 8003ed6:	64bb      	str	r3, [r7, #72]	@ 0x48
  RCC_OscInitStruct.PLL.PLLQ = 4;
 8003ed8:	2304      	movs	r3, #4
 8003eda:	64fb      	str	r3, [r7, #76]	@ 0x4c
  if (HAL_RCC_OscConfig(&RCC_OscInitStruct) != HAL_OK)
 8003edc:	f107 0320 	add.w	r3, r7, #32
 8003ee0:	4618      	mov	r0, r3
 8003ee2:	f002 fa4d 	bl	8006380 <HAL_RCC_OscConfig>
 8003ee6:	4603      	mov	r3, r0
 8003ee8:	2b00      	cmp	r3, #0
 8003eea:	d001      	beq.n	8003ef0 <SystemClock_Config+0x94>
  {
    Error_Handler();
 8003eec:	f001 fbca 	bl	8005684 <Error_Handler>
  }

  /** Initializes the CPU, AHB and APB buses clocks
  */
  RCC_ClkInitStruct.ClockType = RCC_CLOCKTYPE_HCLK|RCC_CLOCKTYPE_SYSCLK
 8003ef0:	230f      	movs	r3, #15
 8003ef2:	60fb      	str	r3, [r7, #12]
                              |RCC_CLOCKTYPE_PCLK1|RCC_CLOCKTYPE_PCLK2;
  RCC_ClkInitStruct.SYSCLKSource = RCC_SYSCLKSOURCE_PLLCLK;
 8003ef4:	2302      	movs	r3, #2
 8003ef6:	613b      	str	r3, [r7, #16]
  RCC_ClkInitStruct.AHBCLKDivider = RCC_SYSCLK_DIV1;
 8003ef8:	2300      	movs	r3, #0
 8003efa:	617b      	str	r3, [r7, #20]
  RCC_ClkInitStruct.APB1CLKDivider = RCC_HCLK_DIV4;
 8003efc:	f44f 53a0 	mov.w	r3, #5120	@ 0x1400
 8003f00:	61bb      	str	r3, [r7, #24]
  RCC_ClkInitStruct.APB2CLKDivider = RCC_HCLK_DIV2;
 8003f02:	f44f 5380 	mov.w	r3, #4096	@ 0x1000
 8003f06:	61fb      	str	r3, [r7, #28]

  if (HAL_RCC_ClockConfig(&RCC_ClkInitStruct, FLASH_LATENCY_5) != HAL_OK)
 8003f08:	f107 030c 	add.w	r3, r7, #12
 8003f0c:	2105      	movs	r1, #5
 8003f0e:	4618      	mov	r0, r3
 8003f10:	f002 fcae 	bl	8006870 <HAL_RCC_ClockConfig>
 8003f14:	4603      	mov	r3, r0
 8003f16:	2b00      	cmp	r3, #0
 8003f18:	d001      	beq.n	8003f1e <SystemClock_Config+0xc2>
  {
    Error_Handler();
 8003f1a:	f001 fbb3 	bl	8005684 <Error_Handler>
  }
}
 8003f1e:	bf00      	nop
 8003f20:	3750      	adds	r7, #80	@ 0x50
 8003f22:	46bd      	mov	sp, r7
 8003f24:	bd80      	pop	{r7, pc}
 8003f26:	bf00      	nop
 8003f28:	40023800 	.word	0x40023800
 8003f2c:	40007000 	.word	0x40007000

08003f30 <MX_SPI2_Init>:
  * @brief SPI2 Initialization Function
  * @param None
  * @retval None
  */
static void MX_SPI2_Init(void)
{
 8003f30:	b580      	push	{r7, lr}
 8003f32:	af00      	add	r7, sp, #0

  /* USER CODE BEGIN SPI2_Init 1 */

  /* USER CODE END SPI2_Init 1 */
  /* SPI2 parameter configuration*/
  hspi2.Instance = SPI2;
 8003f34:	4b17      	ldr	r3, [pc, #92]	@ (8003f94 <MX_SPI2_Init+0x64>)
 8003f36:	4a18      	ldr	r2, [pc, #96]	@ (8003f98 <MX_SPI2_Init+0x68>)
 8003f38:	601a      	str	r2, [r3, #0]
  hspi2.Init.Mode = SPI_MODE_MASTER;
 8003f3a:	4b16      	ldr	r3, [pc, #88]	@ (8003f94 <MX_SPI2_Init+0x64>)
 8003f3c:	f44f 7282 	mov.w	r2, #260	@ 0x104
 8003f40:	605a      	str	r2, [r3, #4]
  hspi2.Init.Direction = SPI_DIRECTION_2LINES;
 8003f42:	4b14      	ldr	r3, [pc, #80]	@ (8003f94 <MX_SPI2_Init+0x64>)
 8003f44:	2200      	movs	r2, #0
 8003f46:	609a      	str	r2, [r3, #8]
  hspi2.Init.DataSize = SPI_DATASIZE_8BIT;
 8003f48:	4b12      	ldr	r3, [pc, #72]	@ (8003f94 <MX_SPI2_Init+0x64>)
 8003f4a:	2200      	movs	r2, #0
 8003f4c:	60da      	str	r2, [r3, #12]
  hspi2.Init.CLKPolarity = SPI_POLARITY_LOW;
 8003f4e:	4b11      	ldr	r3, [pc, #68]	@ (8003f94 <MX_SPI2_Init+0x64>)
 8003f50:	2200      	movs	r2, #0
 8003f52:	611a      	str	r2, [r3, #16]
  hspi2.Init.CLKPhase = SPI_PHASE_1EDGE;
 8003f54:	4b0f      	ldr	r3, [pc, #60]	@ (8003f94 <MX_SPI2_Init+0x64>)
 8003f56:	2200      	movs	r2, #0
 8003f58:	615a      	str	r2, [r3, #20]
  hspi2.Init.NSS = SPI_NSS_SOFT;
 8003f5a:	4b0e      	ldr	r3, [pc, #56]	@ (8003f94 <MX_SPI2_Init+0x64>)
 8003f5c:	f44f 7200 	mov.w	r2, #512	@ 0x200
 8003f60:	619a      	str	r2, [r3, #24]
  hspi2.Init.BaudRatePrescaler = SPI_BAUDRATEPRESCALER_32;
 8003f62:	4b0c      	ldr	r3, [pc, #48]	@ (8003f94 <MX_SPI2_Init+0x64>)
 8003f64:	2220      	movs	r2, #32
 8003f66:	61da      	str	r2, [r3, #28]
  hspi2.Init.FirstBit = SPI_FIRSTBIT_MSB;
 8003f68:	4b0a      	ldr	r3, [pc, #40]	@ (8003f94 <MX_SPI2_Init+0x64>)
 8003f6a:	2200      	movs	r2, #0
 8003f6c:	621a      	str	r2, [r3, #32]
  hspi2.Init.TIMode = SPI_TIMODE_DISABLE;
 8003f6e:	4b09      	ldr	r3, [pc, #36]	@ (8003f94 <MX_SPI2_Init+0x64>)
 8003f70:	2200      	movs	r2, #0
 8003f72:	625a      	str	r2, [r3, #36]	@ 0x24
  hspi2.Init.CRCCalculation = SPI_CRCCALCULATION_DISABLE;
 8003f74:	4b07      	ldr	r3, [pc, #28]	@ (8003f94 <MX_SPI2_Init+0x64>)
 8003f76:	2200      	movs	r2, #0
 8003f78:	629a      	str	r2, [r3, #40]	@ 0x28
  hspi2.Init.CRCPolynomial = 10;
 8003f7a:	4b06      	ldr	r3, [pc, #24]	@ (8003f94 <MX_SPI2_Init+0x64>)
 8003f7c:	220a      	movs	r2, #10
 8003f7e:	62da      	str	r2, [r3, #44]	@ 0x2c
  if (HAL_SPI_Init(&hspi2) != HAL_OK)
 8003f80:	4804      	ldr	r0, [pc, #16]	@ (8003f94 <MX_SPI2_Init+0x64>)
 8003f82:	f002 fe95 	bl	8006cb0 <HAL_SPI_Init>
 8003f86:	4603      	mov	r3, r0
 8003f88:	2b00      	cmp	r3, #0
 8003f8a:	d001      	beq.n	8003f90 <MX_SPI2_Init+0x60>
  {
    Error_Handler();
 8003f8c:	f001 fb7a 	bl	8005684 <Error_Handler>
  }
  /* USER CODE BEGIN SPI2_Init 2 */

  /* USER CODE END SPI2_Init 2 */

}
 8003f90:	bf00      	nop
 8003f92:	bd80      	pop	{r7, pc}
 8003f94:	20000500 	.word	0x20000500
 8003f98:	40003800 	.word	0x40003800

08003f9c <MX_USART1_UART_Init>:
  * @brief USART1 Initialization Function
  * @param None
  * @retval None
  */
static void MX_USART1_UART_Init(void)
{
 8003f9c:	b580      	push	{r7, lr}
 8003f9e:	af00      	add	r7, sp, #0
  /* USER CODE END USART1_Init 0 */

  /* USER CODE BEGIN USART1_Init 1 */

  /* USER CODE END USART1_Init 1 */
  huart1.Instance = USART1;
 8003fa0:	4b11      	ldr	r3, [pc, #68]	@ (8003fe8 <MX_USART1_UART_Init+0x4c>)
 8003fa2:	4a12      	ldr	r2, [pc, #72]	@ (8003fec <MX_USART1_UART_Init+0x50>)
 8003fa4:	601a      	str	r2, [r3, #0]
  huart1.Init.BaudRate = 9600;
 8003fa6:	4b10      	ldr	r3, [pc, #64]	@ (8003fe8 <MX_USART1_UART_Init+0x4c>)
 8003fa8:	f44f 5216 	mov.w	r2, #9600	@ 0x2580
 8003fac:	605a      	str	r2, [r3, #4]
  huart1.Init.WordLength = UART_WORDLENGTH_8B;
 8003fae:	4b0e      	ldr	r3, [pc, #56]	@ (8003fe8 <MX_USART1_UART_Init+0x4c>)
 8003fb0:	2200      	movs	r2, #0
 8003fb2:	609a      	str	r2, [r3, #8]
  huart1.Init.StopBits = UART_STOPBITS_1;
 8003fb4:	4b0c      	ldr	r3, [pc, #48]	@ (8003fe8 <MX_USART1_UART_Init+0x4c>)
 8003fb6:	2200      	movs	r2, #0
 8003fb8:	60da      	str	r2, [r3, #12]
  huart1.Init.Parity = UART_PARITY_NONE;
 8003fba:	4b0b      	ldr	r3, [pc, #44]	@ (8003fe8 <MX_USART1_UART_Init+0x4c>)
 8003fbc:	2200      	movs	r2, #0
 8003fbe:	611a      	str	r2, [r3, #16]
  huart1.Init.Mode = UART_MODE_TX_RX;
 8003fc0:	4b09      	ldr	r3, [pc, #36]	@ (8003fe8 <MX_USART1_UART_Init+0x4c>)
 8003fc2:	220c      	movs	r2, #12
 8003fc4:	615a      	str	r2, [r3, #20]
  huart1.Init.HwFlowCtl = UART_HWCONTROL_NONE;
 8003fc6:	4b08      	ldr	r3, [pc, #32]	@ (8003fe8 <MX_USART1_UART_Init+0x4c>)
 8003fc8:	2200      	movs	r2, #0
 8003fca:	619a      	str	r2, [r3, #24]
  huart1.Init.OverSampling = UART_OVERSAMPLING_16;
 8003fcc:	4b06      	ldr	r3, [pc, #24]	@ (8003fe8 <MX_USART1_UART_Init+0x4c>)
 8003fce:	2200      	movs	r2, #0
 8003fd0:	61da      	str	r2, [r3, #28]
  if (HAL_UART_Init(&huart1) != HAL_OK)
 8003fd2:	4805      	ldr	r0, [pc, #20]	@ (8003fe8 <MX_USART1_UART_Init+0x4c>)
 8003fd4:	f003 fb06 	bl	80075e4 <HAL_UART_Init>
 8003fd8:	4603      	mov	r3, r0
 8003fda:	2b00      	cmp	r3, #0
 8003fdc:	d001      	beq.n	8003fe2 <MX_USART1_UART_Init+0x46>
  {
    Error_Handler();
 8003fde:	f001 fb51 	bl	8005684 <Error_Handler>
  }
  /* USER CODE BEGIN USART1_Init 2 */

  /* USER CODE END USART1_Init 2 */

}
 8003fe2:	bf00      	nop
 8003fe4:	bd80      	pop	{r7, pc}
 8003fe6:	bf00      	nop
 8003fe8:	20000558 	.word	0x20000558
 8003fec:	40011000 	.word	0x40011000

08003ff0 <MX_GPIO_Init>:
  * @brief GPIO Initialization Function
  * @param None
  * @retval None
  */
static void MX_GPIO_Init(void)
{
 8003ff0:	b580      	push	{r7, lr}
 8003ff2:	b08c      	sub	sp, #48	@ 0x30
 8003ff4:	af00      	add	r7, sp, #0
  GPIO_InitTypeDef GPIO_InitStruct = {0};
 8003ff6:	f107 031c 	add.w	r3, r7, #28
 8003ffa:	2200      	movs	r2, #0
 8003ffc:	601a      	str	r2, [r3, #0]
 8003ffe:	605a      	str	r2, [r3, #4]
 8004000:	609a      	str	r2, [r3, #8]
 8004002:	60da      	str	r2, [r3, #12]
 8004004:	611a      	str	r2, [r3, #16]
  /* USER CODE BEGIN MX_GPIO_Init_1 */
  /* USER CODE END MX_GPIO_Init_1 */

  /* GPIO Ports Clock Enable */
  __HAL_RCC_GPIOH_CLK_ENABLE();
 8004006:	2300      	movs	r3, #0
 8004008:	61bb      	str	r3, [r7, #24]
 800400a:	4b49      	ldr	r3, [pc, #292]	@ (8004130 <MX_GPIO_Init+0x140>)
 800400c:	6b1b      	ldr	r3, [r3, #48]	@ 0x30
 800400e:	4a48      	ldr	r2, [pc, #288]	@ (8004130 <MX_GPIO_Init+0x140>)
 8004010:	f043 0380 	orr.w	r3, r3, #128	@ 0x80
 8004014:	6313      	str	r3, [r2, #48]	@ 0x30
 8004016:	4b46      	ldr	r3, [pc, #280]	@ (8004130 <MX_GPIO_Init+0x140>)
 8004018:	6b1b      	ldr	r3, [r3, #48]	@ 0x30
 800401a:	f003 0380 	and.w	r3, r3, #128	@ 0x80
 800401e:	61bb      	str	r3, [r7, #24]
 8004020:	69bb      	ldr	r3, [r7, #24]
  __HAL_RCC_GPIOC_CLK_ENABLE();
 8004022:	2300      	movs	r3, #0
 8004024:	617b      	str	r3, [r7, #20]
 8004026:	4b42      	ldr	r3, [pc, #264]	@ (8004130 <MX_GPIO_Init+0x140>)
 8004028:	6b1b      	ldr	r3, [r3, #48]	@ 0x30
 800402a:	4a41      	ldr	r2, [pc, #260]	@ (8004130 <MX_GPIO_Init+0x140>)
 800402c:	f043 0304 	orr.w	r3, r3, #4
 8004030:	6313      	str	r3, [r2, #48]	@ 0x30
 8004032:	4b3f      	ldr	r3, [pc, #252]	@ (8004130 <MX_GPIO_Init+0x140>)
 8004034:	6b1b      	ldr	r3, [r3, #48]	@ 0x30
 8004036:	f003 0304 	and.w	r3, r3, #4
 800403a:	617b      	str	r3, [r7, #20]
 800403c:	697b      	ldr	r3, [r7, #20]
  __HAL_RCC_GPIOB_CLK_ENABLE();
 800403e:	2300      	movs	r3, #0
 8004040:	613b      	str	r3, [r7, #16]
 8004042:	4b3b      	ldr	r3, [pc, #236]	@ (8004130 <MX_GPIO_Init+0x140>)
 8004044:	6b1b      	ldr	r3, [r3, #48]	@ 0x30
 8004046:	4a3a      	ldr	r2, [pc, #232]	@ (8004130 <MX_GPIO_Init+0x140>)
 8004048:	f043 0302 	orr.w	r3, r3, #2
 800404c:	6313      	str	r3, [r2, #48]	@ 0x30
 800404e:	4b38      	ldr	r3, [pc, #224]	@ (8004130 <MX_GPIO_Init+0x140>)
 8004050:	6b1b      	ldr	r3, [r3, #48]	@ 0x30
 8004052:	f003 0302 	and.w	r3, r3, #2
 8004056:	613b      	str	r3, [r7, #16]
 8004058:	693b      	ldr	r3, [r7, #16]
  __HAL_RCC_GPIOE_CLK_ENABLE();
 800405a:	2300      	movs	r3, #0
 800405c:	60fb      	str	r3, [r7, #12]
 800405e:	4b34      	ldr	r3, [pc, #208]	@ (8004130 <MX_GPIO_Init+0x140>)
 8004060:	6b1b      	ldr	r3, [r3, #48]	@ 0x30
 8004062:	4a33      	ldr	r2, [pc, #204]	@ (8004130 <MX_GPIO_Init+0x140>)
 8004064:	f043 0310 	orr.w	r3, r3, #16
 8004068:	6313      	str	r3, [r2, #48]	@ 0x30
 800406a:	4b31      	ldr	r3, [pc, #196]	@ (8004130 <MX_GPIO_Init+0x140>)
 800406c:	6b1b      	ldr	r3, [r3, #48]	@ 0x30
 800406e:	f003 0310 	and.w	r3, r3, #16
 8004072:	60fb      	str	r3, [r7, #12]
 8004074:	68fb      	ldr	r3, [r7, #12]
  __HAL_RCC_GPIOD_CLK_ENABLE();
 8004076:	2300      	movs	r3, #0
 8004078:	60bb      	str	r3, [r7, #8]
 800407a:	4b2d      	ldr	r3, [pc, #180]	@ (8004130 <MX_GPIO_Init+0x140>)
 800407c:	6b1b      	ldr	r3, [r3, #48]	@ 0x30
 800407e:	4a2c      	ldr	r2, [pc, #176]	@ (8004130 <MX_GPIO_Init+0x140>)
 8004080:	f043 0308 	orr.w	r3, r3, #8
 8004084:	6313      	str	r3, [r2, #48]	@ 0x30
 8004086:	4b2a      	ldr	r3, [pc, #168]	@ (8004130 <MX_GPIO_Init+0x140>)
 8004088:	6b1b      	ldr	r3, [r3, #48]	@ 0x30
 800408a:	f003 0308 	and.w	r3, r3, #8
 800408e:	60bb      	str	r3, [r7, #8]
 8004090:	68bb      	ldr	r3, [r7, #8]
  __HAL_RCC_GPIOA_CLK_ENABLE();
 8004092:	2300      	movs	r3, #0
 8004094:	607b      	str	r3, [r7, #4]
 8004096:	4b26      	ldr	r3, [pc, #152]	@ (8004130 <MX_GPIO_Init+0x140>)
 8004098:	6b1b      	ldr	r3, [r3, #48]	@ 0x30
 800409a:	4a25      	ldr	r2, [pc, #148]	@ (8004130 <MX_GPIO_Init+0x140>)
 800409c:	f043 0301 	orr.w	r3, r3, #1
 80040a0:	6313      	str	r3, [r2, #48]	@ 0x30
 80040a2:	4b23      	ldr	r3, [pc, #140]	@ (8004130 <MX_GPIO_Init+0x140>)
 80040a4:	6b1b      	ldr	r3, [r3, #48]	@ 0x30
 80040a6:	f003 0301 	and.w	r3, r3, #1
 80040aa:	607b      	str	r3, [r7, #4]
 80040ac:	687b      	ldr	r3, [r7, #4]

  /*Configure GPIO pin Output Level */
  HAL_GPIO_WritePin(LCD_BL_GPIO_Port, LCD_BL_Pin, GPIO_PIN_RESET);
 80040ae:	2200      	movs	r2, #0
 80040b0:	2102      	movs	r1, #2
 80040b2:	4820      	ldr	r0, [pc, #128]	@ (8004134 <MX_GPIO_Init+0x144>)
 80040b4:	f002 f932 	bl	800631c <HAL_GPIO_WritePin>

  /*Configure GPIO pin Output Level */
  HAL_GPIO_WritePin(T_CS_GPIO_Port, T_CS_Pin, GPIO_PIN_SET);
 80040b8:	2201      	movs	r2, #1
 80040ba:	f44f 5180 	mov.w	r1, #4096	@ 0x1000
 80040be:	481d      	ldr	r0, [pc, #116]	@ (8004134 <MX_GPIO_Init+0x144>)
 80040c0:	f002 f92c 	bl	800631c <HAL_GPIO_WritePin>

  /*Configure GPIO pin : T_IRQ_Pin */
  GPIO_InitStruct.Pin = T_IRQ_Pin;
 80040c4:	2320      	movs	r3, #32
 80040c6:	61fb      	str	r3, [r7, #28]
  GPIO_InitStruct.Mode = GPIO_MODE_IT_FALLING;
 80040c8:	f44f 1304 	mov.w	r3, #2162688	@ 0x210000
 80040cc:	623b      	str	r3, [r7, #32]
  GPIO_InitStruct.Pull = GPIO_PULLUP;
 80040ce:	2301      	movs	r3, #1
 80040d0:	627b      	str	r3, [r7, #36]	@ 0x24
  HAL_GPIO_Init(T_IRQ_GPIO_Port, &GPIO_InitStruct);
 80040d2:	f107 031c 	add.w	r3, r7, #28
 80040d6:	4619      	mov	r1, r3
 80040d8:	4817      	ldr	r0, [pc, #92]	@ (8004138 <MX_GPIO_Init+0x148>)
 80040da:	f001 ff6b 	bl	8005fb4 <HAL_GPIO_Init>

  /*Configure GPIO pin : LCD_BL_Pin */
  GPIO_InitStruct.Pin = LCD_BL_Pin;
 80040de:	2302      	movs	r3, #2
 80040e0:	61fb      	str	r3, [r7, #28]
  GPIO_InitStruct.Mode = GPIO_MODE_OUTPUT_PP;
 80040e2:	2301      	movs	r3, #1
 80040e4:	623b      	str	r3, [r7, #32]
  GPIO_InitStruct.Pull = GPIO_NOPULL;
 80040e6:	2300      	movs	r3, #0
 80040e8:	627b      	str	r3, [r7, #36]	@ 0x24
  GPIO_InitStruct.Speed = GPIO_SPEED_FREQ_LOW;
 80040ea:	2300      	movs	r3, #0
 80040ec:	62bb      	str	r3, [r7, #40]	@ 0x28
  HAL_GPIO_Init(LCD_BL_GPIO_Port, &GPIO_InitStruct);
 80040ee:	f107 031c 	add.w	r3, r7, #28
 80040f2:	4619      	mov	r1, r3
 80040f4:	480f      	ldr	r0, [pc, #60]	@ (8004134 <MX_GPIO_Init+0x144>)
 80040f6:	f001 ff5d 	bl	8005fb4 <HAL_GPIO_Init>

  /*Configure GPIO pin : T_CS_Pin */
  GPIO_InitStruct.Pin = T_CS_Pin;
 80040fa:	f44f 5380 	mov.w	r3, #4096	@ 0x1000
 80040fe:	61fb      	str	r3, [r7, #28]
  GPIO_InitStruct.Mode = GPIO_MODE_OUTPUT_PP;
 8004100:	2301      	movs	r3, #1
 8004102:	623b      	str	r3, [r7, #32]
  GPIO_InitStruct.Pull = GPIO_PULLUP;
 8004104:	2301      	movs	r3, #1
 8004106:	627b      	str	r3, [r7, #36]	@ 0x24
  GPIO_InitStruct.Speed = GPIO_SPEED_FREQ_HIGH;
 8004108:	2302      	movs	r3, #2
 800410a:	62bb      	str	r3, [r7, #40]	@ 0x28
  HAL_GPIO_Init(T_CS_GPIO_Port, &GPIO_InitStruct);
 800410c:	f107 031c 	add.w	r3, r7, #28
 8004110:	4619      	mov	r1, r3
 8004112:	4808      	ldr	r0, [pc, #32]	@ (8004134 <MX_GPIO_Init+0x144>)
 8004114:	f001 ff4e 	bl	8005fb4 <HAL_GPIO_Init>

  /* EXTI interrupt init*/
  HAL_NVIC_SetPriority(EXTI9_5_IRQn, 0, 0);
 8004118:	2200      	movs	r2, #0
 800411a:	2100      	movs	r1, #0
 800411c:	2017      	movs	r0, #23
 800411e:	f001 fe80 	bl	8005e22 <HAL_NVIC_SetPriority>
  HAL_NVIC_EnableIRQ(EXTI9_5_IRQn);
 8004122:	2017      	movs	r0, #23
 8004124:	f001 fe99 	bl	8005e5a <HAL_NVIC_EnableIRQ>

  /* USER CODE BEGIN MX_GPIO_Init_2 */
  /* USER CODE END MX_GPIO_Init_2 */
}
 8004128:	bf00      	nop
 800412a:	3730      	adds	r7, #48	@ 0x30
 800412c:	46bd      	mov	sp, r7
 800412e:	bd80      	pop	{r7, pc}
 8004130:	40023800 	.word	0x40023800
 8004134:	40020400 	.word	0x40020400
 8004138:	40020800 	.word	0x40020800

0800413c <MX_FSMC_Init>:

/* FSMC initialization function */
static void MX_FSMC_Init(void)
{
 800413c:	b580      	push	{r7, lr}
 800413e:	b088      	sub	sp, #32
 8004140:	af00      	add	r7, sp, #0

  /* USER CODE BEGIN FSMC_Init 0 */

  /* USER CODE END FSMC_Init 0 */

  FSMC_NORSRAM_TimingTypeDef Timing = {0};
 8004142:	1d3b      	adds	r3, r7, #4
 8004144:	2200      	movs	r2, #0
 8004146:	601a      	str	r2, [r3, #0]
 8004148:	605a      	str	r2, [r3, #4]
 800414a:	609a      	str	r2, [r3, #8]
 800414c:	60da      	str	r2, [r3, #12]
 800414e:	611a      	str	r2, [r3, #16]
 8004150:	615a      	str	r2, [r3, #20]
 8004152:	619a      	str	r2, [r3, #24]

  /* USER CODE END FSMC_Init 1 */

  /** Perform the SRAM1 memory initialization sequence
  */
  hsram1.Instance = FSMC_NORSRAM_DEVICE;
 8004154:	4b27      	ldr	r3, [pc, #156]	@ (80041f4 <MX_FSMC_Init+0xb8>)
 8004156:	f04f 4220 	mov.w	r2, #2684354560	@ 0xa0000000
 800415a:	601a      	str	r2, [r3, #0]
  hsram1.Extended = FSMC_NORSRAM_EXTENDED_DEVICE;
 800415c:	4b25      	ldr	r3, [pc, #148]	@ (80041f4 <MX_FSMC_Init+0xb8>)
 800415e:	4a26      	ldr	r2, [pc, #152]	@ (80041f8 <MX_FSMC_Init+0xbc>)
 8004160:	605a      	str	r2, [r3, #4]
  /* hsram1.Init */
  hsram1.Init.NSBank = FSMC_NORSRAM_BANK1;
 8004162:	4b24      	ldr	r3, [pc, #144]	@ (80041f4 <MX_FSMC_Init+0xb8>)
 8004164:	2200      	movs	r2, #0
 8004166:	609a      	str	r2, [r3, #8]
  hsram1.Init.DataAddressMux = FSMC_DATA_ADDRESS_MUX_DISABLE;
 8004168:	4b22      	ldr	r3, [pc, #136]	@ (80041f4 <MX_FSMC_Init+0xb8>)
 800416a:	2200      	movs	r2, #0
 800416c:	60da      	str	r2, [r3, #12]
  hsram1.Init.MemoryType = FSMC_MEMORY_TYPE_SRAM;
 800416e:	4b21      	ldr	r3, [pc, #132]	@ (80041f4 <MX_FSMC_Init+0xb8>)
 8004170:	2200      	movs	r2, #0
 8004172:	611a      	str	r2, [r3, #16]
  hsram1.Init.MemoryDataWidth = FSMC_NORSRAM_MEM_BUS_WIDTH_16;
 8004174:	4b1f      	ldr	r3, [pc, #124]	@ (80041f4 <MX_FSMC_Init+0xb8>)
 8004176:	2210      	movs	r2, #16
 8004178:	615a      	str	r2, [r3, #20]
  hsram1.Init.BurstAccessMode = FSMC_BURST_ACCESS_MODE_DISABLE;
 800417a:	4b1e      	ldr	r3, [pc, #120]	@ (80041f4 <MX_FSMC_Init+0xb8>)
 800417c:	2200      	movs	r2, #0
 800417e:	619a      	str	r2, [r3, #24]
  hsram1.Init.WaitSignalPolarity = FSMC_WAIT_SIGNAL_POLARITY_LOW;
 8004180:	4b1c      	ldr	r3, [pc, #112]	@ (80041f4 <MX_FSMC_Init+0xb8>)
 8004182:	2200      	movs	r2, #0
 8004184:	61da      	str	r2, [r3, #28]
  hsram1.Init.WrapMode = FSMC_WRAP_MODE_DISABLE;
 8004186:	4b1b      	ldr	r3, [pc, #108]	@ (80041f4 <MX_FSMC_Init+0xb8>)
 8004188:	2200      	movs	r2, #0
 800418a:	621a      	str	r2, [r3, #32]
  hsram1.Init.WaitSignalActive = FSMC_WAIT_TIMING_BEFORE_WS;
 800418c:	4b19      	ldr	r3, [pc, #100]	@ (80041f4 <MX_FSMC_Init+0xb8>)
 800418e:	2200      	movs	r2, #0
 8004190:	625a      	str	r2, [r3, #36]	@ 0x24
  hsram1.Init.WriteOperation = FSMC_WRITE_OPERATION_ENABLE;
 8004192:	4b18      	ldr	r3, [pc, #96]	@ (80041f4 <MX_FSMC_Init+0xb8>)
 8004194:	f44f 5280 	mov.w	r2, #4096	@ 0x1000
 8004198:	629a      	str	r2, [r3, #40]	@ 0x28
  hsram1.Init.WaitSignal = FSMC_WAIT_SIGNAL_DISABLE;
 800419a:	4b16      	ldr	r3, [pc, #88]	@ (80041f4 <MX_FSMC_Init+0xb8>)
 800419c:	2200      	movs	r2, #0
 800419e:	62da      	str	r2, [r3, #44]	@ 0x2c
  hsram1.Init.ExtendedMode = FSMC_EXTENDED_MODE_DISABLE;
 80041a0:	4b14      	ldr	r3, [pc, #80]	@ (80041f4 <MX_FSMC_Init+0xb8>)
 80041a2:	2200      	movs	r2, #0
 80041a4:	631a      	str	r2, [r3, #48]	@ 0x30
  hsram1.Init.AsynchronousWait = FSMC_ASYNCHRONOUS_WAIT_DISABLE;
 80041a6:	4b13      	ldr	r3, [pc, #76]	@ (80041f4 <MX_FSMC_Init+0xb8>)
 80041a8:	2200      	movs	r2, #0
 80041aa:	635a      	str	r2, [r3, #52]	@ 0x34
  hsram1.Init.WriteBurst = FSMC_WRITE_BURST_DISABLE;
 80041ac:	4b11      	ldr	r3, [pc, #68]	@ (80041f4 <MX_FSMC_Init+0xb8>)
 80041ae:	2200      	movs	r2, #0
 80041b0:	639a      	str	r2, [r3, #56]	@ 0x38
  hsram1.Init.PageSize = FSMC_PAGE_SIZE_NONE;
 80041b2:	4b10      	ldr	r3, [pc, #64]	@ (80041f4 <MX_FSMC_Init+0xb8>)
 80041b4:	2200      	movs	r2, #0
 80041b6:	645a      	str	r2, [r3, #68]	@ 0x44
  /* Timing */
  Timing.AddressSetupTime = 1;
 80041b8:	2301      	movs	r3, #1
 80041ba:	607b      	str	r3, [r7, #4]
  Timing.AddressHoldTime = 15;
 80041bc:	230f      	movs	r3, #15
 80041be:	60bb      	str	r3, [r7, #8]
  Timing.DataSetupTime = 5;
 80041c0:	2305      	movs	r3, #5
 80041c2:	60fb      	str	r3, [r7, #12]
  Timing.BusTurnAroundDuration = 0;
 80041c4:	2300      	movs	r3, #0
 80041c6:	613b      	str	r3, [r7, #16]
  Timing.CLKDivision = 16;
 80041c8:	2310      	movs	r3, #16
 80041ca:	617b      	str	r3, [r7, #20]
  Timing.DataLatency = 17;
 80041cc:	2311      	movs	r3, #17
 80041ce:	61bb      	str	r3, [r7, #24]
  Timing.AccessMode = FSMC_ACCESS_MODE_A;
 80041d0:	2300      	movs	r3, #0
 80041d2:	61fb      	str	r3, [r7, #28]
  /* ExtTiming */

  if (HAL_SRAM_Init(&hsram1, &Timing, NULL) != HAL_OK)
 80041d4:	1d3b      	adds	r3, r7, #4
 80041d6:	2200      	movs	r2, #0
 80041d8:	4619      	mov	r1, r3
 80041da:	4806      	ldr	r0, [pc, #24]	@ (80041f4 <MX_FSMC_Init+0xb8>)
 80041dc:	f003 f9ba 	bl	8007554 <HAL_SRAM_Init>
 80041e0:	4603      	mov	r3, r0
 80041e2:	2b00      	cmp	r3, #0
 80041e4:	d001      	beq.n	80041ea <MX_FSMC_Init+0xae>
  {
    Error_Handler( );
 80041e6:	f001 fa4d 	bl	8005684 <Error_Handler>
  }

  /* USER CODE BEGIN FSMC_Init 2 */

  /* USER CODE END FSMC_Init 2 */
}
 80041ea:	bf00      	nop
 80041ec:	3720      	adds	r7, #32
 80041ee:	46bd      	mov	sp, r7
 80041f0:	bd80      	pop	{r7, pc}
 80041f2:	bf00      	nop
 80041f4:	200005a0 	.word	0x200005a0
 80041f8:	a0000104 	.word	0xa0000104

080041fc <drawBackIcon>:

/* USER CODE BEGIN 4 */
void drawBackIcon()
{
 80041fc:	b580      	push	{r7, lr}
 80041fe:	b084      	sub	sp, #16
 8004200:	af04      	add	r7, sp, #16
	lcdFillRoundRect(0, 0, 27, 23, 8, COLOR_WHITE);
 8004202:	f64f 73ff 	movw	r3, #65535	@ 0xffff
 8004206:	9301      	str	r3, [sp, #4]
 8004208:	2308      	movs	r3, #8
 800420a:	9300      	str	r3, [sp, #0]
 800420c:	2317      	movs	r3, #23
 800420e:	221b      	movs	r2, #27
 8004210:	2100      	movs	r1, #0
 8004212:	2000      	movs	r0, #0
 8004214:	f7fe ffe2 	bl	80031dc <lcdFillRoundRect>
	lcdFillRect(10, 7, 13, 8, COLOR_BLACK);
 8004218:	2300      	movs	r3, #0
 800421a:	9300      	str	r3, [sp, #0]
 800421c:	2308      	movs	r3, #8
 800421e:	220d      	movs	r2, #13
 8004220:	2107      	movs	r1, #7
 8004222:	200a      	movs	r0, #10
 8004224:	f7fe ff7e 	bl	8003124 <lcdFillRect>
	lcdFillTriangle(1, 11, 13, 2, 13, 20, COLOR_BLACK);
 8004228:	2300      	movs	r3, #0
 800422a:	9302      	str	r3, [sp, #8]
 800422c:	2314      	movs	r3, #20
 800422e:	9301      	str	r3, [sp, #4]
 8004230:	230d      	movs	r3, #13
 8004232:	9300      	str	r3, [sp, #0]
 8004234:	2302      	movs	r3, #2
 8004236:	220d      	movs	r2, #13
 8004238:	210b      	movs	r1, #11
 800423a:	2001      	movs	r0, #1
 800423c:	f7ff f833 	bl	80032a6 <lcdFillTriangle>
}
 8004240:	bf00      	nop
 8004242:	46bd      	mov	sp, r7
 8004244:	bd80      	pop	{r7, pc}
	...

08004248 <drawKeyboard>:

void drawKeyboard()
{
 8004248:	b580      	push	{r7, lr}
 800424a:	b08c      	sub	sp, #48	@ 0x30
 800424c:	af02      	add	r7, sp, #8
	lcdSetTextFont(&Font12);
 800424e:	485b      	ldr	r0, [pc, #364]	@ (80043bc <drawKeyboard+0x174>)
 8004250:	f7ff fc18 	bl	8003a84 <lcdSetTextFont>
	lcdSetTextColor(COLOR_BLACK, COLOR_BLACK);
 8004254:	2100      	movs	r1, #0
 8004256:	2000      	movs	r0, #0
 8004258:	f7ff fc24 	bl	8003aa4 <lcdSetTextColor>
	for (int y = 200; y < 320; y++)
 800425c:	23c8      	movs	r3, #200	@ 0xc8
 800425e:	627b      	str	r3, [r7, #36]	@ 0x24
 8004260:	e014      	b.n	800428c <drawKeyboard+0x44>
	{
		for (int x = 0; x < 240; x++)
 8004262:	2300      	movs	r3, #0
 8004264:	623b      	str	r3, [r7, #32]
 8004266:	e00b      	b.n	8004280 <drawKeyboard+0x38>
		{
			lcdDrawPixel(x, y, COLOR_WHITE);
 8004268:	6a3b      	ldr	r3, [r7, #32]
 800426a:	b29b      	uxth	r3, r3
 800426c:	6a7a      	ldr	r2, [r7, #36]	@ 0x24
 800426e:	b291      	uxth	r1, r2
 8004270:	f64f 72ff 	movw	r2, #65535	@ 0xffff
 8004274:	4618      	mov	r0, r3
 8004276:	f7fe fd25 	bl	8002cc4 <lcdDrawPixel>
		for (int x = 0; x < 240; x++)
 800427a:	6a3b      	ldr	r3, [r7, #32]
 800427c:	3301      	adds	r3, #1
 800427e:	623b      	str	r3, [r7, #32]
 8004280:	6a3b      	ldr	r3, [r7, #32]
 8004282:	2bef      	cmp	r3, #239	@ 0xef
 8004284:	ddf0      	ble.n	8004268 <drawKeyboard+0x20>
	for (int y = 200; y < 320; y++)
 8004286:	6a7b      	ldr	r3, [r7, #36]	@ 0x24
 8004288:	3301      	adds	r3, #1
 800428a:	627b      	str	r3, [r7, #36]	@ 0x24
 800428c:	6a7b      	ldr	r3, [r7, #36]	@ 0x24
 800428e:	f5b3 7fa0 	cmp.w	r3, #320	@ 0x140
 8004292:	dbe6      	blt.n	8004262 <drawKeyboard+0x1a>
		}
	}
    int column = 0, row = 0;
 8004294:	2300      	movs	r3, #0
 8004296:	61fb      	str	r3, [r7, #28]
 8004298:	2300      	movs	r3, #0
 800429a:	61bb      	str	r3, [r7, #24]

    for (int i = 0; i < (sizeof(keyMap) / sizeof(keyMap[0])) - 1; i++)
 800429c:	2300      	movs	r3, #0
 800429e:	617b      	str	r3, [r7, #20]
 80042a0:	e032      	b.n	8004308 <drawKeyboard+0xc0>
    {
    	int x = keyboardX0 + column * keyboardButtonWidth;
 80042a2:	2300      	movs	r3, #0
 80042a4:	461a      	mov	r2, r3
 80042a6:	2318      	movs	r3, #24
 80042a8:	4619      	mov	r1, r3
 80042aa:	69fb      	ldr	r3, [r7, #28]
 80042ac:	fb01 f303 	mul.w	r3, r1, r3
 80042b0:	4413      	add	r3, r2
 80042b2:	60bb      	str	r3, [r7, #8]
    	int y = keyboardY0 + row * keyboardButtonHeight;
 80042b4:	23c8      	movs	r3, #200	@ 0xc8
 80042b6:	461a      	mov	r2, r3
 80042b8:	231e      	movs	r3, #30
 80042ba:	4619      	mov	r1, r3
 80042bc:	69bb      	ldr	r3, [r7, #24]
 80042be:	fb01 f303 	mul.w	r3, r1, r3
 80042c2:	4413      	add	r3, r2
 80042c4:	607b      	str	r3, [r7, #4]
        lcdSetCursor(x + 8, y + 10);
 80042c6:	68bb      	ldr	r3, [r7, #8]
 80042c8:	b29b      	uxth	r3, r3
 80042ca:	3308      	adds	r3, #8
 80042cc:	b29a      	uxth	r2, r3
 80042ce:	687b      	ldr	r3, [r7, #4]
 80042d0:	b29b      	uxth	r3, r3
 80042d2:	330a      	adds	r3, #10
 80042d4:	b29b      	uxth	r3, r3
 80042d6:	4619      	mov	r1, r3
 80042d8:	4610      	mov	r0, r2
 80042da:	f7ff fc63 	bl	8003ba4 <lcdSetCursor>
        lcdPrintfNoBackColor((char*)keyMap[i]);
 80042de:	4a38      	ldr	r2, [pc, #224]	@ (80043c0 <drawKeyboard+0x178>)
 80042e0:	697b      	ldr	r3, [r7, #20]
 80042e2:	f852 3023 	ldr.w	r3, [r2, r3, lsl #2]
 80042e6:	4618      	mov	r0, r3
 80042e8:	f7ff fb46 	bl	8003978 <lcdPrintfNoBackColor>

        column++;
 80042ec:	69fb      	ldr	r3, [r7, #28]
 80042ee:	3301      	adds	r3, #1
 80042f0:	61fb      	str	r3, [r7, #28]
        if (column == 10)
 80042f2:	69fb      	ldr	r3, [r7, #28]
 80042f4:	2b0a      	cmp	r3, #10
 80042f6:	d104      	bne.n	8004302 <drawKeyboard+0xba>
        {
            column = 0;
 80042f8:	2300      	movs	r3, #0
 80042fa:	61fb      	str	r3, [r7, #28]
            row++;
 80042fc:	69bb      	ldr	r3, [r7, #24]
 80042fe:	3301      	adds	r3, #1
 8004300:	61bb      	str	r3, [r7, #24]
    for (int i = 0; i < (sizeof(keyMap) / sizeof(keyMap[0])) - 1; i++)
 8004302:	697b      	ldr	r3, [r7, #20]
 8004304:	3301      	adds	r3, #1
 8004306:	617b      	str	r3, [r7, #20]
 8004308:	697b      	ldr	r3, [r7, #20]
 800430a:	2b26      	cmp	r3, #38	@ 0x26
 800430c:	d9c9      	bls.n	80042a2 <drawKeyboard+0x5a>
        }
    }
    lcdDrawLine(0, 230, 240, 230, COLOR_BLACK);
 800430e:	2300      	movs	r3, #0
 8004310:	9300      	str	r3, [sp, #0]
 8004312:	23e6      	movs	r3, #230	@ 0xe6
 8004314:	22f0      	movs	r2, #240	@ 0xf0
 8004316:	21e6      	movs	r1, #230	@ 0xe6
 8004318:	2000      	movs	r0, #0
 800431a:	f7fe fd8d 	bl	8002e38 <lcdDrawLine>
    lcdDrawLine(0, 260, 240, 260, COLOR_BLACK);
 800431e:	2300      	movs	r3, #0
 8004320:	9300      	str	r3, [sp, #0]
 8004322:	f44f 7382 	mov.w	r3, #260	@ 0x104
 8004326:	22f0      	movs	r2, #240	@ 0xf0
 8004328:	f44f 7182 	mov.w	r1, #260	@ 0x104
 800432c:	2000      	movs	r0, #0
 800432e:	f7fe fd83 	bl	8002e38 <lcdDrawLine>
    lcdDrawLine(0, 290, 240, 290, COLOR_BLACK);
 8004332:	2300      	movs	r3, #0
 8004334:	9300      	str	r3, [sp, #0]
 8004336:	f44f 7391 	mov.w	r3, #290	@ 0x122
 800433a:	22f0      	movs	r2, #240	@ 0xf0
 800433c:	f44f 7191 	mov.w	r1, #290	@ 0x122
 8004340:	2000      	movs	r0, #0
 8004342:	f7fe fd79 	bl	8002e38 <lcdDrawLine>
    lcdDrawLine(0, 200, 240, 200, COLOR_BLACK);
 8004346:	2300      	movs	r3, #0
 8004348:	9300      	str	r3, [sp, #0]
 800434a:	23c8      	movs	r3, #200	@ 0xc8
 800434c:	22f0      	movs	r2, #240	@ 0xf0
 800434e:	21c8      	movs	r1, #200	@ 0xc8
 8004350:	2000      	movs	r0, #0
 8004352:	f7fe fd71 	bl	8002e38 <lcdDrawLine>
    for (int i = 1; i <= 8; i++)
 8004356:	2301      	movs	r3, #1
 8004358:	613b      	str	r3, [r7, #16]
 800435a:	e016      	b.n	800438a <drawKeyboard+0x142>
    {
    	int x = keyboardX0 + i * keyboardButtonWidth;
 800435c:	2300      	movs	r3, #0
 800435e:	461a      	mov	r2, r3
 8004360:	2318      	movs	r3, #24
 8004362:	4619      	mov	r1, r3
 8004364:	693b      	ldr	r3, [r7, #16]
 8004366:	fb01 f303 	mul.w	r3, r1, r3
 800436a:	4413      	add	r3, r2
 800436c:	60fb      	str	r3, [r7, #12]
    	lcdDrawLine(x, 200, x, 320, COLOR_BLACK);
 800436e:	68fb      	ldr	r3, [r7, #12]
 8004370:	b218      	sxth	r0, r3
 8004372:	68fb      	ldr	r3, [r7, #12]
 8004374:	b21a      	sxth	r2, r3
 8004376:	2300      	movs	r3, #0
 8004378:	9300      	str	r3, [sp, #0]
 800437a:	f44f 73a0 	mov.w	r3, #320	@ 0x140
 800437e:	21c8      	movs	r1, #200	@ 0xc8
 8004380:	f7fe fd5a 	bl	8002e38 <lcdDrawLine>
    for (int i = 1; i <= 8; i++)
 8004384:	693b      	ldr	r3, [r7, #16]
 8004386:	3301      	adds	r3, #1
 8004388:	613b      	str	r3, [r7, #16]
 800438a:	693b      	ldr	r3, [r7, #16]
 800438c:	2b08      	cmp	r3, #8
 800438e:	dde5      	ble.n	800435c <drawKeyboard+0x114>
    }
    lcdDrawLine(216, 200, 216, 290, COLOR_BLACK);
 8004390:	2300      	movs	r3, #0
 8004392:	9300      	str	r3, [sp, #0]
 8004394:	f44f 7391 	mov.w	r3, #290	@ 0x122
 8004398:	22d8      	movs	r2, #216	@ 0xd8
 800439a:	21c8      	movs	r1, #200	@ 0xc8
 800439c:	20d8      	movs	r0, #216	@ 0xd8
 800439e:	f7fe fd4b 	bl	8002e38 <lcdDrawLine>
    lcdDrawLine(239, 230, 239, 320, COLOR_BLACK);
 80043a2:	2300      	movs	r3, #0
 80043a4:	9300      	str	r3, [sp, #0]
 80043a6:	f44f 73a0 	mov.w	r3, #320	@ 0x140
 80043aa:	22ef      	movs	r2, #239	@ 0xef
 80043ac:	21e6      	movs	r1, #230	@ 0xe6
 80043ae:	20ef      	movs	r0, #239	@ 0xef
 80043b0:	f7fe fd42 	bl	8002e38 <lcdDrawLine>
}
 80043b4:	bf00      	nop
 80043b6:	3728      	adds	r7, #40	@ 0x28
 80043b8:	46bd      	mov	sp, r7
 80043ba:	bd80      	pop	{r7, pc}
 80043bc:	2000000c 	.word	0x2000000c
 80043c0:	20000060 	.word	0x20000060

080043c4 <applyShift>:

char applyShift(char character)
{
 80043c4:	b480      	push	{r7}
 80043c6:	b083      	sub	sp, #12
 80043c8:	af00      	add	r7, sp, #0
 80043ca:	4603      	mov	r3, r0
 80043cc:	71fb      	strb	r3, [r7, #7]
    if (character >= 'a' && character <= 'z')
 80043ce:	79fb      	ldrb	r3, [r7, #7]
 80043d0:	2b60      	cmp	r3, #96	@ 0x60
 80043d2:	d906      	bls.n	80043e2 <applyShift+0x1e>
 80043d4:	79fb      	ldrb	r3, [r7, #7]
 80043d6:	2b7a      	cmp	r3, #122	@ 0x7a
 80043d8:	d803      	bhi.n	80043e2 <applyShift+0x1e>
    {
        return character - ('a' - 'A');
 80043da:	79fb      	ldrb	r3, [r7, #7]
 80043dc:	3b20      	subs	r3, #32
 80043de:	b2db      	uxtb	r3, r3
 80043e0:	e000      	b.n	80043e4 <applyShift+0x20>
    }
    return character;
 80043e2:	79fb      	ldrb	r3, [r7, #7]
}
 80043e4:	4618      	mov	r0, r3
 80043e6:	370c      	adds	r7, #12
 80043e8:	46bd      	mov	sp, r7
 80043ea:	f85d 7b04 	ldr.w	r7, [sp], #4
 80043ee:	4770      	bx	lr

080043f0 <handleKeyboardTouch>:

void handleKeyboardTouch()
{
 80043f0:	b580      	push	{r7, lr}
 80043f2:	b082      	sub	sp, #8
 80043f4:	af00      	add	r7, sp, #0
	if ((yCoordinates <= 23 && xCoordinates <= 27) && menu != 1)
 80043f6:	4b54      	ldr	r3, [pc, #336]	@ (8004548 <handleKeyboardTouch+0x158>)
 80043f8:	881b      	ldrh	r3, [r3, #0]
 80043fa:	2b17      	cmp	r3, #23
 80043fc:	d80a      	bhi.n	8004414 <handleKeyboardTouch+0x24>
 80043fe:	4b53      	ldr	r3, [pc, #332]	@ (800454c <handleKeyboardTouch+0x15c>)
 8004400:	881b      	ldrh	r3, [r3, #0]
 8004402:	2b1b      	cmp	r3, #27
 8004404:	d806      	bhi.n	8004414 <handleKeyboardTouch+0x24>
 8004406:	4b52      	ldr	r3, [pc, #328]	@ (8004550 <handleKeyboardTouch+0x160>)
 8004408:	781b      	ldrb	r3, [r3, #0]
 800440a:	2b01      	cmp	r3, #1
 800440c:	d002      	beq.n	8004414 <handleKeyboardTouch+0x24>
	{
		mainMenu();
 800440e:	f000 fa31 	bl	8004874 <mainMenu>
		return;
 8004412:	e095      	b.n	8004540 <handleKeyboardTouch+0x150>
	}
	lcdSetTextColor(COLOR_WHITE, COLOR_BLACK);
 8004414:	2100      	movs	r1, #0
 8004416:	f64f 70ff 	movw	r0, #65535	@ 0xffff
 800441a:	f7ff fb43 	bl	8003aa4 <lcdSetTextColor>
	uint8_t column = (xCoordinates - keyboardX0) / keyboardButtonWidth;
 800441e:	4b4b      	ldr	r3, [pc, #300]	@ (800454c <handleKeyboardTouch+0x15c>)
 8004420:	881b      	ldrh	r3, [r3, #0]
 8004422:	461a      	mov	r2, r3
 8004424:	2300      	movs	r3, #0
 8004426:	1ad3      	subs	r3, r2, r3
 8004428:	2218      	movs	r2, #24
 800442a:	fb93 f3f2 	sdiv	r3, r3, r2
 800442e:	71fb      	strb	r3, [r7, #7]
	if (xCoordinates == 240)
 8004430:	4b46      	ldr	r3, [pc, #280]	@ (800454c <handleKeyboardTouch+0x15c>)
 8004432:	881b      	ldrh	r3, [r3, #0]
 8004434:	2bf0      	cmp	r3, #240	@ 0xf0
 8004436:	d109      	bne.n	800444c <handleKeyboardTouch+0x5c>
	{
		column = (xCoordinates - keyboardX0 - 1) / keyboardButtonWidth;
 8004438:	4b44      	ldr	r3, [pc, #272]	@ (800454c <handleKeyboardTouch+0x15c>)
 800443a:	881b      	ldrh	r3, [r3, #0]
 800443c:	461a      	mov	r2, r3
 800443e:	2300      	movs	r3, #0
 8004440:	1ad3      	subs	r3, r2, r3
 8004442:	3b01      	subs	r3, #1
 8004444:	2218      	movs	r2, #24
 8004446:	fb93 f3f2 	sdiv	r3, r3, r2
 800444a:	71fb      	strb	r3, [r7, #7]
	}
    uint8_t row = (yCoordinates - keyboardY0) / keyboardButtonHeight;
 800444c:	4b3e      	ldr	r3, [pc, #248]	@ (8004548 <handleKeyboardTouch+0x158>)
 800444e:	881b      	ldrh	r3, [r3, #0]
 8004450:	461a      	mov	r2, r3
 8004452:	23c8      	movs	r3, #200	@ 0xc8
 8004454:	1ad3      	subs	r3, r2, r3
 8004456:	221e      	movs	r2, #30
 8004458:	fb93 f3f2 	sdiv	r3, r3, r2
 800445c:	717b      	strb	r3, [r7, #5]
    uint8_t keyIndex = row * 10 + column;
 800445e:	797b      	ldrb	r3, [r7, #5]
 8004460:	461a      	mov	r2, r3
 8004462:	0092      	lsls	r2, r2, #2
 8004464:	4413      	add	r3, r2
 8004466:	005b      	lsls	r3, r3, #1
 8004468:	b2da      	uxtb	r2, r3
 800446a:	79fb      	ldrb	r3, [r7, #7]
 800446c:	4413      	add	r3, r2
 800446e:	713b      	strb	r3, [r7, #4]
    if (keyIndex >= sizeof(keyMap) / sizeof(keyMap[0])) return;
 8004470:	793b      	ldrb	r3, [r7, #4]
 8004472:	2b27      	cmp	r3, #39	@ 0x27
 8004474:	d863      	bhi.n	800453e <handleKeyboardTouch+0x14e>

    const char* key = keyMap[keyIndex];
 8004476:	793b      	ldrb	r3, [r7, #4]
 8004478:	4a36      	ldr	r2, [pc, #216]	@ (8004554 <handleKeyboardTouch+0x164>)
 800447a:	f852 3023 	ldr.w	r3, [r2, r3, lsl #2]
 800447e:	603b      	str	r3, [r7, #0]
    if (strcmp(key, "Del") == 0)
 8004480:	4935      	ldr	r1, [pc, #212]	@ (8004558 <handleKeyboardTouch+0x168>)
 8004482:	6838      	ldr	r0, [r7, #0]
 8004484:	f7fb fea4 	bl	80001d0 <strcmp>
 8004488:	4603      	mov	r3, r0
 800448a:	2b00      	cmp	r3, #0
 800448c:	d110      	bne.n	80044b0 <handleKeyboardTouch+0xc0>
    {
    	if (passwordIndex > 0)
 800448e:	4b33      	ldr	r3, [pc, #204]	@ (800455c <handleKeyboardTouch+0x16c>)
 8004490:	781b      	ldrb	r3, [r3, #0]
 8004492:	2b00      	cmp	r3, #0
 8004494:	d04b      	beq.n	800452e <handleKeyboardTouch+0x13e>
    	{
    		passwordIndex--;
 8004496:	4b31      	ldr	r3, [pc, #196]	@ (800455c <handleKeyboardTouch+0x16c>)
 8004498:	781b      	ldrb	r3, [r3, #0]
 800449a:	3b01      	subs	r3, #1
 800449c:	b2da      	uxtb	r2, r3
 800449e:	4b2f      	ldr	r3, [pc, #188]	@ (800455c <handleKeyboardTouch+0x16c>)
 80044a0:	701a      	strb	r2, [r3, #0]
    		wifiPassword[passwordIndex] = '\0';
 80044a2:	4b2e      	ldr	r3, [pc, #184]	@ (800455c <handleKeyboardTouch+0x16c>)
 80044a4:	781b      	ldrb	r3, [r3, #0]
 80044a6:	461a      	mov	r2, r3
 80044a8:	4b2d      	ldr	r3, [pc, #180]	@ (8004560 <handleKeyboardTouch+0x170>)
 80044aa:	2100      	movs	r1, #0
 80044ac:	5499      	strb	r1, [r3, r2]
 80044ae:	e03e      	b.n	800452e <handleKeyboardTouch+0x13e>
    	}
    }
    else if (strcmp(key, "^") == 0)
 80044b0:	492c      	ldr	r1, [pc, #176]	@ (8004564 <handleKeyboardTouch+0x174>)
 80044b2:	6838      	ldr	r0, [r7, #0]
 80044b4:	f7fb fe8c 	bl	80001d0 <strcmp>
 80044b8:	4603      	mov	r3, r0
 80044ba:	2b00      	cmp	r3, #0
 80044bc:	d10f      	bne.n	80044de <handleKeyboardTouch+0xee>
    {
        keyboardShift = !keyboardShift;
 80044be:	4b2a      	ldr	r3, [pc, #168]	@ (8004568 <handleKeyboardTouch+0x178>)
 80044c0:	781b      	ldrb	r3, [r3, #0]
 80044c2:	2b00      	cmp	r3, #0
 80044c4:	bf14      	ite	ne
 80044c6:	2301      	movne	r3, #1
 80044c8:	2300      	moveq	r3, #0
 80044ca:	b2db      	uxtb	r3, r3
 80044cc:	f083 0301 	eor.w	r3, r3, #1
 80044d0:	b2db      	uxtb	r3, r3
 80044d2:	f003 0301 	and.w	r3, r3, #1
 80044d6:	b2da      	uxtb	r2, r3
 80044d8:	4b23      	ldr	r3, [pc, #140]	@ (8004568 <handleKeyboardTouch+0x178>)
 80044da:	701a      	strb	r2, [r3, #0]
 80044dc:	e027      	b.n	800452e <handleKeyboardTouch+0x13e>
    }
    else if (strcmp(key, "<-") == 0)
 80044de:	4923      	ldr	r1, [pc, #140]	@ (800456c <handleKeyboardTouch+0x17c>)
 80044e0:	6838      	ldr	r0, [r7, #0]
 80044e2:	f7fb fe75 	bl	80001d0 <strcmp>
 80044e6:	4603      	mov	r3, r0
 80044e8:	2b00      	cmp	r3, #0
 80044ea:	d020      	beq.n	800452e <handleKeyboardTouch+0x13e>
    {
    	//HAL_UART_Transmit(&huart1, (uint8_t*)wifiPassword, strlen(wifiPassword), HAL_MAX_DELAY);
    }
    else if (passwordIndex <= MAX_PASSWORD_LENGTH)
 80044ec:	4b1b      	ldr	r3, [pc, #108]	@ (800455c <handleKeyboardTouch+0x16c>)
 80044ee:	781b      	ldrb	r3, [r3, #0]
 80044f0:	2b20      	cmp	r3, #32
 80044f2:	d81c      	bhi.n	800452e <handleKeyboardTouch+0x13e>
    {
    	char character = key[0];
 80044f4:	683b      	ldr	r3, [r7, #0]
 80044f6:	781b      	ldrb	r3, [r3, #0]
 80044f8:	71bb      	strb	r3, [r7, #6]
    	if (keyboardShift)
 80044fa:	4b1b      	ldr	r3, [pc, #108]	@ (8004568 <handleKeyboardTouch+0x178>)
 80044fc:	781b      	ldrb	r3, [r3, #0]
 80044fe:	2b00      	cmp	r3, #0
 8004500:	d005      	beq.n	800450e <handleKeyboardTouch+0x11e>
    	{
    	    character = applyShift(character);
 8004502:	79bb      	ldrb	r3, [r7, #6]
 8004504:	4618      	mov	r0, r3
 8004506:	f7ff ff5d 	bl	80043c4 <applyShift>
 800450a:	4603      	mov	r3, r0
 800450c:	71bb      	strb	r3, [r7, #6]
    	}
    	wifiPassword[passwordIndex++] = character;
 800450e:	4b13      	ldr	r3, [pc, #76]	@ (800455c <handleKeyboardTouch+0x16c>)
 8004510:	781b      	ldrb	r3, [r3, #0]
 8004512:	1c5a      	adds	r2, r3, #1
 8004514:	b2d1      	uxtb	r1, r2
 8004516:	4a11      	ldr	r2, [pc, #68]	@ (800455c <handleKeyboardTouch+0x16c>)
 8004518:	7011      	strb	r1, [r2, #0]
 800451a:	4619      	mov	r1, r3
 800451c:	4a10      	ldr	r2, [pc, #64]	@ (8004560 <handleKeyboardTouch+0x170>)
 800451e:	79bb      	ldrb	r3, [r7, #6]
 8004520:	5453      	strb	r3, [r2, r1]
    	wifiPassword[passwordIndex] = '\0';
 8004522:	4b0e      	ldr	r3, [pc, #56]	@ (800455c <handleKeyboardTouch+0x16c>)
 8004524:	781b      	ldrb	r3, [r3, #0]
 8004526:	461a      	mov	r2, r3
 8004528:	4b0d      	ldr	r3, [pc, #52]	@ (8004560 <handleKeyboardTouch+0x170>)
 800452a:	2100      	movs	r1, #0
 800452c:	5499      	strb	r1, [r3, r2]
    }
    lcdSetCursor(0, 180);
 800452e:	21b4      	movs	r1, #180	@ 0xb4
 8004530:	2000      	movs	r0, #0
 8004532:	f7ff fb37 	bl	8003ba4 <lcdSetCursor>
    lcdPrintf(wifiPassword);
 8004536:	480a      	ldr	r0, [pc, #40]	@ (8004560 <handleKeyboardTouch+0x170>)
 8004538:	f7ff f992 	bl	8003860 <lcdPrintf>
 800453c:	e000      	b.n	8004540 <handleKeyboardTouch+0x150>
    if (keyIndex >= sizeof(keyMap) / sizeof(keyMap[0])) return;
 800453e:	bf00      	nop
}
 8004540:	3708      	adds	r7, #8
 8004542:	46bd      	mov	sp, r7
 8004544:	bd80      	pop	{r7, pc}
 8004546:	bf00      	nop
 8004548:	200009fa 	.word	0x200009fa
 800454c:	200009f8 	.word	0x200009f8
 8004550:	20000058 	.word	0x20000058
 8004554:	20000060 	.word	0x20000060
 8004558:	0800bd00 	.word	0x0800bd00
 800455c:	20000c25 	.word	0x20000c25
 8004560:	20000c04 	.word	0x20000c04
 8004564:	0800bcfc 	.word	0x0800bcfc
 8004568:	20000c26 	.word	0x20000c26
 800456c:	0800bcdc 	.word	0x0800bcdc

08004570 <wifiMenu>:

void wifiMenu()
{
 8004570:	b580      	push	{r7, lr}
 8004572:	b084      	sub	sp, #16
 8004574:	af02      	add	r7, sp, #8
	lcdFillRGB(COLOR_BLACK);
 8004576:	2000      	movs	r0, #0
 8004578:	f7fe fb7a 	bl	8002c70 <lcdFillRGB>
	drawBackIcon();
 800457c:	f7ff fe3e 	bl	80041fc <drawBackIcon>
	wifi = 1;
 8004580:	4b3b      	ldr	r3, [pc, #236]	@ (8004670 <wifiMenu+0x100>)
 8004582:	2201      	movs	r2, #1
 8004584:	701a      	strb	r2, [r3, #0]
	menu = 0;
 8004586:	4b3b      	ldr	r3, [pc, #236]	@ (8004674 <wifiMenu+0x104>)
 8004588:	2200      	movs	r2, #0
 800458a:	701a      	strb	r2, [r3, #0]
	drawKeyboard();
 800458c:	f7ff fe5c 	bl	8004248 <drawKeyboard>
	for (int i = 0; i < networkCount / 2; i++)
 8004590:	2300      	movs	r3, #0
 8004592:	607b      	str	r3, [r7, #4]
 8004594:	e05d      	b.n	8004652 <wifiMenu+0xe2>
	{
		lcdFillRoundRect(0, 25 + 29 * i, 115, 25, 10, COLOR_WHITE);
 8004596:	687b      	ldr	r3, [r7, #4]
 8004598:	b29b      	uxth	r3, r3
 800459a:	461a      	mov	r2, r3
 800459c:	00d2      	lsls	r2, r2, #3
 800459e:	1ad2      	subs	r2, r2, r3
 80045a0:	0092      	lsls	r2, r2, #2
 80045a2:	4413      	add	r3, r2
 80045a4:	b29b      	uxth	r3, r3
 80045a6:	3319      	adds	r3, #25
 80045a8:	b29b      	uxth	r3, r3
 80045aa:	b219      	sxth	r1, r3
 80045ac:	f64f 73ff 	movw	r3, #65535	@ 0xffff
 80045b0:	9301      	str	r3, [sp, #4]
 80045b2:	230a      	movs	r3, #10
 80045b4:	9300      	str	r3, [sp, #0]
 80045b6:	2319      	movs	r3, #25
 80045b8:	2273      	movs	r2, #115	@ 0x73
 80045ba:	2000      	movs	r0, #0
 80045bc:	f7fe fe0e 	bl	80031dc <lcdFillRoundRect>
		lcdSetCursor(2, 33 + 29 * i);
 80045c0:	687b      	ldr	r3, [r7, #4]
 80045c2:	b29b      	uxth	r3, r3
 80045c4:	461a      	mov	r2, r3
 80045c6:	00d2      	lsls	r2, r2, #3
 80045c8:	1ad2      	subs	r2, r2, r3
 80045ca:	0092      	lsls	r2, r2, #2
 80045cc:	4413      	add	r3, r2
 80045ce:	b29b      	uxth	r3, r3
 80045d0:	3321      	adds	r3, #33	@ 0x21
 80045d2:	b29b      	uxth	r3, r3
 80045d4:	4619      	mov	r1, r3
 80045d6:	2002      	movs	r0, #2
 80045d8:	f7ff fae4 	bl	8003ba4 <lcdSetCursor>
		lcdPrintfNoBackColor((const char*)networkList[i].ssid);
 80045dc:	687a      	ldr	r2, [r7, #4]
 80045de:	4613      	mov	r3, r2
 80045e0:	00db      	lsls	r3, r3, #3
 80045e2:	4413      	add	r3, r2
 80045e4:	009b      	lsls	r3, r3, #2
 80045e6:	4a24      	ldr	r2, [pc, #144]	@ (8004678 <wifiMenu+0x108>)
 80045e8:	4413      	add	r3, r2
 80045ea:	4618      	mov	r0, r3
 80045ec:	f7ff f9c4 	bl	8003978 <lcdPrintfNoBackColor>
		lcdFillRoundRect(120, 25 + 29 * i, 120, 25, 10, COLOR_WHITE);
 80045f0:	687b      	ldr	r3, [r7, #4]
 80045f2:	b29b      	uxth	r3, r3
 80045f4:	461a      	mov	r2, r3
 80045f6:	00d2      	lsls	r2, r2, #3
 80045f8:	1ad2      	subs	r2, r2, r3
 80045fa:	0092      	lsls	r2, r2, #2
 80045fc:	4413      	add	r3, r2
 80045fe:	b29b      	uxth	r3, r3
 8004600:	3319      	adds	r3, #25
 8004602:	b29b      	uxth	r3, r3
 8004604:	b219      	sxth	r1, r3
 8004606:	f64f 73ff 	movw	r3, #65535	@ 0xffff
 800460a:	9301      	str	r3, [sp, #4]
 800460c:	230a      	movs	r3, #10
 800460e:	9300      	str	r3, [sp, #0]
 8004610:	2319      	movs	r3, #25
 8004612:	2278      	movs	r2, #120	@ 0x78
 8004614:	2078      	movs	r0, #120	@ 0x78
 8004616:	f7fe fde1 	bl	80031dc <lcdFillRoundRect>
		lcdSetCursor(122, 33 + 29 * i);
 800461a:	687b      	ldr	r3, [r7, #4]
 800461c:	b29b      	uxth	r3, r3
 800461e:	461a      	mov	r2, r3
 8004620:	00d2      	lsls	r2, r2, #3
 8004622:	1ad2      	subs	r2, r2, r3
 8004624:	0092      	lsls	r2, r2, #2
 8004626:	4413      	add	r3, r2
 8004628:	b29b      	uxth	r3, r3
 800462a:	3321      	adds	r3, #33	@ 0x21
 800462c:	b29b      	uxth	r3, r3
 800462e:	4619      	mov	r1, r3
 8004630:	207a      	movs	r0, #122	@ 0x7a
 8004632:	f7ff fab7 	bl	8003ba4 <lcdSetCursor>
		lcdPrintfNoBackColor((const char*)networkList[i + 6].ssid);
 8004636:	687b      	ldr	r3, [r7, #4]
 8004638:	1d9a      	adds	r2, r3, #6
 800463a:	4613      	mov	r3, r2
 800463c:	00db      	lsls	r3, r3, #3
 800463e:	4413      	add	r3, r2
 8004640:	009b      	lsls	r3, r3, #2
 8004642:	4a0d      	ldr	r2, [pc, #52]	@ (8004678 <wifiMenu+0x108>)
 8004644:	4413      	add	r3, r2
 8004646:	4618      	mov	r0, r3
 8004648:	f7ff f996 	bl	8003978 <lcdPrintfNoBackColor>
	for (int i = 0; i < networkCount / 2; i++)
 800464c:	687b      	ldr	r3, [r7, #4]
 800464e:	3301      	adds	r3, #1
 8004650:	607b      	str	r3, [r7, #4]
 8004652:	4b0a      	ldr	r3, [pc, #40]	@ (800467c <wifiMenu+0x10c>)
 8004654:	681b      	ldr	r3, [r3, #0]
 8004656:	0fda      	lsrs	r2, r3, #31
 8004658:	4413      	add	r3, r2
 800465a:	105b      	asrs	r3, r3, #1
 800465c:	461a      	mov	r2, r3
 800465e:	687b      	ldr	r3, [r7, #4]
 8004660:	4293      	cmp	r3, r2
 8004662:	db98      	blt.n	8004596 <wifiMenu+0x26>
	}
}
 8004664:	bf00      	nop
 8004666:	bf00      	nop
 8004668:	3708      	adds	r7, #8
 800466a:	46bd      	mov	sp, r7
 800466c:	bd80      	pop	{r7, pc}
 800466e:	bf00      	nop
 8004670:	200009fc 	.word	0x200009fc
 8004674:	20000058 	.word	0x20000058
 8004678:	20000a50 	.word	0x20000a50
 800467c:	20000c00 	.word	0x20000c00

08004680 <weatherForecastMenu>:

void weatherForecastMenu()
{
 8004680:	b580      	push	{r7, lr}
 8004682:	b082      	sub	sp, #8
 8004684:	af02      	add	r7, sp, #8
	lcdSetTextFont(&Font16);
 8004686:	484c      	ldr	r0, [pc, #304]	@ (80047b8 <weatherForecastMenu+0x138>)
 8004688:	f7ff f9fc 	bl	8003a84 <lcdSetTextFont>
	lcdSetTextColor(COLOR_WHITE, COLOR_BLACK);
 800468c:	2100      	movs	r1, #0
 800468e:	f64f 70ff 	movw	r0, #65535	@ 0xffff
 8004692:	f7ff fa07 	bl	8003aa4 <lcdSetTextColor>
	lcdFillRGB(COLOR_BLACK);
 8004696:	2000      	movs	r0, #0
 8004698:	f7fe faea 	bl	8002c70 <lcdFillRGB>
	drawBackIcon();
 800469c:	f7ff fdae 	bl	80041fc <drawBackIcon>
	weatherForecast = 1;
 80046a0:	4b46      	ldr	r3, [pc, #280]	@ (80047bc <weatherForecastMenu+0x13c>)
 80046a2:	2201      	movs	r2, #1
 80046a4:	701a      	strb	r2, [r3, #0]
	showWeather = 0;
 80046a6:	4b46      	ldr	r3, [pc, #280]	@ (80047c0 <weatherForecastMenu+0x140>)
 80046a8:	2200      	movs	r2, #0
 80046aa:	701a      	strb	r2, [r3, #0]
	menu = 0;
 80046ac:	4b45      	ldr	r3, [pc, #276]	@ (80047c4 <weatherForecastMenu+0x144>)
 80046ae:	2200      	movs	r2, #0
 80046b0:	701a      	strb	r2, [r3, #0]
	drawAlignedText(" Choose a location", 0, 240, 16, NOBACKCOLOR);
 80046b2:	2300      	movs	r3, #0
 80046b4:	9300      	str	r3, [sp, #0]
 80046b6:	2310      	movs	r3, #16
 80046b8:	22f0      	movs	r2, #240	@ 0xf0
 80046ba:	2100      	movs	r1, #0
 80046bc:	4842      	ldr	r0, [pc, #264]	@ (80047c8 <weatherForecastMenu+0x148>)
 80046be:	f7fd ffc5 	bl	800264c <drawAlignedText>

	lcdSetTextColor(COLOR_BLACK, COLOR_BLACK);
 80046c2:	2100      	movs	r1, #0
 80046c4:	2000      	movs	r0, #0
 80046c6:	f7ff f9ed 	bl	8003aa4 <lcdSetTextColor>
	lcdFillRoundRect(0, 32, 240, 40, 10, COLOR_WHITE);
 80046ca:	f64f 73ff 	movw	r3, #65535	@ 0xffff
 80046ce:	9301      	str	r3, [sp, #4]
 80046d0:	230a      	movs	r3, #10
 80046d2:	9300      	str	r3, [sp, #0]
 80046d4:	2328      	movs	r3, #40	@ 0x28
 80046d6:	22f0      	movs	r2, #240	@ 0xf0
 80046d8:	2120      	movs	r1, #32
 80046da:	2000      	movs	r0, #0
 80046dc:	f7fe fd7e 	bl	80031dc <lcdFillRoundRect>
	drawAlignedText("Sai Gon", 45, 240, 16, NOBACKCOLOR);
 80046e0:	2300      	movs	r3, #0
 80046e2:	9300      	str	r3, [sp, #0]
 80046e4:	2310      	movs	r3, #16
 80046e6:	22f0      	movs	r2, #240	@ 0xf0
 80046e8:	212d      	movs	r1, #45	@ 0x2d
 80046ea:	4838      	ldr	r0, [pc, #224]	@ (80047cc <weatherForecastMenu+0x14c>)
 80046ec:	f7fd ffae 	bl	800264c <drawAlignedText>

	lcdFillRoundRect(0, 80, 240, 40, 10, COLOR_WHITE);
 80046f0:	f64f 73ff 	movw	r3, #65535	@ 0xffff
 80046f4:	9301      	str	r3, [sp, #4]
 80046f6:	230a      	movs	r3, #10
 80046f8:	9300      	str	r3, [sp, #0]
 80046fa:	2328      	movs	r3, #40	@ 0x28
 80046fc:	22f0      	movs	r2, #240	@ 0xf0
 80046fe:	2150      	movs	r1, #80	@ 0x50
 8004700:	2000      	movs	r0, #0
 8004702:	f7fe fd6b 	bl	80031dc <lcdFillRoundRect>
	drawAlignedText("Nha Trang", 93, 240, 16, NOBACKCOLOR);
 8004706:	2300      	movs	r3, #0
 8004708:	9300      	str	r3, [sp, #0]
 800470a:	2310      	movs	r3, #16
 800470c:	22f0      	movs	r2, #240	@ 0xf0
 800470e:	215d      	movs	r1, #93	@ 0x5d
 8004710:	482f      	ldr	r0, [pc, #188]	@ (80047d0 <weatherForecastMenu+0x150>)
 8004712:	f7fd ff9b 	bl	800264c <drawAlignedText>

	lcdFillRoundRect(0, 128, 240, 40, 10, COLOR_WHITE);
 8004716:	f64f 73ff 	movw	r3, #65535	@ 0xffff
 800471a:	9301      	str	r3, [sp, #4]
 800471c:	230a      	movs	r3, #10
 800471e:	9300      	str	r3, [sp, #0]
 8004720:	2328      	movs	r3, #40	@ 0x28
 8004722:	22f0      	movs	r2, #240	@ 0xf0
 8004724:	2180      	movs	r1, #128	@ 0x80
 8004726:	2000      	movs	r0, #0
 8004728:	f7fe fd58 	bl	80031dc <lcdFillRoundRect>
	drawAlignedText("Ha Noi", 141, 240, 16, NOBACKCOLOR);
 800472c:	2300      	movs	r3, #0
 800472e:	9300      	str	r3, [sp, #0]
 8004730:	2310      	movs	r3, #16
 8004732:	22f0      	movs	r2, #240	@ 0xf0
 8004734:	218d      	movs	r1, #141	@ 0x8d
 8004736:	4827      	ldr	r0, [pc, #156]	@ (80047d4 <weatherForecastMenu+0x154>)
 8004738:	f7fd ff88 	bl	800264c <drawAlignedText>

	lcdFillRoundRect(0, 176, 240, 40, 10, COLOR_WHITE);
 800473c:	f64f 73ff 	movw	r3, #65535	@ 0xffff
 8004740:	9301      	str	r3, [sp, #4]
 8004742:	230a      	movs	r3, #10
 8004744:	9300      	str	r3, [sp, #0]
 8004746:	2328      	movs	r3, #40	@ 0x28
 8004748:	22f0      	movs	r2, #240	@ 0xf0
 800474a:	21b0      	movs	r1, #176	@ 0xb0
 800474c:	2000      	movs	r0, #0
 800474e:	f7fe fd45 	bl	80031dc <lcdFillRoundRect>
	drawAlignedText("Tampere", 189, 240, 16, NOBACKCOLOR);
 8004752:	2300      	movs	r3, #0
 8004754:	9300      	str	r3, [sp, #0]
 8004756:	2310      	movs	r3, #16
 8004758:	22f0      	movs	r2, #240	@ 0xf0
 800475a:	21bd      	movs	r1, #189	@ 0xbd
 800475c:	481e      	ldr	r0, [pc, #120]	@ (80047d8 <weatherForecastMenu+0x158>)
 800475e:	f7fd ff75 	bl	800264c <drawAlignedText>

	lcdFillRoundRect(0, 224, 240, 40, 10, COLOR_WHITE);
 8004762:	f64f 73ff 	movw	r3, #65535	@ 0xffff
 8004766:	9301      	str	r3, [sp, #4]
 8004768:	230a      	movs	r3, #10
 800476a:	9300      	str	r3, [sp, #0]
 800476c:	2328      	movs	r3, #40	@ 0x28
 800476e:	22f0      	movs	r2, #240	@ 0xf0
 8004770:	21e0      	movs	r1, #224	@ 0xe0
 8004772:	2000      	movs	r0, #0
 8004774:	f7fe fd32 	bl	80031dc <lcdFillRoundRect>
	drawAlignedText("Arnhem", 237, 240, 16, NOBACKCOLOR);
 8004778:	2300      	movs	r3, #0
 800477a:	9300      	str	r3, [sp, #0]
 800477c:	2310      	movs	r3, #16
 800477e:	22f0      	movs	r2, #240	@ 0xf0
 8004780:	21ed      	movs	r1, #237	@ 0xed
 8004782:	4816      	ldr	r0, [pc, #88]	@ (80047dc <weatherForecastMenu+0x15c>)
 8004784:	f7fd ff62 	bl	800264c <drawAlignedText>

	lcdFillRoundRect(0, 272, 240, 40, 10, COLOR_WHITE);
 8004788:	f64f 73ff 	movw	r3, #65535	@ 0xffff
 800478c:	9301      	str	r3, [sp, #4]
 800478e:	230a      	movs	r3, #10
 8004790:	9300      	str	r3, [sp, #0]
 8004792:	2328      	movs	r3, #40	@ 0x28
 8004794:	22f0      	movs	r2, #240	@ 0xf0
 8004796:	f44f 7188 	mov.w	r1, #272	@ 0x110
 800479a:	2000      	movs	r0, #0
 800479c:	f7fe fd1e 	bl	80031dc <lcdFillRoundRect>
	drawAlignedText("Sydney", 285, 240, 16, NOBACKCOLOR);
 80047a0:	2300      	movs	r3, #0
 80047a2:	9300      	str	r3, [sp, #0]
 80047a4:	2310      	movs	r3, #16
 80047a6:	22f0      	movs	r2, #240	@ 0xf0
 80047a8:	f240 111d 	movw	r1, #285	@ 0x11d
 80047ac:	480c      	ldr	r0, [pc, #48]	@ (80047e0 <weatherForecastMenu+0x160>)
 80047ae:	f7fd ff4d 	bl	800264c <drawAlignedText>
}
 80047b2:	bf00      	nop
 80047b4:	46bd      	mov	sp, r7
 80047b6:	bd80      	pop	{r7, pc}
 80047b8:	20000014 	.word	0x20000014
 80047bc:	200009fd 	.word	0x200009fd
 80047c0:	200009fe 	.word	0x200009fe
 80047c4:	20000058 	.word	0x20000058
 80047c8:	0800bd04 	.word	0x0800bd04
 80047cc:	0800bd18 	.word	0x0800bd18
 80047d0:	0800bd20 	.word	0x0800bd20
 80047d4:	0800bd2c 	.word	0x0800bd2c
 80047d8:	0800bd34 	.word	0x0800bd34
 80047dc:	0800bd3c 	.word	0x0800bd3c
 80047e0:	0800bd44 	.word	0x0800bd44

080047e4 <gardenStateMenu>:

void gardenStateMenu()
{
 80047e4:	b580      	push	{r7, lr}
 80047e6:	b082      	sub	sp, #8
 80047e8:	af02      	add	r7, sp, #8
	lcdSetTextFont(&Font16);
 80047ea:	481c      	ldr	r0, [pc, #112]	@ (800485c <gardenStateMenu+0x78>)
 80047ec:	f7ff f94a 	bl	8003a84 <lcdSetTextFont>
	lcdSetTextColor(COLOR_WHITE, COLOR_BLACK);
 80047f0:	2100      	movs	r1, #0
 80047f2:	f64f 70ff 	movw	r0, #65535	@ 0xffff
 80047f6:	f7ff f955 	bl	8003aa4 <lcdSetTextColor>
	lcdFillRGB(COLOR_BLACK);
 80047fa:	2000      	movs	r0, #0
 80047fc:	f7fe fa38 	bl	8002c70 <lcdFillRGB>
	drawBackIcon();
 8004800:	f7ff fcfc 	bl	80041fc <drawBackIcon>
	gardenState = 1;
 8004804:	4b16      	ldr	r3, [pc, #88]	@ (8004860 <gardenStateMenu+0x7c>)
 8004806:	2201      	movs	r2, #1
 8004808:	701a      	strb	r2, [r3, #0]
	showGardenState = 0;
 800480a:	4b16      	ldr	r3, [pc, #88]	@ (8004864 <gardenStateMenu+0x80>)
 800480c:	2200      	movs	r2, #0
 800480e:	701a      	strb	r2, [r3, #0]
	menu = 0;
 8004810:	4b15      	ldr	r3, [pc, #84]	@ (8004868 <gardenStateMenu+0x84>)
 8004812:	2200      	movs	r2, #0
 8004814:	701a      	strb	r2, [r3, #0]
	drawAlignedText(" Choose a garden", 0, 240, 16, NOBACKCOLOR);
 8004816:	2300      	movs	r3, #0
 8004818:	9300      	str	r3, [sp, #0]
 800481a:	2310      	movs	r3, #16
 800481c:	22f0      	movs	r2, #240	@ 0xf0
 800481e:	2100      	movs	r1, #0
 8004820:	4812      	ldr	r0, [pc, #72]	@ (800486c <gardenStateMenu+0x88>)
 8004822:	f7fd ff13 	bl	800264c <drawAlignedText>

	lcdSetTextColor(COLOR_BLACK, COLOR_BLACK);
 8004826:	2100      	movs	r1, #0
 8004828:	2000      	movs	r0, #0
 800482a:	f7ff f93b 	bl	8003aa4 <lcdSetTextColor>
	lcdFillRoundRect(0, 32, 240, 40, 10, COLOR_WHITE);
 800482e:	f64f 73ff 	movw	r3, #65535	@ 0xffff
 8004832:	9301      	str	r3, [sp, #4]
 8004834:	230a      	movs	r3, #10
 8004836:	9300      	str	r3, [sp, #0]
 8004838:	2328      	movs	r3, #40	@ 0x28
 800483a:	22f0      	movs	r2, #240	@ 0xf0
 800483c:	2120      	movs	r1, #32
 800483e:	2000      	movs	r0, #0
 8004840:	f7fe fccc 	bl	80031dc <lcdFillRoundRect>
	drawAlignedText("Phu Nhuan", 45, 240, 16, NOBACKCOLOR);
 8004844:	2300      	movs	r3, #0
 8004846:	9300      	str	r3, [sp, #0]
 8004848:	2310      	movs	r3, #16
 800484a:	22f0      	movs	r2, #240	@ 0xf0
 800484c:	212d      	movs	r1, #45	@ 0x2d
 800484e:	4808      	ldr	r0, [pc, #32]	@ (8004870 <gardenStateMenu+0x8c>)
 8004850:	f7fd fefc 	bl	800264c <drawAlignedText>
}
 8004854:	bf00      	nop
 8004856:	46bd      	mov	sp, r7
 8004858:	bd80      	pop	{r7, pc}
 800485a:	bf00      	nop
 800485c:	20000014 	.word	0x20000014
 8004860:	200009ff 	.word	0x200009ff
 8004864:	20000a00 	.word	0x20000a00
 8004868:	20000058 	.word	0x20000058
 800486c:	0800bd4c 	.word	0x0800bd4c
 8004870:	0800bd60 	.word	0x0800bd60

08004874 <mainMenu>:

void mainMenu()
{
 8004874:	b580      	push	{r7, lr}
 8004876:	b082      	sub	sp, #8
 8004878:	af02      	add	r7, sp, #8
	lcdSetTextFont(&Font16);
 800487a:	482f      	ldr	r0, [pc, #188]	@ (8004938 <mainMenu+0xc4>)
 800487c:	f7ff f902 	bl	8003a84 <lcdSetTextFont>
	lcdSetTextColor(COLOR_WHITE, COLOR_BLACK);
 8004880:	2100      	movs	r1, #0
 8004882:	f64f 70ff 	movw	r0, #65535	@ 0xffff
 8004886:	f7ff f90d 	bl	8003aa4 <lcdSetTextColor>
	lcdFillRGB(COLOR_BLACK);
 800488a:	2000      	movs	r0, #0
 800488c:	f7fe f9f0 	bl	8002c70 <lcdFillRGB>
	menu = 1;
 8004890:	4b2a      	ldr	r3, [pc, #168]	@ (800493c <mainMenu+0xc8>)
 8004892:	2201      	movs	r2, #1
 8004894:	701a      	strb	r2, [r3, #0]
	gardenState = 0;
 8004896:	4b2a      	ldr	r3, [pc, #168]	@ (8004940 <mainMenu+0xcc>)
 8004898:	2200      	movs	r2, #0
 800489a:	701a      	strb	r2, [r3, #0]
	weatherForecast = 0;
 800489c:	4b29      	ldr	r3, [pc, #164]	@ (8004944 <mainMenu+0xd0>)
 800489e:	2200      	movs	r2, #0
 80048a0:	701a      	strb	r2, [r3, #0]
	wifi = 0;
 80048a2:	4b29      	ldr	r3, [pc, #164]	@ (8004948 <mainMenu+0xd4>)
 80048a4:	2200      	movs	r2, #0
 80048a6:	701a      	strb	r2, [r3, #0]
	drawAlignedText("Choose an option", 0, 240, 16, NOBACKCOLOR);
 80048a8:	2300      	movs	r3, #0
 80048aa:	9300      	str	r3, [sp, #0]
 80048ac:	2310      	movs	r3, #16
 80048ae:	22f0      	movs	r2, #240	@ 0xf0
 80048b0:	2100      	movs	r1, #0
 80048b2:	4826      	ldr	r0, [pc, #152]	@ (800494c <mainMenu+0xd8>)
 80048b4:	f7fd feca 	bl	800264c <drawAlignedText>

	lcdSetTextColor(COLOR_BLACK, COLOR_BLACK);
 80048b8:	2100      	movs	r1, #0
 80048ba:	2000      	movs	r0, #0
 80048bc:	f7ff f8f2 	bl	8003aa4 <lcdSetTextColor>
	lcdFillRoundRect(0, 32, 240, 40, 10, COLOR_WHITE);
 80048c0:	f64f 73ff 	movw	r3, #65535	@ 0xffff
 80048c4:	9301      	str	r3, [sp, #4]
 80048c6:	230a      	movs	r3, #10
 80048c8:	9300      	str	r3, [sp, #0]
 80048ca:	2328      	movs	r3, #40	@ 0x28
 80048cc:	22f0      	movs	r2, #240	@ 0xf0
 80048ce:	2120      	movs	r1, #32
 80048d0:	2000      	movs	r0, #0
 80048d2:	f7fe fc83 	bl	80031dc <lcdFillRoundRect>
	drawAlignedText("Connect to WiFi", 45, 240, 16, NOBACKCOLOR);
 80048d6:	2300      	movs	r3, #0
 80048d8:	9300      	str	r3, [sp, #0]
 80048da:	2310      	movs	r3, #16
 80048dc:	22f0      	movs	r2, #240	@ 0xf0
 80048de:	212d      	movs	r1, #45	@ 0x2d
 80048e0:	481b      	ldr	r0, [pc, #108]	@ (8004950 <mainMenu+0xdc>)
 80048e2:	f7fd feb3 	bl	800264c <drawAlignedText>

	lcdFillRoundRect(0, 80, 240, 40, 10, COLOR_WHITE);
 80048e6:	f64f 73ff 	movw	r3, #65535	@ 0xffff
 80048ea:	9301      	str	r3, [sp, #4]
 80048ec:	230a      	movs	r3, #10
 80048ee:	9300      	str	r3, [sp, #0]
 80048f0:	2328      	movs	r3, #40	@ 0x28
 80048f2:	22f0      	movs	r2, #240	@ 0xf0
 80048f4:	2150      	movs	r1, #80	@ 0x50
 80048f6:	2000      	movs	r0, #0
 80048f8:	f7fe fc70 	bl	80031dc <lcdFillRoundRect>
	drawAlignedText("Weather forecast", 93, 240, 16, NOBACKCOLOR);
 80048fc:	2300      	movs	r3, #0
 80048fe:	9300      	str	r3, [sp, #0]
 8004900:	2310      	movs	r3, #16
 8004902:	22f0      	movs	r2, #240	@ 0xf0
 8004904:	215d      	movs	r1, #93	@ 0x5d
 8004906:	4813      	ldr	r0, [pc, #76]	@ (8004954 <mainMenu+0xe0>)
 8004908:	f7fd fea0 	bl	800264c <drawAlignedText>

	lcdFillRoundRect(0, 128, 240, 40, 10, COLOR_WHITE);
 800490c:	f64f 73ff 	movw	r3, #65535	@ 0xffff
 8004910:	9301      	str	r3, [sp, #4]
 8004912:	230a      	movs	r3, #10
 8004914:	9300      	str	r3, [sp, #0]
 8004916:	2328      	movs	r3, #40	@ 0x28
 8004918:	22f0      	movs	r2, #240	@ 0xf0
 800491a:	2180      	movs	r1, #128	@ 0x80
 800491c:	2000      	movs	r0, #0
 800491e:	f7fe fc5d 	bl	80031dc <lcdFillRoundRect>
	drawAlignedText("Show garden state", 141, 240, 16, NOBACKCOLOR);
 8004922:	2300      	movs	r3, #0
 8004924:	9300      	str	r3, [sp, #0]
 8004926:	2310      	movs	r3, #16
 8004928:	22f0      	movs	r2, #240	@ 0xf0
 800492a:	218d      	movs	r1, #141	@ 0x8d
 800492c:	480a      	ldr	r0, [pc, #40]	@ (8004958 <mainMenu+0xe4>)
 800492e:	f7fd fe8d 	bl	800264c <drawAlignedText>
}
 8004932:	bf00      	nop
 8004934:	46bd      	mov	sp, r7
 8004936:	bd80      	pop	{r7, pc}
 8004938:	20000014 	.word	0x20000014
 800493c:	20000058 	.word	0x20000058
 8004940:	200009ff 	.word	0x200009ff
 8004944:	200009fd 	.word	0x200009fd
 8004948:	200009fc 	.word	0x200009fc
 800494c:	0800bd6c 	.word	0x0800bd6c
 8004950:	0800bd80 	.word	0x0800bd80
 8004954:	0800bd90 	.word	0x0800bd90
 8004958:	0800bda4 	.word	0x0800bda4

0800495c <drawBufferScreen>:

void drawBufferScreen()
{
 800495c:	b580      	push	{r7, lr}
 800495e:	b082      	sub	sp, #8
 8004960:	af02      	add	r7, sp, #8
	menu = 0;
 8004962:	4b0c      	ldr	r3, [pc, #48]	@ (8004994 <drawBufferScreen+0x38>)
 8004964:	2200      	movs	r2, #0
 8004966:	701a      	strb	r2, [r3, #0]
	lcdFillRGB(COLOR_BLACK);
 8004968:	2000      	movs	r0, #0
 800496a:	f7fe f981 	bl	8002c70 <lcdFillRGB>
	drawBackIcon();
 800496e:	f7ff fc45 	bl	80041fc <drawBackIcon>
	lcdSetTextColor(COLOR_WHITE, COLOR_BLACK);
 8004972:	2100      	movs	r1, #0
 8004974:	f64f 70ff 	movw	r0, #65535	@ 0xffff
 8004978:	f7ff f894 	bl	8003aa4 <lcdSetTextColor>
	drawAlignedText("Fetching data", 160, 240, 16, NOBACKCOLOR);
 800497c:	2300      	movs	r3, #0
 800497e:	9300      	str	r3, [sp, #0]
 8004980:	2310      	movs	r3, #16
 8004982:	22f0      	movs	r2, #240	@ 0xf0
 8004984:	21a0      	movs	r1, #160	@ 0xa0
 8004986:	4804      	ldr	r0, [pc, #16]	@ (8004998 <drawBufferScreen+0x3c>)
 8004988:	f7fd fe60 	bl	800264c <drawAlignedText>
}
 800498c:	bf00      	nop
 800498e:	46bd      	mov	sp, r7
 8004990:	bd80      	pop	{r7, pc}
 8004992:	bf00      	nop
 8004994:	20000058 	.word	0x20000058
 8004998:	0800bdb8 	.word	0x0800bdb8

0800499c <checkCoordinates>:

void checkCoordinates()
{
 800499c:	b580      	push	{r7, lr}
 800499e:	af00      	add	r7, sp, #0
	if ((yCoordinates >= 32 && yCoordinates <= 72) && menu == 1)
 80049a0:	4b76      	ldr	r3, [pc, #472]	@ (8004b7c <checkCoordinates+0x1e0>)
 80049a2:	881b      	ldrh	r3, [r3, #0]
 80049a4:	2b1f      	cmp	r3, #31
 80049a6:	d90f      	bls.n	80049c8 <checkCoordinates+0x2c>
 80049a8:	4b74      	ldr	r3, [pc, #464]	@ (8004b7c <checkCoordinates+0x1e0>)
 80049aa:	881b      	ldrh	r3, [r3, #0]
 80049ac:	2b48      	cmp	r3, #72	@ 0x48
 80049ae:	d80b      	bhi.n	80049c8 <checkCoordinates+0x2c>
 80049b0:	4b73      	ldr	r3, [pc, #460]	@ (8004b80 <checkCoordinates+0x1e4>)
 80049b2:	781b      	ldrb	r3, [r3, #0]
 80049b4:	2b01      	cmp	r3, #1
 80049b6:	d107      	bne.n	80049c8 <checkCoordinates+0x2c>
	{
		drawBufferScreen();
 80049b8:	f7ff ffd0 	bl	800495c <drawBufferScreen>
		sendWifiRequest();
 80049bc:	f000 fc24 	bl	8005208 <sendWifiRequest>
		wifi = 1;
 80049c0:	4b70      	ldr	r3, [pc, #448]	@ (8004b84 <checkCoordinates+0x1e8>)
 80049c2:	2201      	movs	r2, #1
 80049c4:	701a      	strb	r2, [r3, #0]
 80049c6:	e0d6      	b.n	8004b76 <checkCoordinates+0x1da>
	}
	else if ((yCoordinates >= 80 && yCoordinates <= 120 && menu == 1) || (yCoordinates <= 23 && xCoordinates <= 27 && showWeather == 1))
 80049c8:	4b6c      	ldr	r3, [pc, #432]	@ (8004b7c <checkCoordinates+0x1e0>)
 80049ca:	881b      	ldrh	r3, [r3, #0]
 80049cc:	2b4f      	cmp	r3, #79	@ 0x4f
 80049ce:	d907      	bls.n	80049e0 <checkCoordinates+0x44>
 80049d0:	4b6a      	ldr	r3, [pc, #424]	@ (8004b7c <checkCoordinates+0x1e0>)
 80049d2:	881b      	ldrh	r3, [r3, #0]
 80049d4:	2b78      	cmp	r3, #120	@ 0x78
 80049d6:	d803      	bhi.n	80049e0 <checkCoordinates+0x44>
 80049d8:	4b69      	ldr	r3, [pc, #420]	@ (8004b80 <checkCoordinates+0x1e4>)
 80049da:	781b      	ldrb	r3, [r3, #0]
 80049dc:	2b01      	cmp	r3, #1
 80049de:	d00b      	beq.n	80049f8 <checkCoordinates+0x5c>
 80049e0:	4b66      	ldr	r3, [pc, #408]	@ (8004b7c <checkCoordinates+0x1e0>)
 80049e2:	881b      	ldrh	r3, [r3, #0]
 80049e4:	2b17      	cmp	r3, #23
 80049e6:	d80a      	bhi.n	80049fe <checkCoordinates+0x62>
 80049e8:	4b67      	ldr	r3, [pc, #412]	@ (8004b88 <checkCoordinates+0x1ec>)
 80049ea:	881b      	ldrh	r3, [r3, #0]
 80049ec:	2b1b      	cmp	r3, #27
 80049ee:	d806      	bhi.n	80049fe <checkCoordinates+0x62>
 80049f0:	4b66      	ldr	r3, [pc, #408]	@ (8004b8c <checkCoordinates+0x1f0>)
 80049f2:	781b      	ldrb	r3, [r3, #0]
 80049f4:	2b01      	cmp	r3, #1
 80049f6:	d102      	bne.n	80049fe <checkCoordinates+0x62>
	{
		weatherForecastMenu();
 80049f8:	f7ff fe42 	bl	8004680 <weatherForecastMenu>
 80049fc:	e0bb      	b.n	8004b76 <checkCoordinates+0x1da>
	}
	else if ((yCoordinates >= 128 && yCoordinates <= 168 && menu == 1) || (yCoordinates <= 23 && xCoordinates <= 27 && showGardenState == 1))
 80049fe:	4b5f      	ldr	r3, [pc, #380]	@ (8004b7c <checkCoordinates+0x1e0>)
 8004a00:	881b      	ldrh	r3, [r3, #0]
 8004a02:	2b7f      	cmp	r3, #127	@ 0x7f
 8004a04:	d907      	bls.n	8004a16 <checkCoordinates+0x7a>
 8004a06:	4b5d      	ldr	r3, [pc, #372]	@ (8004b7c <checkCoordinates+0x1e0>)
 8004a08:	881b      	ldrh	r3, [r3, #0]
 8004a0a:	2ba8      	cmp	r3, #168	@ 0xa8
 8004a0c:	d803      	bhi.n	8004a16 <checkCoordinates+0x7a>
 8004a0e:	4b5c      	ldr	r3, [pc, #368]	@ (8004b80 <checkCoordinates+0x1e4>)
 8004a10:	781b      	ldrb	r3, [r3, #0]
 8004a12:	2b01      	cmp	r3, #1
 8004a14:	d00b      	beq.n	8004a2e <checkCoordinates+0x92>
 8004a16:	4b59      	ldr	r3, [pc, #356]	@ (8004b7c <checkCoordinates+0x1e0>)
 8004a18:	881b      	ldrh	r3, [r3, #0]
 8004a1a:	2b17      	cmp	r3, #23
 8004a1c:	d80a      	bhi.n	8004a34 <checkCoordinates+0x98>
 8004a1e:	4b5a      	ldr	r3, [pc, #360]	@ (8004b88 <checkCoordinates+0x1ec>)
 8004a20:	881b      	ldrh	r3, [r3, #0]
 8004a22:	2b1b      	cmp	r3, #27
 8004a24:	d806      	bhi.n	8004a34 <checkCoordinates+0x98>
 8004a26:	4b5a      	ldr	r3, [pc, #360]	@ (8004b90 <checkCoordinates+0x1f4>)
 8004a28:	781b      	ldrb	r3, [r3, #0]
 8004a2a:	2b01      	cmp	r3, #1
 8004a2c:	d102      	bne.n	8004a34 <checkCoordinates+0x98>
	{
		gardenStateMenu();
 8004a2e:	f7ff fed9 	bl	80047e4 <gardenStateMenu>
 8004a32:	e0a0      	b.n	8004b76 <checkCoordinates+0x1da>
	}
	else if ((yCoordinates <= 23 && xCoordinates <= 27) && menu != 1)
 8004a34:	4b51      	ldr	r3, [pc, #324]	@ (8004b7c <checkCoordinates+0x1e0>)
 8004a36:	881b      	ldrh	r3, [r3, #0]
 8004a38:	2b17      	cmp	r3, #23
 8004a3a:	d80a      	bhi.n	8004a52 <checkCoordinates+0xb6>
 8004a3c:	4b52      	ldr	r3, [pc, #328]	@ (8004b88 <checkCoordinates+0x1ec>)
 8004a3e:	881b      	ldrh	r3, [r3, #0]
 8004a40:	2b1b      	cmp	r3, #27
 8004a42:	d806      	bhi.n	8004a52 <checkCoordinates+0xb6>
 8004a44:	4b4e      	ldr	r3, [pc, #312]	@ (8004b80 <checkCoordinates+0x1e4>)
 8004a46:	781b      	ldrb	r3, [r3, #0]
 8004a48:	2b01      	cmp	r3, #1
 8004a4a:	d002      	beq.n	8004a52 <checkCoordinates+0xb6>
	{
		mainMenu();
 8004a4c:	f7ff ff12 	bl	8004874 <mainMenu>
 8004a50:	e091      	b.n	8004b76 <checkCoordinates+0x1da>
	}
	else if ((yCoordinates >= 32 && yCoordinates <= 72) && weatherForecast == 1)
 8004a52:	4b4a      	ldr	r3, [pc, #296]	@ (8004b7c <checkCoordinates+0x1e0>)
 8004a54:	881b      	ldrh	r3, [r3, #0]
 8004a56:	2b1f      	cmp	r3, #31
 8004a58:	d910      	bls.n	8004a7c <checkCoordinates+0xe0>
 8004a5a:	4b48      	ldr	r3, [pc, #288]	@ (8004b7c <checkCoordinates+0x1e0>)
 8004a5c:	881b      	ldrh	r3, [r3, #0]
 8004a5e:	2b48      	cmp	r3, #72	@ 0x48
 8004a60:	d80c      	bhi.n	8004a7c <checkCoordinates+0xe0>
 8004a62:	4b4c      	ldr	r3, [pc, #304]	@ (8004b94 <checkCoordinates+0x1f8>)
 8004a64:	781b      	ldrb	r3, [r3, #0]
 8004a66:	2b01      	cmp	r3, #1
 8004a68:	d108      	bne.n	8004a7c <checkCoordinates+0xe0>
	{
		drawBufferScreen();
 8004a6a:	f7ff ff77 	bl	800495c <drawBufferScreen>
		sendAPIURL(SAIGON);
 8004a6e:	2001      	movs	r0, #1
 8004a70:	f000 fb28 	bl	80050c4 <sendAPIURL>
		currentCity = SAIGON;
 8004a74:	4b48      	ldr	r3, [pc, #288]	@ (8004b98 <checkCoordinates+0x1fc>)
 8004a76:	2201      	movs	r2, #1
 8004a78:	601a      	str	r2, [r3, #0]
 8004a7a:	e07c      	b.n	8004b76 <checkCoordinates+0x1da>
	}
	else if ((yCoordinates >= 80 && yCoordinates <= 120) && weatherForecast == 1)
 8004a7c:	4b3f      	ldr	r3, [pc, #252]	@ (8004b7c <checkCoordinates+0x1e0>)
 8004a7e:	881b      	ldrh	r3, [r3, #0]
 8004a80:	2b4f      	cmp	r3, #79	@ 0x4f
 8004a82:	d910      	bls.n	8004aa6 <checkCoordinates+0x10a>
 8004a84:	4b3d      	ldr	r3, [pc, #244]	@ (8004b7c <checkCoordinates+0x1e0>)
 8004a86:	881b      	ldrh	r3, [r3, #0]
 8004a88:	2b78      	cmp	r3, #120	@ 0x78
 8004a8a:	d80c      	bhi.n	8004aa6 <checkCoordinates+0x10a>
 8004a8c:	4b41      	ldr	r3, [pc, #260]	@ (8004b94 <checkCoordinates+0x1f8>)
 8004a8e:	781b      	ldrb	r3, [r3, #0]
 8004a90:	2b01      	cmp	r3, #1
 8004a92:	d108      	bne.n	8004aa6 <checkCoordinates+0x10a>
	{
		drawBufferScreen();
 8004a94:	f7ff ff62 	bl	800495c <drawBufferScreen>
		sendAPIURL(NHATRANG);
 8004a98:	2000      	movs	r0, #0
 8004a9a:	f000 fb13 	bl	80050c4 <sendAPIURL>
		currentCity = NHATRANG;
 8004a9e:	4b3e      	ldr	r3, [pc, #248]	@ (8004b98 <checkCoordinates+0x1fc>)
 8004aa0:	2200      	movs	r2, #0
 8004aa2:	601a      	str	r2, [r3, #0]
 8004aa4:	e067      	b.n	8004b76 <checkCoordinates+0x1da>
	}
	else if ((yCoordinates >= 128 && yCoordinates <= 168) && weatherForecast == 1)
 8004aa6:	4b35      	ldr	r3, [pc, #212]	@ (8004b7c <checkCoordinates+0x1e0>)
 8004aa8:	881b      	ldrh	r3, [r3, #0]
 8004aaa:	2b7f      	cmp	r3, #127	@ 0x7f
 8004aac:	d910      	bls.n	8004ad0 <checkCoordinates+0x134>
 8004aae:	4b33      	ldr	r3, [pc, #204]	@ (8004b7c <checkCoordinates+0x1e0>)
 8004ab0:	881b      	ldrh	r3, [r3, #0]
 8004ab2:	2ba8      	cmp	r3, #168	@ 0xa8
 8004ab4:	d80c      	bhi.n	8004ad0 <checkCoordinates+0x134>
 8004ab6:	4b37      	ldr	r3, [pc, #220]	@ (8004b94 <checkCoordinates+0x1f8>)
 8004ab8:	781b      	ldrb	r3, [r3, #0]
 8004aba:	2b01      	cmp	r3, #1
 8004abc:	d108      	bne.n	8004ad0 <checkCoordinates+0x134>
	{
		drawBufferScreen();
 8004abe:	f7ff ff4d 	bl	800495c <drawBufferScreen>
		sendAPIURL(HANOI);
 8004ac2:	2002      	movs	r0, #2
 8004ac4:	f000 fafe 	bl	80050c4 <sendAPIURL>
		currentCity = HANOI;
 8004ac8:	4b33      	ldr	r3, [pc, #204]	@ (8004b98 <checkCoordinates+0x1fc>)
 8004aca:	2202      	movs	r2, #2
 8004acc:	601a      	str	r2, [r3, #0]
 8004ace:	e052      	b.n	8004b76 <checkCoordinates+0x1da>
	}
	else if ((yCoordinates >= 176 && yCoordinates <= 216) && weatherForecast == 1)
 8004ad0:	4b2a      	ldr	r3, [pc, #168]	@ (8004b7c <checkCoordinates+0x1e0>)
 8004ad2:	881b      	ldrh	r3, [r3, #0]
 8004ad4:	2baf      	cmp	r3, #175	@ 0xaf
 8004ad6:	d910      	bls.n	8004afa <checkCoordinates+0x15e>
 8004ad8:	4b28      	ldr	r3, [pc, #160]	@ (8004b7c <checkCoordinates+0x1e0>)
 8004ada:	881b      	ldrh	r3, [r3, #0]
 8004adc:	2bd8      	cmp	r3, #216	@ 0xd8
 8004ade:	d80c      	bhi.n	8004afa <checkCoordinates+0x15e>
 8004ae0:	4b2c      	ldr	r3, [pc, #176]	@ (8004b94 <checkCoordinates+0x1f8>)
 8004ae2:	781b      	ldrb	r3, [r3, #0]
 8004ae4:	2b01      	cmp	r3, #1
 8004ae6:	d108      	bne.n	8004afa <checkCoordinates+0x15e>
	{
		drawBufferScreen();
 8004ae8:	f7ff ff38 	bl	800495c <drawBufferScreen>
		sendAPIURL(TAMPERE);
 8004aec:	2003      	movs	r0, #3
 8004aee:	f000 fae9 	bl	80050c4 <sendAPIURL>
		currentCity = TAMPERE;
 8004af2:	4b29      	ldr	r3, [pc, #164]	@ (8004b98 <checkCoordinates+0x1fc>)
 8004af4:	2203      	movs	r2, #3
 8004af6:	601a      	str	r2, [r3, #0]
 8004af8:	e03d      	b.n	8004b76 <checkCoordinates+0x1da>
	}
	else if ((yCoordinates >= 224 && yCoordinates <= 264) && weatherForecast == 1)
 8004afa:	4b20      	ldr	r3, [pc, #128]	@ (8004b7c <checkCoordinates+0x1e0>)
 8004afc:	881b      	ldrh	r3, [r3, #0]
 8004afe:	2bdf      	cmp	r3, #223	@ 0xdf
 8004b00:	d911      	bls.n	8004b26 <checkCoordinates+0x18a>
 8004b02:	4b1e      	ldr	r3, [pc, #120]	@ (8004b7c <checkCoordinates+0x1e0>)
 8004b04:	881b      	ldrh	r3, [r3, #0]
 8004b06:	f5b3 7f84 	cmp.w	r3, #264	@ 0x108
 8004b0a:	d80c      	bhi.n	8004b26 <checkCoordinates+0x18a>
 8004b0c:	4b21      	ldr	r3, [pc, #132]	@ (8004b94 <checkCoordinates+0x1f8>)
 8004b0e:	781b      	ldrb	r3, [r3, #0]
 8004b10:	2b01      	cmp	r3, #1
 8004b12:	d108      	bne.n	8004b26 <checkCoordinates+0x18a>
	{
		drawBufferScreen();
 8004b14:	f7ff ff22 	bl	800495c <drawBufferScreen>
		sendAPIURL(ARNHEM);
 8004b18:	2004      	movs	r0, #4
 8004b1a:	f000 fad3 	bl	80050c4 <sendAPIURL>
		currentCity = ARNHEM;
 8004b1e:	4b1e      	ldr	r3, [pc, #120]	@ (8004b98 <checkCoordinates+0x1fc>)
 8004b20:	2204      	movs	r2, #4
 8004b22:	601a      	str	r2, [r3, #0]
 8004b24:	e027      	b.n	8004b76 <checkCoordinates+0x1da>
	}
	else if ((yCoordinates >= 272 && yCoordinates <= 312) && weatherForecast == 1)
 8004b26:	4b15      	ldr	r3, [pc, #84]	@ (8004b7c <checkCoordinates+0x1e0>)
 8004b28:	881b      	ldrh	r3, [r3, #0]
 8004b2a:	f5b3 7f88 	cmp.w	r3, #272	@ 0x110
 8004b2e:	d311      	bcc.n	8004b54 <checkCoordinates+0x1b8>
 8004b30:	4b12      	ldr	r3, [pc, #72]	@ (8004b7c <checkCoordinates+0x1e0>)
 8004b32:	881b      	ldrh	r3, [r3, #0]
 8004b34:	f5b3 7f9c 	cmp.w	r3, #312	@ 0x138
 8004b38:	d80c      	bhi.n	8004b54 <checkCoordinates+0x1b8>
 8004b3a:	4b16      	ldr	r3, [pc, #88]	@ (8004b94 <checkCoordinates+0x1f8>)
 8004b3c:	781b      	ldrb	r3, [r3, #0]
 8004b3e:	2b01      	cmp	r3, #1
 8004b40:	d108      	bne.n	8004b54 <checkCoordinates+0x1b8>
	{
		drawBufferScreen();
 8004b42:	f7ff ff0b 	bl	800495c <drawBufferScreen>
		sendAPIURL(SYDNEY);
 8004b46:	2005      	movs	r0, #5
 8004b48:	f000 fabc 	bl	80050c4 <sendAPIURL>
		currentCity = SYDNEY;
 8004b4c:	4b12      	ldr	r3, [pc, #72]	@ (8004b98 <checkCoordinates+0x1fc>)
 8004b4e:	2205      	movs	r2, #5
 8004b50:	601a      	str	r2, [r3, #0]
 8004b52:	e010      	b.n	8004b76 <checkCoordinates+0x1da>
	}

	else if ((yCoordinates >= 32 && yCoordinates <= 72) && gardenState == 1)
 8004b54:	4b09      	ldr	r3, [pc, #36]	@ (8004b7c <checkCoordinates+0x1e0>)
 8004b56:	881b      	ldrh	r3, [r3, #0]
 8004b58:	2b1f      	cmp	r3, #31
 8004b5a:	d90c      	bls.n	8004b76 <checkCoordinates+0x1da>
 8004b5c:	4b07      	ldr	r3, [pc, #28]	@ (8004b7c <checkCoordinates+0x1e0>)
 8004b5e:	881b      	ldrh	r3, [r3, #0]
 8004b60:	2b48      	cmp	r3, #72	@ 0x48
 8004b62:	d808      	bhi.n	8004b76 <checkCoordinates+0x1da>
 8004b64:	4b0d      	ldr	r3, [pc, #52]	@ (8004b9c <checkCoordinates+0x200>)
 8004b66:	781b      	ldrb	r3, [r3, #0]
 8004b68:	2b01      	cmp	r3, #1
 8004b6a:	d104      	bne.n	8004b76 <checkCoordinates+0x1da>
	{
		drawBufferScreen();
 8004b6c:	f7ff fef6 	bl	800495c <drawBufferScreen>
		sendGardenStateRequest();
 8004b70:	f000 fb32 	bl	80051d8 <sendGardenStateRequest>
	}
}
 8004b74:	e7ff      	b.n	8004b76 <checkCoordinates+0x1da>
 8004b76:	bf00      	nop
 8004b78:	bd80      	pop	{r7, pc}
 8004b7a:	bf00      	nop
 8004b7c:	200009fa 	.word	0x200009fa
 8004b80:	20000058 	.word	0x20000058
 8004b84:	200009fc 	.word	0x200009fc
 8004b88:	200009f8 	.word	0x200009f8
 8004b8c:	200009fe 	.word	0x200009fe
 8004b90:	20000a00 	.word	0x20000a00
 8004b94:	200009fd 	.word	0x200009fd
 8004b98:	20000a28 	.word	0x20000a28
 8004b9c:	200009ff 	.word	0x200009ff

08004ba0 <drawWeather>:

void drawWeather(uint16_t xPosition, uint16_t yPosition, int weatherCode)
{
 8004ba0:	b580      	push	{r7, lr}
 8004ba2:	b082      	sub	sp, #8
 8004ba4:	af00      	add	r7, sp, #0
 8004ba6:	4603      	mov	r3, r0
 8004ba8:	603a      	str	r2, [r7, #0]
 8004baa:	80fb      	strh	r3, [r7, #6]
 8004bac:	460b      	mov	r3, r1
 8004bae:	80bb      	strh	r3, [r7, #4]
	if (weatherCode == 0)
 8004bb0:	683b      	ldr	r3, [r7, #0]
 8004bb2:	2b00      	cmp	r3, #0
 8004bb4:	d106      	bne.n	8004bc4 <drawWeather+0x24>
	{
		drawClearDay(xPosition, yPosition);
 8004bb6:	88ba      	ldrh	r2, [r7, #4]
 8004bb8:	88fb      	ldrh	r3, [r7, #6]
 8004bba:	4611      	mov	r1, r2
 8004bbc:	4618      	mov	r0, r3
 8004bbe:	f7fd fd6e 	bl	800269e <drawClearDay>
	}
	else if (weatherCode == 45 || weatherCode == 48)
	{
		drawFoggyDay(xPosition, yPosition);
	}
}
 8004bc2:	e04c      	b.n	8004c5e <drawWeather+0xbe>
	else if (weatherCode >= 1 && weatherCode <= 3)
 8004bc4:	683b      	ldr	r3, [r7, #0]
 8004bc6:	2b00      	cmp	r3, #0
 8004bc8:	dd09      	ble.n	8004bde <drawWeather+0x3e>
 8004bca:	683b      	ldr	r3, [r7, #0]
 8004bcc:	2b03      	cmp	r3, #3
 8004bce:	dc06      	bgt.n	8004bde <drawWeather+0x3e>
		drawCloudyDay(xPosition, yPosition);
 8004bd0:	88ba      	ldrh	r2, [r7, #4]
 8004bd2:	88fb      	ldrh	r3, [r7, #6]
 8004bd4:	4611      	mov	r1, r2
 8004bd6:	4618      	mov	r0, r3
 8004bd8:	f7fd fd79 	bl	80026ce <drawCloudyDay>
 8004bdc:	e03f      	b.n	8004c5e <drawWeather+0xbe>
	else if ((weatherCode >= 51 && weatherCode <= 67) || (weatherCode >= 80 && weatherCode <= 82))
 8004bde:	683b      	ldr	r3, [r7, #0]
 8004be0:	2b32      	cmp	r3, #50	@ 0x32
 8004be2:	dd02      	ble.n	8004bea <drawWeather+0x4a>
 8004be4:	683b      	ldr	r3, [r7, #0]
 8004be6:	2b43      	cmp	r3, #67	@ 0x43
 8004be8:	dd05      	ble.n	8004bf6 <drawWeather+0x56>
 8004bea:	683b      	ldr	r3, [r7, #0]
 8004bec:	2b4f      	cmp	r3, #79	@ 0x4f
 8004bee:	dd09      	ble.n	8004c04 <drawWeather+0x64>
 8004bf0:	683b      	ldr	r3, [r7, #0]
 8004bf2:	2b52      	cmp	r3, #82	@ 0x52
 8004bf4:	dc06      	bgt.n	8004c04 <drawWeather+0x64>
		drawRainyDay(xPosition, yPosition);
 8004bf6:	88ba      	ldrh	r2, [r7, #4]
 8004bf8:	88fb      	ldrh	r3, [r7, #6]
 8004bfa:	4611      	mov	r1, r2
 8004bfc:	4618      	mov	r0, r3
 8004bfe:	f7fd fda6 	bl	800274e <drawRainyDay>
 8004c02:	e02c      	b.n	8004c5e <drawWeather+0xbe>
	else if ((weatherCode >= 71 && weatherCode <= 77) || (weatherCode == 85 || weatherCode == 86))
 8004c04:	683b      	ldr	r3, [r7, #0]
 8004c06:	2b46      	cmp	r3, #70	@ 0x46
 8004c08:	dd02      	ble.n	8004c10 <drawWeather+0x70>
 8004c0a:	683b      	ldr	r3, [r7, #0]
 8004c0c:	2b4d      	cmp	r3, #77	@ 0x4d
 8004c0e:	dd05      	ble.n	8004c1c <drawWeather+0x7c>
 8004c10:	683b      	ldr	r3, [r7, #0]
 8004c12:	2b55      	cmp	r3, #85	@ 0x55
 8004c14:	d002      	beq.n	8004c1c <drawWeather+0x7c>
 8004c16:	683b      	ldr	r3, [r7, #0]
 8004c18:	2b56      	cmp	r3, #86	@ 0x56
 8004c1a:	d106      	bne.n	8004c2a <drawWeather+0x8a>
		drawSnowyDay(xPosition, yPosition);
 8004c1c:	88ba      	ldrh	r2, [r7, #4]
 8004c1e:	88fb      	ldrh	r3, [r7, #6]
 8004c20:	4611      	mov	r1, r2
 8004c22:	4618      	mov	r0, r3
 8004c24:	f7fd fdfe 	bl	8002824 <drawSnowyDay>
 8004c28:	e019      	b.n	8004c5e <drawWeather+0xbe>
	else if (weatherCode >= 95 && weatherCode <= 99)
 8004c2a:	683b      	ldr	r3, [r7, #0]
 8004c2c:	2b5e      	cmp	r3, #94	@ 0x5e
 8004c2e:	dd09      	ble.n	8004c44 <drawWeather+0xa4>
 8004c30:	683b      	ldr	r3, [r7, #0]
 8004c32:	2b63      	cmp	r3, #99	@ 0x63
 8004c34:	dc06      	bgt.n	8004c44 <drawWeather+0xa4>
		drawStormyDay(xPosition, yPosition);
 8004c36:	88ba      	ldrh	r2, [r7, #4]
 8004c38:	88fb      	ldrh	r3, [r7, #6]
 8004c3a:	4611      	mov	r1, r2
 8004c3c:	4618      	mov	r0, r3
 8004c3e:	f7fd ff27 	bl	8002a90 <drawStormyDay>
 8004c42:	e00c      	b.n	8004c5e <drawWeather+0xbe>
	else if (weatherCode == 45 || weatherCode == 48)
 8004c44:	683b      	ldr	r3, [r7, #0]
 8004c46:	2b2d      	cmp	r3, #45	@ 0x2d
 8004c48:	d002      	beq.n	8004c50 <drawWeather+0xb0>
 8004c4a:	683b      	ldr	r3, [r7, #0]
 8004c4c:	2b30      	cmp	r3, #48	@ 0x30
 8004c4e:	d106      	bne.n	8004c5e <drawWeather+0xbe>
		drawFoggyDay(xPosition, yPosition);
 8004c50:	88ba      	ldrh	r2, [r7, #4]
 8004c52:	88fb      	ldrh	r3, [r7, #6]
 8004c54:	4611      	mov	r1, r2
 8004c56:	4618      	mov	r0, r3
 8004c58:	f7fd fe3a 	bl	80028d0 <drawFoggyDay>
}
 8004c5c:	e7ff      	b.n	8004c5e <drawWeather+0xbe>
 8004c5e:	bf00      	nop
 8004c60:	3708      	adds	r7, #8
 8004c62:	46bd      	mov	sp, r7
 8004c64:	bd80      	pop	{r7, pc}
	...

08004c68 <weatherForecastInterface>:

void weatherForecastInterface()
{
 8004c68:	b580      	push	{r7, lr}
 8004c6a:	b086      	sub	sp, #24
 8004c6c:	af02      	add	r7, sp, #8
	showWeather = 1;
 8004c6e:	4b8c      	ldr	r3, [pc, #560]	@ (8004ea0 <weatherForecastInterface+0x238>)
 8004c70:	2201      	movs	r2, #1
 8004c72:	701a      	strb	r2, [r3, #0]
	uint16_t color;
	if (isDay == 0)
 8004c74:	4b8b      	ldr	r3, [pc, #556]	@ (8004ea4 <weatherForecastInterface+0x23c>)
 8004c76:	781b      	ldrb	r3, [r3, #0]
 8004c78:	2b00      	cmp	r3, #0
 8004c7a:	d10c      	bne.n	8004c96 <weatherForecastInterface+0x2e>
	{
		lcdDrawImage(0, 0, &imageNight);
 8004c7c:	4a8a      	ldr	r2, [pc, #552]	@ (8004ea8 <weatherForecastInterface+0x240>)
 8004c7e:	2100      	movs	r1, #0
 8004c80:	2000      	movs	r0, #0
 8004c82:	f7fe fc5d 	bl	8003540 <lcdDrawImage>
		color = COLOR_NAVY;
 8004c86:	230f      	movs	r3, #15
 8004c88:	81fb      	strh	r3, [r7, #14]
		lcdSetTextColor(COLOR_WHITE, COLOR_BLACK);
 8004c8a:	2100      	movs	r1, #0
 8004c8c:	f64f 70ff 	movw	r0, #65535	@ 0xffff
 8004c90:	f7fe ff08 	bl	8003aa4 <lcdSetTextColor>
 8004c94:	e00b      	b.n	8004cae <weatherForecastInterface+0x46>
	}
	else
	{
		lcdDrawImage(0, 0, &imageDay);
 8004c96:	4a85      	ldr	r2, [pc, #532]	@ (8004eac <weatherForecastInterface+0x244>)
 8004c98:	2100      	movs	r1, #0
 8004c9a:	2000      	movs	r0, #0
 8004c9c:	f7fe fc50 	bl	8003540 <lcdDrawImage>
		color = COLOR_CYAN;
 8004ca0:	f240 73ff 	movw	r3, #2047	@ 0x7ff
 8004ca4:	81fb      	strh	r3, [r7, #14]
		lcdSetTextColor(COLOR_BLACK, COLOR_BLACK);
 8004ca6:	2100      	movs	r1, #0
 8004ca8:	2000      	movs	r0, #0
 8004caa:	f7fe fefb 	bl	8003aa4 <lcdSetTextColor>
	}
	drawBackIcon();
 8004cae:	f7ff faa5 	bl	80041fc <drawBackIcon>

	for (int y = 160; y < 320; y++)
 8004cb2:	23a0      	movs	r3, #160	@ 0xa0
 8004cb4:	60bb      	str	r3, [r7, #8]
 8004cb6:	e013      	b.n	8004ce0 <weatherForecastInterface+0x78>
	{
		for (int x = 0; x < 240; x++)
 8004cb8:	2300      	movs	r3, #0
 8004cba:	607b      	str	r3, [r7, #4]
 8004cbc:	e00a      	b.n	8004cd4 <weatherForecastInterface+0x6c>
		{
		    lcdDrawPixel(x, y, color);
 8004cbe:	687b      	ldr	r3, [r7, #4]
 8004cc0:	b29b      	uxth	r3, r3
 8004cc2:	68ba      	ldr	r2, [r7, #8]
 8004cc4:	b291      	uxth	r1, r2
 8004cc6:	89fa      	ldrh	r2, [r7, #14]
 8004cc8:	4618      	mov	r0, r3
 8004cca:	f7fd fffb 	bl	8002cc4 <lcdDrawPixel>
		for (int x = 0; x < 240; x++)
 8004cce:	687b      	ldr	r3, [r7, #4]
 8004cd0:	3301      	adds	r3, #1
 8004cd2:	607b      	str	r3, [r7, #4]
 8004cd4:	687b      	ldr	r3, [r7, #4]
 8004cd6:	2bef      	cmp	r3, #239	@ 0xef
 8004cd8:	ddf1      	ble.n	8004cbe <weatherForecastInterface+0x56>
	for (int y = 160; y < 320; y++)
 8004cda:	68bb      	ldr	r3, [r7, #8]
 8004cdc:	3301      	adds	r3, #1
 8004cde:	60bb      	str	r3, [r7, #8]
 8004ce0:	68bb      	ldr	r3, [r7, #8]
 8004ce2:	f5b3 7fa0 	cmp.w	r3, #320	@ 0x140
 8004ce6:	dbe7      	blt.n	8004cb8 <weatherForecastInterface+0x50>
		}
	}

	lcdSetTextFont(&Font12);
 8004ce8:	4871      	ldr	r0, [pc, #452]	@ (8004eb0 <weatherForecastInterface+0x248>)
 8004cea:	f7fe fecb 	bl	8003a84 <lcdSetTextFont>

	reformatDate();
 8004cee:	f000 f9ad 	bl	800504c <reformatDate>

	drawWeather(40, 190, weather[0]);
 8004cf2:	4b70      	ldr	r3, [pc, #448]	@ (8004eb4 <weatherForecastInterface+0x24c>)
 8004cf4:	681b      	ldr	r3, [r3, #0]
 8004cf6:	461a      	mov	r2, r3
 8004cf8:	21be      	movs	r1, #190	@ 0xbe
 8004cfa:	2028      	movs	r0, #40	@ 0x28
 8004cfc:	f7ff ff50 	bl	8004ba0 <drawWeather>
	lcdSetCursor(25, 160);
 8004d00:	21a0      	movs	r1, #160	@ 0xa0
 8004d02:	2019      	movs	r0, #25
 8004d04:	f7fe ff4e 	bl	8003ba4 <lcdSetCursor>
	lcdPrintfNoBackColor(date[0]);
 8004d08:	4b6b      	ldr	r3, [pc, #428]	@ (8004eb8 <weatherForecastInterface+0x250>)
 8004d0a:	681b      	ldr	r3, [r3, #0]
 8004d0c:	4618      	mov	r0, r3
 8004d0e:	f7fe fe33 	bl	8003978 <lcdPrintfNoBackColor>

	drawWeather(90, 190, weather[1]);
 8004d12:	4b68      	ldr	r3, [pc, #416]	@ (8004eb4 <weatherForecastInterface+0x24c>)
 8004d14:	685b      	ldr	r3, [r3, #4]
 8004d16:	461a      	mov	r2, r3
 8004d18:	21be      	movs	r1, #190	@ 0xbe
 8004d1a:	205a      	movs	r0, #90	@ 0x5a
 8004d1c:	f7ff ff40 	bl	8004ba0 <drawWeather>
	lcdSetCursor(75, 160);
 8004d20:	21a0      	movs	r1, #160	@ 0xa0
 8004d22:	204b      	movs	r0, #75	@ 0x4b
 8004d24:	f7fe ff3e 	bl	8003ba4 <lcdSetCursor>
	lcdPrintfNoBackColor(date[1]);
 8004d28:	4b63      	ldr	r3, [pc, #396]	@ (8004eb8 <weatherForecastInterface+0x250>)
 8004d2a:	685b      	ldr	r3, [r3, #4]
 8004d2c:	4618      	mov	r0, r3
 8004d2e:	f7fe fe23 	bl	8003978 <lcdPrintfNoBackColor>

	drawWeather(150, 190, weather[2]);
 8004d32:	4b60      	ldr	r3, [pc, #384]	@ (8004eb4 <weatherForecastInterface+0x24c>)
 8004d34:	689b      	ldr	r3, [r3, #8]
 8004d36:	461a      	mov	r2, r3
 8004d38:	21be      	movs	r1, #190	@ 0xbe
 8004d3a:	2096      	movs	r0, #150	@ 0x96
 8004d3c:	f7ff ff30 	bl	8004ba0 <drawWeather>
	lcdSetCursor(135, 160);
 8004d40:	21a0      	movs	r1, #160	@ 0xa0
 8004d42:	2087      	movs	r0, #135	@ 0x87
 8004d44:	f7fe ff2e 	bl	8003ba4 <lcdSetCursor>
	lcdPrintfNoBackColor(date[2]);
 8004d48:	4b5b      	ldr	r3, [pc, #364]	@ (8004eb8 <weatherForecastInterface+0x250>)
 8004d4a:	689b      	ldr	r3, [r3, #8]
 8004d4c:	4618      	mov	r0, r3
 8004d4e:	f7fe fe13 	bl	8003978 <lcdPrintfNoBackColor>

	drawWeather(200, 190, weather[3]);
 8004d52:	4b58      	ldr	r3, [pc, #352]	@ (8004eb4 <weatherForecastInterface+0x24c>)
 8004d54:	68db      	ldr	r3, [r3, #12]
 8004d56:	461a      	mov	r2, r3
 8004d58:	21be      	movs	r1, #190	@ 0xbe
 8004d5a:	20c8      	movs	r0, #200	@ 0xc8
 8004d5c:	f7ff ff20 	bl	8004ba0 <drawWeather>
	lcdSetCursor(185, 160);
 8004d60:	21a0      	movs	r1, #160	@ 0xa0
 8004d62:	20b9      	movs	r0, #185	@ 0xb9
 8004d64:	f7fe ff1e 	bl	8003ba4 <lcdSetCursor>
	lcdPrintfNoBackColor(date[3]);
 8004d68:	4b53      	ldr	r3, [pc, #332]	@ (8004eb8 <weatherForecastInterface+0x250>)
 8004d6a:	68db      	ldr	r3, [r3, #12]
 8004d6c:	4618      	mov	r0, r3
 8004d6e:	f7fe fe03 	bl	8003978 <lcdPrintfNoBackColor>

	drawWeather(65, 270, weather[4]);
 8004d72:	4b50      	ldr	r3, [pc, #320]	@ (8004eb4 <weatherForecastInterface+0x24c>)
 8004d74:	691b      	ldr	r3, [r3, #16]
 8004d76:	461a      	mov	r2, r3
 8004d78:	f44f 7187 	mov.w	r1, #270	@ 0x10e
 8004d7c:	2041      	movs	r0, #65	@ 0x41
 8004d7e:	f7ff ff0f 	bl	8004ba0 <drawWeather>
	lcdSetCursor(50, 240);
 8004d82:	21f0      	movs	r1, #240	@ 0xf0
 8004d84:	2032      	movs	r0, #50	@ 0x32
 8004d86:	f7fe ff0d 	bl	8003ba4 <lcdSetCursor>
	lcdPrintfNoBackColor(date[4]);
 8004d8a:	4b4b      	ldr	r3, [pc, #300]	@ (8004eb8 <weatherForecastInterface+0x250>)
 8004d8c:	691b      	ldr	r3, [r3, #16]
 8004d8e:	4618      	mov	r0, r3
 8004d90:	f7fe fdf2 	bl	8003978 <lcdPrintfNoBackColor>

	drawWeather(120, 270, weather[5]);
 8004d94:	4b47      	ldr	r3, [pc, #284]	@ (8004eb4 <weatherForecastInterface+0x24c>)
 8004d96:	695b      	ldr	r3, [r3, #20]
 8004d98:	461a      	mov	r2, r3
 8004d9a:	f44f 7187 	mov.w	r1, #270	@ 0x10e
 8004d9e:	2078      	movs	r0, #120	@ 0x78
 8004da0:	f7ff fefe 	bl	8004ba0 <drawWeather>
	lcdSetCursor(105, 240);
 8004da4:	21f0      	movs	r1, #240	@ 0xf0
 8004da6:	2069      	movs	r0, #105	@ 0x69
 8004da8:	f7fe fefc 	bl	8003ba4 <lcdSetCursor>
	lcdPrintfNoBackColor(date[5]);
 8004dac:	4b42      	ldr	r3, [pc, #264]	@ (8004eb8 <weatherForecastInterface+0x250>)
 8004dae:	695b      	ldr	r3, [r3, #20]
 8004db0:	4618      	mov	r0, r3
 8004db2:	f7fe fde1 	bl	8003978 <lcdPrintfNoBackColor>

	drawWeather(175, 270, weather[6]);
 8004db6:	4b3f      	ldr	r3, [pc, #252]	@ (8004eb4 <weatherForecastInterface+0x24c>)
 8004db8:	699b      	ldr	r3, [r3, #24]
 8004dba:	461a      	mov	r2, r3
 8004dbc:	f44f 7187 	mov.w	r1, #270	@ 0x10e
 8004dc0:	20af      	movs	r0, #175	@ 0xaf
 8004dc2:	f7ff feed 	bl	8004ba0 <drawWeather>
	lcdSetCursor(160, 240);
 8004dc6:	21f0      	movs	r1, #240	@ 0xf0
 8004dc8:	20a0      	movs	r0, #160	@ 0xa0
 8004dca:	f7fe feeb 	bl	8003ba4 <lcdSetCursor>
	lcdPrintfNoBackColor(date[6]);
 8004dce:	4b3a      	ldr	r3, [pc, #232]	@ (8004eb8 <weatherForecastInterface+0x250>)
 8004dd0:	699b      	ldr	r3, [r3, #24]
 8004dd2:	4618      	mov	r0, r3
 8004dd4:	f7fe fdd0 	bl	8003978 <lcdPrintfNoBackColor>

	lcdSetCursor(80, 110);
 8004dd8:	216e      	movs	r1, #110	@ 0x6e
 8004dda:	2050      	movs	r0, #80	@ 0x50
 8004ddc:	f7fe fee2 	bl	8003ba4 <lcdSetCursor>
	lcdPrintfNoBackColor("Humidity: %d%%", currentHumidity);
 8004de0:	4b36      	ldr	r3, [pc, #216]	@ (8004ebc <weatherForecastInterface+0x254>)
 8004de2:	681b      	ldr	r3, [r3, #0]
 8004de4:	4619      	mov	r1, r3
 8004de6:	4836      	ldr	r0, [pc, #216]	@ (8004ec0 <weatherForecastInterface+0x258>)
 8004de8:	f7fe fdc6 	bl	8003978 <lcdPrintfNoBackColor>
	lcdSetTextFont(&Font20);
 8004dec:	4835      	ldr	r0, [pc, #212]	@ (8004ec4 <weatherForecastInterface+0x25c>)
 8004dee:	f7fe fe49 	bl	8003a84 <lcdSetTextFont>
	lcdSetCursor(110, 90);
 8004df2:	215a      	movs	r1, #90	@ 0x5a
 8004df4:	206e      	movs	r0, #110	@ 0x6e
 8004df6:	f7fe fed5 	bl	8003ba4 <lcdSetCursor>
	lcdPrintfNoBackColor("%d", currentTemperature);
 8004dfa:	4b33      	ldr	r3, [pc, #204]	@ (8004ec8 <weatherForecastInterface+0x260>)
 8004dfc:	681b      	ldr	r3, [r3, #0]
 8004dfe:	4619      	mov	r1, r3
 8004e00:	4832      	ldr	r0, [pc, #200]	@ (8004ecc <weatherForecastInterface+0x264>)
 8004e02:	f7fe fdb9 	bl	8003978 <lcdPrintfNoBackColor>

	switch (currentCity)
 8004e06:	4b32      	ldr	r3, [pc, #200]	@ (8004ed0 <weatherForecastInterface+0x268>)
 8004e08:	681b      	ldr	r3, [r3, #0]
 8004e0a:	2b05      	cmp	r3, #5
 8004e0c:	d844      	bhi.n	8004e98 <weatherForecastInterface+0x230>
 8004e0e:	a201      	add	r2, pc, #4	@ (adr r2, 8004e14 <weatherForecastInterface+0x1ac>)
 8004e10:	f852 f023 	ldr.w	pc, [r2, r3, lsl #2]
 8004e14:	08004e2d 	.word	0x08004e2d
 8004e18:	08004e3f 	.word	0x08004e3f
 8004e1c:	08004e51 	.word	0x08004e51
 8004e20:	08004e63 	.word	0x08004e63
 8004e24:	08004e75 	.word	0x08004e75
 8004e28:	08004e87 	.word	0x08004e87
	{
		case NHATRANG:
			drawAlignedText("Nha Trang", 10, 240, 16, NOBACKCOLOR);
 8004e2c:	2300      	movs	r3, #0
 8004e2e:	9300      	str	r3, [sp, #0]
 8004e30:	2310      	movs	r3, #16
 8004e32:	22f0      	movs	r2, #240	@ 0xf0
 8004e34:	210a      	movs	r1, #10
 8004e36:	4827      	ldr	r0, [pc, #156]	@ (8004ed4 <weatherForecastInterface+0x26c>)
 8004e38:	f7fd fc08 	bl	800264c <drawAlignedText>
			break;
 8004e3c:	e02c      	b.n	8004e98 <weatherForecastInterface+0x230>
		case SAIGON:
			drawAlignedText("Sai Gon", 10, 240, 16, NOBACKCOLOR);
 8004e3e:	2300      	movs	r3, #0
 8004e40:	9300      	str	r3, [sp, #0]
 8004e42:	2310      	movs	r3, #16
 8004e44:	22f0      	movs	r2, #240	@ 0xf0
 8004e46:	210a      	movs	r1, #10
 8004e48:	4823      	ldr	r0, [pc, #140]	@ (8004ed8 <weatherForecastInterface+0x270>)
 8004e4a:	f7fd fbff 	bl	800264c <drawAlignedText>
			break;
 8004e4e:	e023      	b.n	8004e98 <weatherForecastInterface+0x230>
		case HANOI:
			drawAlignedText("Ha Noi", 10, 240, 16, NOBACKCOLOR);
 8004e50:	2300      	movs	r3, #0
 8004e52:	9300      	str	r3, [sp, #0]
 8004e54:	2310      	movs	r3, #16
 8004e56:	22f0      	movs	r2, #240	@ 0xf0
 8004e58:	210a      	movs	r1, #10
 8004e5a:	4820      	ldr	r0, [pc, #128]	@ (8004edc <weatherForecastInterface+0x274>)
 8004e5c:	f7fd fbf6 	bl	800264c <drawAlignedText>
			break;
 8004e60:	e01a      	b.n	8004e98 <weatherForecastInterface+0x230>
		case TAMPERE:
			drawAlignedText("Tampere", 10, 240, 16, NOBACKCOLOR);
 8004e62:	2300      	movs	r3, #0
 8004e64:	9300      	str	r3, [sp, #0]
 8004e66:	2310      	movs	r3, #16
 8004e68:	22f0      	movs	r2, #240	@ 0xf0
 8004e6a:	210a      	movs	r1, #10
 8004e6c:	481c      	ldr	r0, [pc, #112]	@ (8004ee0 <weatherForecastInterface+0x278>)
 8004e6e:	f7fd fbed 	bl	800264c <drawAlignedText>
			break;
 8004e72:	e011      	b.n	8004e98 <weatherForecastInterface+0x230>
		case ARNHEM:
			drawAlignedText("Arnhem", 10, 240, 16, NOBACKCOLOR);
 8004e74:	2300      	movs	r3, #0
 8004e76:	9300      	str	r3, [sp, #0]
 8004e78:	2310      	movs	r3, #16
 8004e7a:	22f0      	movs	r2, #240	@ 0xf0
 8004e7c:	210a      	movs	r1, #10
 8004e7e:	4819      	ldr	r0, [pc, #100]	@ (8004ee4 <weatherForecastInterface+0x27c>)
 8004e80:	f7fd fbe4 	bl	800264c <drawAlignedText>
			break;
 8004e84:	e008      	b.n	8004e98 <weatherForecastInterface+0x230>
		case SYDNEY:
			drawAlignedText("Sydney", 10, 240, 16, NOBACKCOLOR);
 8004e86:	2300      	movs	r3, #0
 8004e88:	9300      	str	r3, [sp, #0]
 8004e8a:	2310      	movs	r3, #16
 8004e8c:	22f0      	movs	r2, #240	@ 0xf0
 8004e8e:	210a      	movs	r1, #10
 8004e90:	4815      	ldr	r0, [pc, #84]	@ (8004ee8 <weatherForecastInterface+0x280>)
 8004e92:	f7fd fbdb 	bl	800264c <drawAlignedText>
			break;
 8004e96:	bf00      	nop
	}
}
 8004e98:	bf00      	nop
 8004e9a:	3710      	adds	r7, #16
 8004e9c:	46bd      	mov	sp, r7
 8004e9e:	bd80      	pop	{r7, pc}
 8004ea0:	200009fe 	.word	0x200009fe
 8004ea4:	20000a31 	.word	0x20000a31
 8004ea8:	08031728 	.word	0x08031728
 8004eac:	0801eb1c 	.word	0x0801eb1c
 8004eb0:	2000000c 	.word	0x2000000c
 8004eb4:	20000a04 	.word	0x20000a04
 8004eb8:	20000a34 	.word	0x20000a34
 8004ebc:	20000a24 	.word	0x20000a24
 8004ec0:	0800bdc8 	.word	0x0800bdc8
 8004ec4:	2000001c 	.word	0x2000001c
 8004ec8:	20000a20 	.word	0x20000a20
 8004ecc:	0800bdd8 	.word	0x0800bdd8
 8004ed0:	20000a28 	.word	0x20000a28
 8004ed4:	0800bd20 	.word	0x0800bd20
 8004ed8:	0800bd18 	.word	0x0800bd18
 8004edc:	0800bd2c 	.word	0x0800bd2c
 8004ee0:	0800bd34 	.word	0x0800bd34
 8004ee4:	0800bd3c 	.word	0x0800bd3c
 8004ee8:	0800bd44 	.word	0x0800bd44

08004eec <gardenStateInterface>:

void gardenStateInterface()
{
 8004eec:	b580      	push	{r7, lr}
 8004eee:	b084      	sub	sp, #16
 8004ef0:	af02      	add	r7, sp, #8
	showGardenState = 1;
 8004ef2:	4b3b      	ldr	r3, [pc, #236]	@ (8004fe0 <gardenStateInterface+0xf4>)
 8004ef4:	2201      	movs	r2, #1
 8004ef6:	701a      	strb	r2, [r3, #0]
	lcdDrawImage(0, 0, &imageDay);
 8004ef8:	4a3a      	ldr	r2, [pc, #232]	@ (8004fe4 <gardenStateInterface+0xf8>)
 8004efa:	2100      	movs	r1, #0
 8004efc:	2000      	movs	r0, #0
 8004efe:	f7fe fb1f 	bl	8003540 <lcdDrawImage>
	lcdSetTextColor(COLOR_BLACK, COLOR_BLACK);
 8004f02:	2100      	movs	r1, #0
 8004f04:	2000      	movs	r0, #0
 8004f06:	f7fe fdcd 	bl	8003aa4 <lcdSetTextColor>
	drawBackIcon();
 8004f0a:	f7ff f977 	bl	80041fc <drawBackIcon>
	for (int y = 160; y < 320; y++)
 8004f0e:	23a0      	movs	r3, #160	@ 0xa0
 8004f10:	607b      	str	r3, [r7, #4]
 8004f12:	e014      	b.n	8004f3e <gardenStateInterface+0x52>
	{
		for (int x = 0; x < 240; x++)
 8004f14:	2300      	movs	r3, #0
 8004f16:	603b      	str	r3, [r7, #0]
 8004f18:	e00b      	b.n	8004f32 <gardenStateInterface+0x46>
		{
			lcdDrawPixel(x, y, COLOR_CYAN);
 8004f1a:	683b      	ldr	r3, [r7, #0]
 8004f1c:	b29b      	uxth	r3, r3
 8004f1e:	687a      	ldr	r2, [r7, #4]
 8004f20:	b291      	uxth	r1, r2
 8004f22:	f240 72ff 	movw	r2, #2047	@ 0x7ff
 8004f26:	4618      	mov	r0, r3
 8004f28:	f7fd fecc 	bl	8002cc4 <lcdDrawPixel>
		for (int x = 0; x < 240; x++)
 8004f2c:	683b      	ldr	r3, [r7, #0]
 8004f2e:	3301      	adds	r3, #1
 8004f30:	603b      	str	r3, [r7, #0]
 8004f32:	683b      	ldr	r3, [r7, #0]
 8004f34:	2bef      	cmp	r3, #239	@ 0xef
 8004f36:	ddf0      	ble.n	8004f1a <gardenStateInterface+0x2e>
	for (int y = 160; y < 320; y++)
 8004f38:	687b      	ldr	r3, [r7, #4]
 8004f3a:	3301      	adds	r3, #1
 8004f3c:	607b      	str	r3, [r7, #4]
 8004f3e:	687b      	ldr	r3, [r7, #4]
 8004f40:	f5b3 7fa0 	cmp.w	r3, #320	@ 0x140
 8004f44:	dbe6      	blt.n	8004f14 <gardenStateInterface+0x28>
		}
	}
	lcdSetTextFont(&Font20);
 8004f46:	4828      	ldr	r0, [pc, #160]	@ (8004fe8 <gardenStateInterface+0xfc>)
 8004f48:	f7fe fd9c 	bl	8003a84 <lcdSetTextFont>
	lcdSetCursor(110, 90);
 8004f4c:	215a      	movs	r1, #90	@ 0x5a
 8004f4e:	206e      	movs	r0, #110	@ 0x6e
 8004f50:	f7fe fe28 	bl	8003ba4 <lcdSetCursor>
	lcdPrintfNoBackColor("%d", gardenTemperature);
 8004f54:	4b25      	ldr	r3, [pc, #148]	@ (8004fec <gardenStateInterface+0x100>)
 8004f56:	681b      	ldr	r3, [r3, #0]
 8004f58:	4619      	mov	r1, r3
 8004f5a:	4825      	ldr	r0, [pc, #148]	@ (8004ff0 <gardenStateInterface+0x104>)
 8004f5c:	f7fe fd0c 	bl	8003978 <lcdPrintfNoBackColor>
	lcdSetTextFont(&Font12);
 8004f60:	4824      	ldr	r0, [pc, #144]	@ (8004ff4 <gardenStateInterface+0x108>)
 8004f62:	f7fe fd8f 	bl	8003a84 <lcdSetTextFont>
	lcdSetCursor(80, 110);
 8004f66:	216e      	movs	r1, #110	@ 0x6e
 8004f68:	2050      	movs	r0, #80	@ 0x50
 8004f6a:	f7fe fe1b 	bl	8003ba4 <lcdSetCursor>
	lcdPrintfNoBackColor("Humidity: %d%%", gardenHumidity);
 8004f6e:	4b22      	ldr	r3, [pc, #136]	@ (8004ff8 <gardenStateInterface+0x10c>)
 8004f70:	681b      	ldr	r3, [r3, #0]
 8004f72:	4619      	mov	r1, r3
 8004f74:	4821      	ldr	r0, [pc, #132]	@ (8004ffc <gardenStateInterface+0x110>)
 8004f76:	f7fe fcff 	bl	8003978 <lcdPrintfNoBackColor>
	drawAlignedText("Currently in: Phu Nhuan", 10, 240, 12, NOBACKCOLOR);
 8004f7a:	2300      	movs	r3, #0
 8004f7c:	9300      	str	r3, [sp, #0]
 8004f7e:	230c      	movs	r3, #12
 8004f80:	22f0      	movs	r2, #240	@ 0xf0
 8004f82:	210a      	movs	r1, #10
 8004f84:	481e      	ldr	r0, [pc, #120]	@ (8005000 <gardenStateInterface+0x114>)
 8004f86:	f7fd fb61 	bl	800264c <drawAlignedText>
	if (gardenHumidity <= 80 || gardenTemperature >= 30)
 8004f8a:	4b1b      	ldr	r3, [pc, #108]	@ (8004ff8 <gardenStateInterface+0x10c>)
 8004f8c:	681b      	ldr	r3, [r3, #0]
 8004f8e:	2b50      	cmp	r3, #80	@ 0x50
 8004f90:	dd03      	ble.n	8004f9a <gardenStateInterface+0xae>
 8004f92:	4b16      	ldr	r3, [pc, #88]	@ (8004fec <gardenStateInterface+0x100>)
 8004f94:	681b      	ldr	r3, [r3, #0]
 8004f96:	2b1d      	cmp	r3, #29
 8004f98:	dd1e      	ble.n	8004fd8 <gardenStateInterface+0xec>
	{
		drawAlignedText("Please water your garden!", 240, 240, 12, NOBACKCOLOR);
 8004f9a:	2300      	movs	r3, #0
 8004f9c:	9300      	str	r3, [sp, #0]
 8004f9e:	230c      	movs	r3, #12
 8004fa0:	22f0      	movs	r2, #240	@ 0xf0
 8004fa2:	21f0      	movs	r1, #240	@ 0xf0
 8004fa4:	4817      	ldr	r0, [pc, #92]	@ (8005004 <gardenStateInterface+0x118>)
 8004fa6:	f7fd fb51 	bl	800264c <drawAlignedText>
		if (gardenHumidity <= 80)
 8004faa:	4b13      	ldr	r3, [pc, #76]	@ (8004ff8 <gardenStateInterface+0x10c>)
 8004fac:	681b      	ldr	r3, [r3, #0]
 8004fae:	2b50      	cmp	r3, #80	@ 0x50
 8004fb0:	dc09      	bgt.n	8004fc6 <gardenStateInterface+0xda>
		{
			drawAlignedText("Problem: Low humidity", 270, 240, 12, NOBACKCOLOR);
 8004fb2:	2300      	movs	r3, #0
 8004fb4:	9300      	str	r3, [sp, #0]
 8004fb6:	230c      	movs	r3, #12
 8004fb8:	22f0      	movs	r2, #240	@ 0xf0
 8004fba:	f44f 7187 	mov.w	r1, #270	@ 0x10e
 8004fbe:	4812      	ldr	r0, [pc, #72]	@ (8005008 <gardenStateInterface+0x11c>)
 8004fc0:	f7fd fb44 	bl	800264c <drawAlignedText>
			return;
 8004fc4:	e008      	b.n	8004fd8 <gardenStateInterface+0xec>
		}
		drawAlignedText("Problem: High temperature", 270, 240, 12, NOBACKCOLOR);
 8004fc6:	2300      	movs	r3, #0
 8004fc8:	9300      	str	r3, [sp, #0]
 8004fca:	230c      	movs	r3, #12
 8004fcc:	22f0      	movs	r2, #240	@ 0xf0
 8004fce:	f44f 7187 	mov.w	r1, #270	@ 0x10e
 8004fd2:	480e      	ldr	r0, [pc, #56]	@ (800500c <gardenStateInterface+0x120>)
 8004fd4:	f7fd fb3a 	bl	800264c <drawAlignedText>
	}
}
 8004fd8:	3708      	adds	r7, #8
 8004fda:	46bd      	mov	sp, r7
 8004fdc:	bd80      	pop	{r7, pc}
 8004fde:	bf00      	nop
 8004fe0:	20000a00 	.word	0x20000a00
 8004fe4:	0801eb1c 	.word	0x0801eb1c
 8004fe8:	2000001c 	.word	0x2000001c
 8004fec:	20000c28 	.word	0x20000c28
 8004ff0:	0800bdd8 	.word	0x0800bdd8
 8004ff4:	2000000c 	.word	0x2000000c
 8004ff8:	20000c2c 	.word	0x20000c2c
 8004ffc:	0800bdc8 	.word	0x0800bdc8
 8005000:	0800bddc 	.word	0x0800bddc
 8005004:	0800bdf4 	.word	0x0800bdf4
 8005008:	0800be10 	.word	0x0800be10
 800500c:	0800be28 	.word	0x0800be28

08005010 <drawInterface>:

void drawInterface()
{
 8005010:	b580      	push	{r7, lr}
 8005012:	af00      	add	r7, sp, #0
	if (wifi == 1)
 8005014:	4b0a      	ldr	r3, [pc, #40]	@ (8005040 <drawInterface+0x30>)
 8005016:	781b      	ldrb	r3, [r3, #0]
 8005018:	2b01      	cmp	r3, #1
 800501a:	d102      	bne.n	8005022 <drawInterface+0x12>
	{
		wifiMenu();
 800501c:	f7ff faa8 	bl	8004570 <wifiMenu>
	}
	else if (gardenState == 1)
	{
		gardenStateInterface();
	}
}
 8005020:	e00c      	b.n	800503c <drawInterface+0x2c>
	else if (weatherForecast == 1)
 8005022:	4b08      	ldr	r3, [pc, #32]	@ (8005044 <drawInterface+0x34>)
 8005024:	781b      	ldrb	r3, [r3, #0]
 8005026:	2b01      	cmp	r3, #1
 8005028:	d102      	bne.n	8005030 <drawInterface+0x20>
		weatherForecastInterface();
 800502a:	f7ff fe1d 	bl	8004c68 <weatherForecastInterface>
}
 800502e:	e005      	b.n	800503c <drawInterface+0x2c>
	else if (gardenState == 1)
 8005030:	4b05      	ldr	r3, [pc, #20]	@ (8005048 <drawInterface+0x38>)
 8005032:	781b      	ldrb	r3, [r3, #0]
 8005034:	2b01      	cmp	r3, #1
 8005036:	d101      	bne.n	800503c <drawInterface+0x2c>
		gardenStateInterface();
 8005038:	f7ff ff58 	bl	8004eec <gardenStateInterface>
}
 800503c:	bf00      	nop
 800503e:	bd80      	pop	{r7, pc}
 8005040:	200009fc 	.word	0x200009fc
 8005044:	200009fd 	.word	0x200009fd
 8005048:	200009ff 	.word	0x200009ff

0800504c <reformatDate>:

void reformatDate()
{
 800504c:	b580      	push	{r7, lr}
 800504e:	b084      	sub	sp, #16
 8005050:	af00      	add	r7, sp, #0
	char temp[6];
	for (int i = 0; i < 7; i++)
 8005052:	2300      	movs	r3, #0
 8005054:	60fb      	str	r3, [r7, #12]
 8005056:	e02b      	b.n	80050b0 <reformatDate+0x64>
	{
	    if (date[i])
 8005058:	4a19      	ldr	r2, [pc, #100]	@ (80050c0 <reformatDate+0x74>)
 800505a:	68fb      	ldr	r3, [r7, #12]
 800505c:	f852 3023 	ldr.w	r3, [r2, r3, lsl #2]
 8005060:	2b00      	cmp	r3, #0
 8005062:	d022      	beq.n	80050aa <reformatDate+0x5e>
	    {
	        strncpy(temp, &date[i][8], 2);
 8005064:	4a16      	ldr	r2, [pc, #88]	@ (80050c0 <reformatDate+0x74>)
 8005066:	68fb      	ldr	r3, [r7, #12]
 8005068:	f852 3023 	ldr.w	r3, [r2, r3, lsl #2]
 800506c:	f103 0108 	add.w	r1, r3, #8
 8005070:	1d3b      	adds	r3, r7, #4
 8005072:	2202      	movs	r2, #2
 8005074:	4618      	mov	r0, r3
 8005076:	f004 fc42 	bl	80098fe <strncpy>
	        temp[2] = '-';
 800507a:	232d      	movs	r3, #45	@ 0x2d
 800507c:	71bb      	strb	r3, [r7, #6]
	        strncpy(&temp[3], &date[i][5], 2);
 800507e:	4a10      	ldr	r2, [pc, #64]	@ (80050c0 <reformatDate+0x74>)
 8005080:	68fb      	ldr	r3, [r7, #12]
 8005082:	f852 3023 	ldr.w	r3, [r2, r3, lsl #2]
 8005086:	1d59      	adds	r1, r3, #5
 8005088:	1d3b      	adds	r3, r7, #4
 800508a:	3303      	adds	r3, #3
 800508c:	2202      	movs	r2, #2
 800508e:	4618      	mov	r0, r3
 8005090:	f004 fc35 	bl	80098fe <strncpy>
	        temp[5] = '\0';
 8005094:	2300      	movs	r3, #0
 8005096:	727b      	strb	r3, [r7, #9]
	        strcpy(date[i], temp);
 8005098:	4a09      	ldr	r2, [pc, #36]	@ (80050c0 <reformatDate+0x74>)
 800509a:	68fb      	ldr	r3, [r7, #12]
 800509c:	f852 3023 	ldr.w	r3, [r2, r3, lsl #2]
 80050a0:	1d3a      	adds	r2, r7, #4
 80050a2:	4611      	mov	r1, r2
 80050a4:	4618      	mov	r0, r3
 80050a6:	f004 fcc0 	bl	8009a2a <strcpy>
	for (int i = 0; i < 7; i++)
 80050aa:	68fb      	ldr	r3, [r7, #12]
 80050ac:	3301      	adds	r3, #1
 80050ae:	60fb      	str	r3, [r7, #12]
 80050b0:	68fb      	ldr	r3, [r7, #12]
 80050b2:	2b06      	cmp	r3, #6
 80050b4:	ddd0      	ble.n	8005058 <reformatDate+0xc>
	    }
	}
}
 80050b6:	bf00      	nop
 80050b8:	bf00      	nop
 80050ba:	3710      	adds	r7, #16
 80050bc:	46bd      	mov	sp, r7
 80050be:	bd80      	pop	{r7, pc}
 80050c0:	20000a34 	.word	0x20000a34

080050c4 <sendAPIURL>:

void sendAPIURL(uint16_t chooseCity)
{
 80050c4:	b590      	push	{r4, r7, lr}
 80050c6:	b083      	sub	sp, #12
 80050c8:	af00      	add	r7, sp, #0
 80050ca:	4603      	mov	r3, r0
 80050cc:	80fb      	strh	r3, [r7, #6]
    switch(chooseCity)
 80050ce:	88fb      	ldrh	r3, [r7, #6]
 80050d0:	2b05      	cmp	r3, #5
 80050d2:	d86f      	bhi.n	80051b4 <sendAPIURL+0xf0>
 80050d4:	a201      	add	r2, pc, #4	@ (adr r2, 80050dc <sendAPIURL+0x18>)
 80050d6:	f852 f023 	ldr.w	pc, [r2, r3, lsl #2]
 80050da:	bf00      	nop
 80050dc:	080050f5 	.word	0x080050f5
 80050e0:	08005115 	.word	0x08005115
 80050e4:	08005135 	.word	0x08005135
 80050e8:	08005155 	.word	0x08005155
 80050ec:	08005175 	.word	0x08005175
 80050f0:	08005195 	.word	0x08005195
    {
    	case NHATRANG:
    		HAL_UART_Transmit(&huart1, (uint8_t*)nhaTrangURL, strlen(nhaTrangURL), HAL_MAX_DELAY);
 80050f4:	4b31      	ldr	r3, [pc, #196]	@ (80051bc <sendAPIURL+0xf8>)
 80050f6:	681c      	ldr	r4, [r3, #0]
 80050f8:	4b30      	ldr	r3, [pc, #192]	@ (80051bc <sendAPIURL+0xf8>)
 80050fa:	681b      	ldr	r3, [r3, #0]
 80050fc:	4618      	mov	r0, r3
 80050fe:	f7fb f871 	bl	80001e4 <strlen>
 8005102:	4603      	mov	r3, r0
 8005104:	b29a      	uxth	r2, r3
 8005106:	f04f 33ff 	mov.w	r3, #4294967295
 800510a:	4621      	mov	r1, r4
 800510c:	482c      	ldr	r0, [pc, #176]	@ (80051c0 <sendAPIURL+0xfc>)
 800510e:	f002 fab9 	bl	8007684 <HAL_UART_Transmit>
    		break;
 8005112:	e04f      	b.n	80051b4 <sendAPIURL+0xf0>
    	case SAIGON:
    		HAL_UART_Transmit(&huart1, (uint8_t*)saiGonURL, strlen(saiGonURL), HAL_MAX_DELAY);
 8005114:	4b2b      	ldr	r3, [pc, #172]	@ (80051c4 <sendAPIURL+0x100>)
 8005116:	681c      	ldr	r4, [r3, #0]
 8005118:	4b2a      	ldr	r3, [pc, #168]	@ (80051c4 <sendAPIURL+0x100>)
 800511a:	681b      	ldr	r3, [r3, #0]
 800511c:	4618      	mov	r0, r3
 800511e:	f7fb f861 	bl	80001e4 <strlen>
 8005122:	4603      	mov	r3, r0
 8005124:	b29a      	uxth	r2, r3
 8005126:	f04f 33ff 	mov.w	r3, #4294967295
 800512a:	4621      	mov	r1, r4
 800512c:	4824      	ldr	r0, [pc, #144]	@ (80051c0 <sendAPIURL+0xfc>)
 800512e:	f002 faa9 	bl	8007684 <HAL_UART_Transmit>
    		break;
 8005132:	e03f      	b.n	80051b4 <sendAPIURL+0xf0>
    	case HANOI:
    		HAL_UART_Transmit(&huart1, (uint8_t*)haNoiURL, strlen(haNoiURL), HAL_MAX_DELAY);
 8005134:	4b24      	ldr	r3, [pc, #144]	@ (80051c8 <sendAPIURL+0x104>)
 8005136:	681c      	ldr	r4, [r3, #0]
 8005138:	4b23      	ldr	r3, [pc, #140]	@ (80051c8 <sendAPIURL+0x104>)
 800513a:	681b      	ldr	r3, [r3, #0]
 800513c:	4618      	mov	r0, r3
 800513e:	f7fb f851 	bl	80001e4 <strlen>
 8005142:	4603      	mov	r3, r0
 8005144:	b29a      	uxth	r2, r3
 8005146:	f04f 33ff 	mov.w	r3, #4294967295
 800514a:	4621      	mov	r1, r4
 800514c:	481c      	ldr	r0, [pc, #112]	@ (80051c0 <sendAPIURL+0xfc>)
 800514e:	f002 fa99 	bl	8007684 <HAL_UART_Transmit>
    		break;
 8005152:	e02f      	b.n	80051b4 <sendAPIURL+0xf0>
    	case TAMPERE:
    		HAL_UART_Transmit(&huart1, (uint8_t*)tampereURL, strlen(tampereURL), HAL_MAX_DELAY);
 8005154:	4b1d      	ldr	r3, [pc, #116]	@ (80051cc <sendAPIURL+0x108>)
 8005156:	681c      	ldr	r4, [r3, #0]
 8005158:	4b1c      	ldr	r3, [pc, #112]	@ (80051cc <sendAPIURL+0x108>)
 800515a:	681b      	ldr	r3, [r3, #0]
 800515c:	4618      	mov	r0, r3
 800515e:	f7fb f841 	bl	80001e4 <strlen>
 8005162:	4603      	mov	r3, r0
 8005164:	b29a      	uxth	r2, r3
 8005166:	f04f 33ff 	mov.w	r3, #4294967295
 800516a:	4621      	mov	r1, r4
 800516c:	4814      	ldr	r0, [pc, #80]	@ (80051c0 <sendAPIURL+0xfc>)
 800516e:	f002 fa89 	bl	8007684 <HAL_UART_Transmit>
    		break;
 8005172:	e01f      	b.n	80051b4 <sendAPIURL+0xf0>
    	case ARNHEM:
    		HAL_UART_Transmit(&huart1, (uint8_t*)arnhemURL, strlen(arnhemURL), HAL_MAX_DELAY);
 8005174:	4b16      	ldr	r3, [pc, #88]	@ (80051d0 <sendAPIURL+0x10c>)
 8005176:	681c      	ldr	r4, [r3, #0]
 8005178:	4b15      	ldr	r3, [pc, #84]	@ (80051d0 <sendAPIURL+0x10c>)
 800517a:	681b      	ldr	r3, [r3, #0]
 800517c:	4618      	mov	r0, r3
 800517e:	f7fb f831 	bl	80001e4 <strlen>
 8005182:	4603      	mov	r3, r0
 8005184:	b29a      	uxth	r2, r3
 8005186:	f04f 33ff 	mov.w	r3, #4294967295
 800518a:	4621      	mov	r1, r4
 800518c:	480c      	ldr	r0, [pc, #48]	@ (80051c0 <sendAPIURL+0xfc>)
 800518e:	f002 fa79 	bl	8007684 <HAL_UART_Transmit>
    		break;
 8005192:	e00f      	b.n	80051b4 <sendAPIURL+0xf0>
    	case SYDNEY:
    		HAL_UART_Transmit(&huart1, (uint8_t*)sydneyURL, strlen(sydneyURL), HAL_MAX_DELAY);
 8005194:	4b0f      	ldr	r3, [pc, #60]	@ (80051d4 <sendAPIURL+0x110>)
 8005196:	681c      	ldr	r4, [r3, #0]
 8005198:	4b0e      	ldr	r3, [pc, #56]	@ (80051d4 <sendAPIURL+0x110>)
 800519a:	681b      	ldr	r3, [r3, #0]
 800519c:	4618      	mov	r0, r3
 800519e:	f7fb f821 	bl	80001e4 <strlen>
 80051a2:	4603      	mov	r3, r0
 80051a4:	b29a      	uxth	r2, r3
 80051a6:	f04f 33ff 	mov.w	r3, #4294967295
 80051aa:	4621      	mov	r1, r4
 80051ac:	4804      	ldr	r0, [pc, #16]	@ (80051c0 <sendAPIURL+0xfc>)
 80051ae:	f002 fa69 	bl	8007684 <HAL_UART_Transmit>
    		break;
 80051b2:	bf00      	nop
    }
}
 80051b4:	bf00      	nop
 80051b6:	370c      	adds	r7, #12
 80051b8:	46bd      	mov	sp, r7
 80051ba:	bd90      	pop	{r4, r7, pc}
 80051bc:	2000003c 	.word	0x2000003c
 80051c0:	20000558 	.word	0x20000558
 80051c4:	20000040 	.word	0x20000040
 80051c8:	20000044 	.word	0x20000044
 80051cc:	20000048 	.word	0x20000048
 80051d0:	2000004c 	.word	0x2000004c
 80051d4:	20000050 	.word	0x20000050

080051d8 <sendGardenStateRequest>:

void sendGardenStateRequest()
{
 80051d8:	b598      	push	{r3, r4, r7, lr}
 80051da:	af00      	add	r7, sp, #0
	HAL_UART_Transmit(&huart1, (uint8_t*)requestGardenInfo, strlen(requestGardenInfo), HAL_MAX_DELAY);
 80051dc:	4b08      	ldr	r3, [pc, #32]	@ (8005200 <sendGardenStateRequest+0x28>)
 80051de:	681c      	ldr	r4, [r3, #0]
 80051e0:	4b07      	ldr	r3, [pc, #28]	@ (8005200 <sendGardenStateRequest+0x28>)
 80051e2:	681b      	ldr	r3, [r3, #0]
 80051e4:	4618      	mov	r0, r3
 80051e6:	f7fa fffd 	bl	80001e4 <strlen>
 80051ea:	4603      	mov	r3, r0
 80051ec:	b29a      	uxth	r2, r3
 80051ee:	f04f 33ff 	mov.w	r3, #4294967295
 80051f2:	4621      	mov	r1, r4
 80051f4:	4803      	ldr	r0, [pc, #12]	@ (8005204 <sendGardenStateRequest+0x2c>)
 80051f6:	f002 fa45 	bl	8007684 <HAL_UART_Transmit>
}
 80051fa:	bf00      	nop
 80051fc:	bd98      	pop	{r3, r4, r7, pc}
 80051fe:	bf00      	nop
 8005200:	20000054 	.word	0x20000054
 8005204:	20000558 	.word	0x20000558

08005208 <sendWifiRequest>:

void sendWifiRequest()
{
 8005208:	b598      	push	{r3, r4, r7, lr}
 800520a:	af00      	add	r7, sp, #0
	HAL_UART_Transmit(&huart1, (uint8_t*)requestWifiInfo, strlen(requestWifiInfo), HAL_MAX_DELAY);
 800520c:	4b08      	ldr	r3, [pc, #32]	@ (8005230 <sendWifiRequest+0x28>)
 800520e:	681c      	ldr	r4, [r3, #0]
 8005210:	4b07      	ldr	r3, [pc, #28]	@ (8005230 <sendWifiRequest+0x28>)
 8005212:	681b      	ldr	r3, [r3, #0]
 8005214:	4618      	mov	r0, r3
 8005216:	f7fa ffe5 	bl	80001e4 <strlen>
 800521a:	4603      	mov	r3, r0
 800521c:	b29a      	uxth	r2, r3
 800521e:	f04f 33ff 	mov.w	r3, #4294967295
 8005222:	4621      	mov	r1, r4
 8005224:	4803      	ldr	r0, [pc, #12]	@ (8005234 <sendWifiRequest+0x2c>)
 8005226:	f002 fa2d 	bl	8007684 <HAL_UART_Transmit>
}
 800522a:	bf00      	nop
 800522c:	bd98      	pop	{r3, r4, r7, pc}
 800522e:	bf00      	nop
 8005230:	2000005c 	.word	0x2000005c
 8005234:	20000558 	.word	0x20000558

08005238 <HAL_UART_RxCpltCallback>:

void HAL_UART_RxCpltCallback(UART_HandleTypeDef *huart)
{
 8005238:	b580      	push	{r7, lr}
 800523a:	b082      	sub	sp, #8
 800523c:	af00      	add	r7, sp, #0
 800523e:	6078      	str	r0, [r7, #4]
	if (rxIndex < BUFFER_SIZE - 1)
 8005240:	4b1c      	ldr	r3, [pc, #112]	@ (80052b4 <HAL_UART_RxCpltCallback+0x7c>)
 8005242:	881b      	ldrh	r3, [r3, #0]
 8005244:	f240 32fe 	movw	r2, #1022	@ 0x3fe
 8005248:	4293      	cmp	r3, r2
 800524a:	d828      	bhi.n	800529e <HAL_UART_RxCpltCallback+0x66>
	{
		if (tempBuffer[0] == '!')
 800524c:	4b1a      	ldr	r3, [pc, #104]	@ (80052b8 <HAL_UART_RxCpltCallback+0x80>)
 800524e:	781b      	ldrb	r3, [r3, #0]
 8005250:	2b21      	cmp	r3, #33	@ 0x21
 8005252:	d103      	bne.n	800525c <HAL_UART_RxCpltCallback+0x24>
		{
			rxComplete = 1;
 8005254:	4b19      	ldr	r3, [pc, #100]	@ (80052bc <HAL_UART_RxCpltCallback+0x84>)
 8005256:	2201      	movs	r2, #1
 8005258:	701a      	strb	r2, [r3, #0]
			return;
 800525a:	e028      	b.n	80052ae <HAL_UART_RxCpltCallback+0x76>
		}
		else if (tempBuffer[0] == '?')
 800525c:	4b16      	ldr	r3, [pc, #88]	@ (80052b8 <HAL_UART_RxCpltCallback+0x80>)
 800525e:	781b      	ldrb	r3, [r3, #0]
 8005260:	2b3f      	cmp	r3, #63	@ 0x3f
 8005262:	d110      	bne.n	8005286 <HAL_UART_RxCpltCallback+0x4e>
		{
			lcdPrintf("Error fetching data\n");
 8005264:	4816      	ldr	r0, [pc, #88]	@ (80052c0 <HAL_UART_RxCpltCallback+0x88>)
 8005266:	f7fe fafb 	bl	8003860 <lcdPrintf>
			lcdPrintf("Go back to menu!\n");
 800526a:	4816      	ldr	r0, [pc, #88]	@ (80052c4 <HAL_UART_RxCpltCallback+0x8c>)
 800526c:	f7fe faf8 	bl	8003860 <lcdPrintf>
			rxIndex = 0;
 8005270:	4b10      	ldr	r3, [pc, #64]	@ (80052b4 <HAL_UART_RxCpltCallback+0x7c>)
 8005272:	2200      	movs	r2, #0
 8005274:	801a      	strh	r2, [r3, #0]
			resetBuffer();
 8005276:	f000 f9e9 	bl	800564c <resetBuffer>
			HAL_UART_Receive_IT(&huart1, (uint8_t*)tempBuffer, 1);
 800527a:	2201      	movs	r2, #1
 800527c:	490e      	ldr	r1, [pc, #56]	@ (80052b8 <HAL_UART_RxCpltCallback+0x80>)
 800527e:	4812      	ldr	r0, [pc, #72]	@ (80052c8 <HAL_UART_RxCpltCallback+0x90>)
 8005280:	f002 fa8b 	bl	800779a <HAL_UART_Receive_IT>
			return;
 8005284:	e013      	b.n	80052ae <HAL_UART_RxCpltCallback+0x76>
		}
		rxBuffer[rxIndex++] = tempBuffer[0];
 8005286:	4b0b      	ldr	r3, [pc, #44]	@ (80052b4 <HAL_UART_RxCpltCallback+0x7c>)
 8005288:	881b      	ldrh	r3, [r3, #0]
 800528a:	1c5a      	adds	r2, r3, #1
 800528c:	b291      	uxth	r1, r2
 800528e:	4a09      	ldr	r2, [pc, #36]	@ (80052b4 <HAL_UART_RxCpltCallback+0x7c>)
 8005290:	8011      	strh	r1, [r2, #0]
 8005292:	461a      	mov	r2, r3
 8005294:	4b08      	ldr	r3, [pc, #32]	@ (80052b8 <HAL_UART_RxCpltCallback+0x80>)
 8005296:	7819      	ldrb	r1, [r3, #0]
 8005298:	4b0c      	ldr	r3, [pc, #48]	@ (80052cc <HAL_UART_RxCpltCallback+0x94>)
 800529a:	5499      	strb	r1, [r3, r2]
 800529c:	e002      	b.n	80052a4 <HAL_UART_RxCpltCallback+0x6c>
	}
	else
	{
	    rxIndex = 0;
 800529e:	4b05      	ldr	r3, [pc, #20]	@ (80052b4 <HAL_UART_RxCpltCallback+0x7c>)
 80052a0:	2200      	movs	r2, #0
 80052a2:	801a      	strh	r2, [r3, #0]
	}
	HAL_UART_Receive_IT(&huart1, (uint8_t*)tempBuffer, 1);
 80052a4:	2201      	movs	r2, #1
 80052a6:	4904      	ldr	r1, [pc, #16]	@ (80052b8 <HAL_UART_RxCpltCallback+0x80>)
 80052a8:	4807      	ldr	r0, [pc, #28]	@ (80052c8 <HAL_UART_RxCpltCallback+0x90>)
 80052aa:	f002 fa76 	bl	800779a <HAL_UART_Receive_IT>
}
 80052ae:	3708      	adds	r7, #8
 80052b0:	46bd      	mov	sp, r7
 80052b2:	bd80      	pop	{r7, pc}
 80052b4:	200009f4 	.word	0x200009f4
 80052b8:	200005f0 	.word	0x200005f0
 80052bc:	200009f6 	.word	0x200009f6
 80052c0:	0800be44 	.word	0x0800be44
 80052c4:	0800be5c 	.word	0x0800be5c
 80052c8:	20000558 	.word	0x20000558
 80052cc:	200005f4 	.word	0x200005f4

080052d0 <processData>:

void processData(const char *jsonData)
{
 80052d0:	b590      	push	{r4, r7, lr}
 80052d2:	b097      	sub	sp, #92	@ 0x5c
 80052d4:	af00      	add	r7, sp, #0
 80052d6:	6078      	str	r0, [r7, #4]
    cJSON *root = cJSON_Parse(jsonData);
 80052d8:	6878      	ldr	r0, [r7, #4]
 80052da:	f7fc fc8d 	bl	8001bf8 <cJSON_Parse>
 80052de:	6478      	str	r0, [r7, #68]	@ 0x44
    if (root == NULL)
 80052e0:	6c7b      	ldr	r3, [r7, #68]	@ 0x44
 80052e2:	2b00      	cmp	r3, #0
 80052e4:	d109      	bne.n	80052fa <processData+0x2a>
    {
        lcdPrintf("Error parsing JSON\n");
 80052e6:	4897      	ldr	r0, [pc, #604]	@ (8005544 <processData+0x274>)
 80052e8:	f7fe faba 	bl	8003860 <lcdPrintf>
        lcdPrintf("Go back to menu!\n");
 80052ec:	4896      	ldr	r0, [pc, #600]	@ (8005548 <processData+0x278>)
 80052ee:	f7fe fab7 	bl	8003860 <lcdPrintf>
        cJSON_Delete(root);
 80052f2:	6c78      	ldr	r0, [r7, #68]	@ 0x44
 80052f4:	f7fb ff9e 	bl	8001234 <cJSON_Delete>
        return;
 80052f8:	e120      	b.n	800553c <processData+0x26c>
    }

    if(gardenState == 1)
 80052fa:	4b94      	ldr	r3, [pc, #592]	@ (800554c <processData+0x27c>)
 80052fc:	781b      	ldrb	r3, [r3, #0]
 80052fe:	2b01      	cmp	r3, #1
 8005300:	d11e      	bne.n	8005340 <processData+0x70>
    {
    	cJSON *gardenTemp = cJSON_GetObjectItem(root, "gardenTemperature");
 8005302:	4993      	ldr	r1, [pc, #588]	@ (8005550 <processData+0x280>)
 8005304:	6c78      	ldr	r0, [r7, #68]	@ 0x44
 8005306:	f7fc ffc0 	bl	800228a <cJSON_GetObjectItem>
 800530a:	6138      	str	r0, [r7, #16]
    	cJSON *gardenHumid = cJSON_GetObjectItem(root, "gardenHumidity");
 800530c:	4991      	ldr	r1, [pc, #580]	@ (8005554 <processData+0x284>)
 800530e:	6c78      	ldr	r0, [r7, #68]	@ 0x44
 8005310:	f7fc ffbb 	bl	800228a <cJSON_GetObjectItem>
 8005314:	60f8      	str	r0, [r7, #12]
    	if (gardenTemp)
 8005316:	693b      	ldr	r3, [r7, #16]
 8005318:	2b00      	cmp	r3, #0
 800531a:	d003      	beq.n	8005324 <processData+0x54>
    	{
    		gardenTemperature = gardenTemp->valueint;
 800531c:	693b      	ldr	r3, [r7, #16]
 800531e:	695b      	ldr	r3, [r3, #20]
 8005320:	4a8d      	ldr	r2, [pc, #564]	@ (8005558 <processData+0x288>)
 8005322:	6013      	str	r3, [r2, #0]
    	}
    	if (gardenHumid)
 8005324:	68fb      	ldr	r3, [r7, #12]
 8005326:	2b00      	cmp	r3, #0
 8005328:	d003      	beq.n	8005332 <processData+0x62>
    	{
    		gardenHumidity = gardenHumid->valueint;
 800532a:	68fb      	ldr	r3, [r7, #12]
 800532c:	695b      	ldr	r3, [r3, #20]
 800532e:	4a8b      	ldr	r2, [pc, #556]	@ (800555c <processData+0x28c>)
 8005330:	6013      	str	r3, [r2, #0]
    	}
    	processComplete = 1;
 8005332:	4b8b      	ldr	r3, [pc, #556]	@ (8005560 <processData+0x290>)
 8005334:	2201      	movs	r2, #1
 8005336:	701a      	strb	r2, [r3, #0]
    	cJSON_Delete(root);
 8005338:	6c78      	ldr	r0, [r7, #68]	@ 0x44
 800533a:	f7fb ff7b 	bl	8001234 <cJSON_Delete>
    	return;
 800533e:	e0fd      	b.n	800553c <processData+0x26c>
    }
    else if (wifi == 1)
 8005340:	4b88      	ldr	r3, [pc, #544]	@ (8005564 <processData+0x294>)
 8005342:	781b      	ldrb	r3, [r3, #0]
 8005344:	2b01      	cmp	r3, #1
 8005346:	d163      	bne.n	8005410 <processData+0x140>
    {
    	cJSON *networks = cJSON_GetObjectItem(root, "networks");
 8005348:	4987      	ldr	r1, [pc, #540]	@ (8005568 <processData+0x298>)
 800534a:	6c78      	ldr	r0, [r7, #68]	@ 0x44
 800534c:	f7fc ff9d 	bl	800228a <cJSON_GetObjectItem>
 8005350:	61f8      	str	r0, [r7, #28]
    	int networkIndex = 0;
 8005352:	2300      	movs	r3, #0
 8005354:	657b      	str	r3, [r7, #84]	@ 0x54
    	cJSON *item = NULL;
 8005356:	2300      	movs	r3, #0
 8005358:	653b      	str	r3, [r7, #80]	@ 0x50
    	cJSON_ArrayForEach(item, networks)
 800535a:	69fb      	ldr	r3, [r7, #28]
 800535c:	2b00      	cmp	r3, #0
 800535e:	d002      	beq.n	8005366 <processData+0x96>
 8005360:	69fb      	ldr	r3, [r7, #28]
 8005362:	689b      	ldr	r3, [r3, #8]
 8005364:	e000      	b.n	8005368 <processData+0x98>
 8005366:	2300      	movs	r3, #0
 8005368:	653b      	str	r3, [r7, #80]	@ 0x50
 800536a:	e042      	b.n	80053f2 <processData+0x122>
    	{
    	    if (networkIndex >= MAX_NETWORKS) break;
 800536c:	6d7b      	ldr	r3, [r7, #84]	@ 0x54
 800536e:	2b0b      	cmp	r3, #11
 8005370:	dc43      	bgt.n	80053fa <processData+0x12a>

    	    cJSON *ssid = cJSON_GetObjectItem(item, "ssid");
 8005372:	497e      	ldr	r1, [pc, #504]	@ (800556c <processData+0x29c>)
 8005374:	6d38      	ldr	r0, [r7, #80]	@ 0x50
 8005376:	f7fc ff88 	bl	800228a <cJSON_GetObjectItem>
 800537a:	61b8      	str	r0, [r7, #24]
    	    cJSON *secure = cJSON_GetObjectItem(item, "secure");
 800537c:	497c      	ldr	r1, [pc, #496]	@ (8005570 <processData+0x2a0>)
 800537e:	6d38      	ldr	r0, [r7, #80]	@ 0x50
 8005380:	f7fc ff83 	bl	800228a <cJSON_GetObjectItem>
 8005384:	6178      	str	r0, [r7, #20]

    	    if (cJSON_IsString(ssid) && cJSON_IsBool(secure))
 8005386:	69b8      	ldr	r0, [r7, #24]
 8005388:	f7fc ffbd 	bl	8002306 <cJSON_IsString>
 800538c:	4603      	mov	r3, r0
 800538e:	2b00      	cmp	r3, #0
 8005390:	d02c      	beq.n	80053ec <processData+0x11c>
 8005392:	6978      	ldr	r0, [r7, #20]
 8005394:	f7fc ff9f 	bl	80022d6 <cJSON_IsBool>
 8005398:	4603      	mov	r3, r0
 800539a:	2b00      	cmp	r3, #0
 800539c:	d026      	beq.n	80053ec <processData+0x11c>
    	    {
    	        strncpy(networkList[networkIndex].ssid, ssid->valuestring, MAX_SSID_LENGTH - 1);
 800539e:	6d7a      	ldr	r2, [r7, #84]	@ 0x54
 80053a0:	4613      	mov	r3, r2
 80053a2:	00db      	lsls	r3, r3, #3
 80053a4:	4413      	add	r3, r2
 80053a6:	009b      	lsls	r3, r3, #2
 80053a8:	4a72      	ldr	r2, [pc, #456]	@ (8005574 <processData+0x2a4>)
 80053aa:	1898      	adds	r0, r3, r2
 80053ac:	69bb      	ldr	r3, [r7, #24]
 80053ae:	691b      	ldr	r3, [r3, #16]
 80053b0:	221f      	movs	r2, #31
 80053b2:	4619      	mov	r1, r3
 80053b4:	f004 faa3 	bl	80098fe <strncpy>
    	        networkList[networkIndex].ssid[MAX_SSID_LENGTH - 1] = '\0';
 80053b8:	496e      	ldr	r1, [pc, #440]	@ (8005574 <processData+0x2a4>)
 80053ba:	6d7a      	ldr	r2, [r7, #84]	@ 0x54
 80053bc:	4613      	mov	r3, r2
 80053be:	00db      	lsls	r3, r3, #3
 80053c0:	4413      	add	r3, r2
 80053c2:	009b      	lsls	r3, r3, #2
 80053c4:	440b      	add	r3, r1
 80053c6:	331f      	adds	r3, #31
 80053c8:	2200      	movs	r2, #0
 80053ca:	701a      	strb	r2, [r3, #0]
    	        networkList[networkIndex].secure = cJSON_IsTrue(secure);
 80053cc:	6978      	ldr	r0, [r7, #20]
 80053ce:	f7fc ff6b 	bl	80022a8 <cJSON_IsTrue>
 80053d2:	4601      	mov	r1, r0
 80053d4:	4867      	ldr	r0, [pc, #412]	@ (8005574 <processData+0x2a4>)
 80053d6:	6d7a      	ldr	r2, [r7, #84]	@ 0x54
 80053d8:	4613      	mov	r3, r2
 80053da:	00db      	lsls	r3, r3, #3
 80053dc:	4413      	add	r3, r2
 80053de:	009b      	lsls	r3, r3, #2
 80053e0:	4403      	add	r3, r0
 80053e2:	3320      	adds	r3, #32
 80053e4:	6019      	str	r1, [r3, #0]
    	        networkIndex++;
 80053e6:	6d7b      	ldr	r3, [r7, #84]	@ 0x54
 80053e8:	3301      	adds	r3, #1
 80053ea:	657b      	str	r3, [r7, #84]	@ 0x54
    	cJSON_ArrayForEach(item, networks)
 80053ec:	6d3b      	ldr	r3, [r7, #80]	@ 0x50
 80053ee:	681b      	ldr	r3, [r3, #0]
 80053f0:	653b      	str	r3, [r7, #80]	@ 0x50
 80053f2:	6d3b      	ldr	r3, [r7, #80]	@ 0x50
 80053f4:	2b00      	cmp	r3, #0
 80053f6:	d1b9      	bne.n	800536c <processData+0x9c>
 80053f8:	e000      	b.n	80053fc <processData+0x12c>
    	    if (networkIndex >= MAX_NETWORKS) break;
 80053fa:	bf00      	nop
    	    }
    	}

    	networkCount = networkIndex;
 80053fc:	4a5e      	ldr	r2, [pc, #376]	@ (8005578 <processData+0x2a8>)
 80053fe:	6d7b      	ldr	r3, [r7, #84]	@ 0x54
 8005400:	6013      	str	r3, [r2, #0]
    	processComplete = 1;
 8005402:	4b57      	ldr	r3, [pc, #348]	@ (8005560 <processData+0x290>)
 8005404:	2201      	movs	r2, #1
 8005406:	701a      	strb	r2, [r3, #0]
    	cJSON_Delete(root);
 8005408:	6c78      	ldr	r0, [r7, #68]	@ 0x44
 800540a:	f7fb ff13 	bl	8001234 <cJSON_Delete>
        return;
 800540e:	e095      	b.n	800553c <processData+0x26c>
    }

    cJSON *current = cJSON_GetObjectItem(root, "current");
 8005410:	495a      	ldr	r1, [pc, #360]	@ (800557c <processData+0x2ac>)
 8005412:	6c78      	ldr	r0, [r7, #68]	@ 0x44
 8005414:	f7fc ff39 	bl	800228a <cJSON_GetObjectItem>
 8005418:	6438      	str	r0, [r7, #64]	@ 0x40
    if (current)
 800541a:	6c3b      	ldr	r3, [r7, #64]	@ 0x40
 800541c:	2b00      	cmp	r3, #0
 800541e:	d024      	beq.n	800546a <processData+0x19a>
    {
        cJSON *temperature = cJSON_GetObjectItem(current, "temperature_2m");
 8005420:	4957      	ldr	r1, [pc, #348]	@ (8005580 <processData+0x2b0>)
 8005422:	6c38      	ldr	r0, [r7, #64]	@ 0x40
 8005424:	f7fc ff31 	bl	800228a <cJSON_GetObjectItem>
 8005428:	63f8      	str	r0, [r7, #60]	@ 0x3c
        cJSON *humidity = cJSON_GetObjectItem(current, "relative_humidity_2m");
 800542a:	4956      	ldr	r1, [pc, #344]	@ (8005584 <processData+0x2b4>)
 800542c:	6c38      	ldr	r0, [r7, #64]	@ 0x40
 800542e:	f7fc ff2c 	bl	800228a <cJSON_GetObjectItem>
 8005432:	63b8      	str	r0, [r7, #56]	@ 0x38
        cJSON *dayOrNight = cJSON_GetObjectItem(current, "is_day");
 8005434:	4954      	ldr	r1, [pc, #336]	@ (8005588 <processData+0x2b8>)
 8005436:	6c38      	ldr	r0, [r7, #64]	@ 0x40
 8005438:	f7fc ff27 	bl	800228a <cJSON_GetObjectItem>
 800543c:	6378      	str	r0, [r7, #52]	@ 0x34
        if (temperature)
 800543e:	6bfb      	ldr	r3, [r7, #60]	@ 0x3c
 8005440:	2b00      	cmp	r3, #0
 8005442:	d003      	beq.n	800544c <processData+0x17c>
        {
        	currentTemperature = temperature->valueint;
 8005444:	6bfb      	ldr	r3, [r7, #60]	@ 0x3c
 8005446:	695b      	ldr	r3, [r3, #20]
 8005448:	4a50      	ldr	r2, [pc, #320]	@ (800558c <processData+0x2bc>)
 800544a:	6013      	str	r3, [r2, #0]
        }
        if (humidity)
 800544c:	6bbb      	ldr	r3, [r7, #56]	@ 0x38
 800544e:	2b00      	cmp	r3, #0
 8005450:	d003      	beq.n	800545a <processData+0x18a>
        {
        	currentHumidity = humidity->valueint;
 8005452:	6bbb      	ldr	r3, [r7, #56]	@ 0x38
 8005454:	695b      	ldr	r3, [r3, #20]
 8005456:	4a4e      	ldr	r2, [pc, #312]	@ (8005590 <processData+0x2c0>)
 8005458:	6013      	str	r3, [r2, #0]
        }
        if (dayOrNight)
 800545a:	6b7b      	ldr	r3, [r7, #52]	@ 0x34
 800545c:	2b00      	cmp	r3, #0
 800545e:	d004      	beq.n	800546a <processData+0x19a>
        {
        	isDay = dayOrNight->valueint;
 8005460:	6b7b      	ldr	r3, [r7, #52]	@ 0x34
 8005462:	695b      	ldr	r3, [r3, #20]
 8005464:	b2da      	uxtb	r2, r3
 8005466:	4b4b      	ldr	r3, [pc, #300]	@ (8005594 <processData+0x2c4>)
 8005468:	701a      	strb	r2, [r3, #0]
        }
    }

    cJSON *daily = cJSON_GetObjectItem(root, "daily");
 800546a:	494b      	ldr	r1, [pc, #300]	@ (8005598 <processData+0x2c8>)
 800546c:	6c78      	ldr	r0, [r7, #68]	@ 0x44
 800546e:	f7fc ff0c 	bl	800228a <cJSON_GetObjectItem>
 8005472:	6338      	str	r0, [r7, #48]	@ 0x30
    if (daily)
 8005474:	6b3b      	ldr	r3, [r7, #48]	@ 0x30
 8005476:	2b00      	cmp	r3, #0
 8005478:	d05a      	beq.n	8005530 <processData+0x260>
    {
    	cJSON *weatherCodes = cJSON_GetObjectItem(daily, "weather_code");
 800547a:	4948      	ldr	r1, [pc, #288]	@ (800559c <processData+0x2cc>)
 800547c:	6b38      	ldr	r0, [r7, #48]	@ 0x30
 800547e:	f7fc ff04 	bl	800228a <cJSON_GetObjectItem>
 8005482:	62f8      	str	r0, [r7, #44]	@ 0x2c
    	cJSON *dateCodes = cJSON_GetObjectItem(daily, "time");
 8005484:	4946      	ldr	r1, [pc, #280]	@ (80055a0 <processData+0x2d0>)
 8005486:	6b38      	ldr	r0, [r7, #48]	@ 0x30
 8005488:	f7fc feff 	bl	800228a <cJSON_GetObjectItem>
 800548c:	62b8      	str	r0, [r7, #40]	@ 0x28
    	if (dateCodes && cJSON_IsArray(dateCodes))
 800548e:	6abb      	ldr	r3, [r7, #40]	@ 0x28
 8005490:	2b00      	cmp	r3, #0
 8005492:	d027      	beq.n	80054e4 <processData+0x214>
 8005494:	6ab8      	ldr	r0, [r7, #40]	@ 0x28
 8005496:	f7fc ff4d 	bl	8002334 <cJSON_IsArray>
 800549a:	4603      	mov	r3, r0
 800549c:	2b00      	cmp	r3, #0
 800549e:	d021      	beq.n	80054e4 <processData+0x214>
    	{
    		for (int i = 0; i < 7; i++)
 80054a0:	2300      	movs	r3, #0
 80054a2:	64fb      	str	r3, [r7, #76]	@ 0x4c
 80054a4:	e01b      	b.n	80054de <processData+0x20e>
    	    {
    	        cJSON *dates = cJSON_GetArrayItem(dateCodes, i);
 80054a6:	6cf9      	ldr	r1, [r7, #76]	@ 0x4c
 80054a8:	6ab8      	ldr	r0, [r7, #40]	@ 0x28
 80054aa:	f7fc fe92 	bl	80021d2 <cJSON_GetArrayItem>
 80054ae:	6278      	str	r0, [r7, #36]	@ 0x24
    	        if (dates)
 80054b0:	6a7b      	ldr	r3, [r7, #36]	@ 0x24
 80054b2:	2b00      	cmp	r3, #0
 80054b4:	d010      	beq.n	80054d8 <processData+0x208>
    	        {
    	        	date[dateIndex++] = strdup(dates->valuestring);
 80054b6:	6a7b      	ldr	r3, [r7, #36]	@ 0x24
 80054b8:	691a      	ldr	r2, [r3, #16]
 80054ba:	4b3a      	ldr	r3, [pc, #232]	@ (80055a4 <processData+0x2d4>)
 80054bc:	881b      	ldrh	r3, [r3, #0]
 80054be:	1c59      	adds	r1, r3, #1
 80054c0:	b288      	uxth	r0, r1
 80054c2:	4938      	ldr	r1, [pc, #224]	@ (80055a4 <processData+0x2d4>)
 80054c4:	8008      	strh	r0, [r1, #0]
 80054c6:	461c      	mov	r4, r3
 80054c8:	4610      	mov	r0, r2
 80054ca:	f004 f9eb 	bl	80098a4 <strdup>
 80054ce:	4603      	mov	r3, r0
 80054d0:	461a      	mov	r2, r3
 80054d2:	4b35      	ldr	r3, [pc, #212]	@ (80055a8 <processData+0x2d8>)
 80054d4:	f843 2024 	str.w	r2, [r3, r4, lsl #2]
    		for (int i = 0; i < 7; i++)
 80054d8:	6cfb      	ldr	r3, [r7, #76]	@ 0x4c
 80054da:	3301      	adds	r3, #1
 80054dc:	64fb      	str	r3, [r7, #76]	@ 0x4c
 80054de:	6cfb      	ldr	r3, [r7, #76]	@ 0x4c
 80054e0:	2b06      	cmp	r3, #6
 80054e2:	dde0      	ble.n	80054a6 <processData+0x1d6>
    	        }
    	    }
    	}
        if (weatherCodes && cJSON_IsArray(weatherCodes))
 80054e4:	6afb      	ldr	r3, [r7, #44]	@ 0x2c
 80054e6:	2b00      	cmp	r3, #0
 80054e8:	d022      	beq.n	8005530 <processData+0x260>
 80054ea:	6af8      	ldr	r0, [r7, #44]	@ 0x2c
 80054ec:	f7fc ff22 	bl	8002334 <cJSON_IsArray>
 80054f0:	4603      	mov	r3, r0
 80054f2:	2b00      	cmp	r3, #0
 80054f4:	d01c      	beq.n	8005530 <processData+0x260>
        {
            for (int i = 0; i < 7; i++)
 80054f6:	2300      	movs	r3, #0
 80054f8:	64bb      	str	r3, [r7, #72]	@ 0x48
 80054fa:	e016      	b.n	800552a <processData+0x25a>
            {
                cJSON *code = cJSON_GetArrayItem(weatherCodes, i);
 80054fc:	6cb9      	ldr	r1, [r7, #72]	@ 0x48
 80054fe:	6af8      	ldr	r0, [r7, #44]	@ 0x2c
 8005500:	f7fc fe67 	bl	80021d2 <cJSON_GetArrayItem>
 8005504:	6238      	str	r0, [r7, #32]
                if (code)
 8005506:	6a3b      	ldr	r3, [r7, #32]
 8005508:	2b00      	cmp	r3, #0
 800550a:	d00b      	beq.n	8005524 <processData+0x254>
                {
                    weather[weatherIndex++] = code->valueint;
 800550c:	4b27      	ldr	r3, [pc, #156]	@ (80055ac <processData+0x2dc>)
 800550e:	881b      	ldrh	r3, [r3, #0]
 8005510:	1c5a      	adds	r2, r3, #1
 8005512:	b291      	uxth	r1, r2
 8005514:	4a25      	ldr	r2, [pc, #148]	@ (80055ac <processData+0x2dc>)
 8005516:	8011      	strh	r1, [r2, #0]
 8005518:	4619      	mov	r1, r3
 800551a:	6a3b      	ldr	r3, [r7, #32]
 800551c:	695b      	ldr	r3, [r3, #20]
 800551e:	4a24      	ldr	r2, [pc, #144]	@ (80055b0 <processData+0x2e0>)
 8005520:	f842 3021 	str.w	r3, [r2, r1, lsl #2]
            for (int i = 0; i < 7; i++)
 8005524:	6cbb      	ldr	r3, [r7, #72]	@ 0x48
 8005526:	3301      	adds	r3, #1
 8005528:	64bb      	str	r3, [r7, #72]	@ 0x48
 800552a:	6cbb      	ldr	r3, [r7, #72]	@ 0x48
 800552c:	2b06      	cmp	r3, #6
 800552e:	dde5      	ble.n	80054fc <processData+0x22c>
                }
            }
        }
    }
    processComplete = 1;
 8005530:	4b0b      	ldr	r3, [pc, #44]	@ (8005560 <processData+0x290>)
 8005532:	2201      	movs	r2, #1
 8005534:	701a      	strb	r2, [r3, #0]
    cJSON_Delete(root);
 8005536:	6c78      	ldr	r0, [r7, #68]	@ 0x44
 8005538:	f7fb fe7c 	bl	8001234 <cJSON_Delete>
}
 800553c:	375c      	adds	r7, #92	@ 0x5c
 800553e:	46bd      	mov	sp, r7
 8005540:	bd90      	pop	{r4, r7, pc}
 8005542:	bf00      	nop
 8005544:	0800be70 	.word	0x0800be70
 8005548:	0800be5c 	.word	0x0800be5c
 800554c:	200009ff 	.word	0x200009ff
 8005550:	0800be84 	.word	0x0800be84
 8005554:	0800be98 	.word	0x0800be98
 8005558:	20000c28 	.word	0x20000c28
 800555c:	20000c2c 	.word	0x20000c2c
 8005560:	20000a30 	.word	0x20000a30
 8005564:	200009fc 	.word	0x200009fc
 8005568:	0800bea8 	.word	0x0800bea8
 800556c:	0800beb4 	.word	0x0800beb4
 8005570:	0800bebc 	.word	0x0800bebc
 8005574:	20000a50 	.word	0x20000a50
 8005578:	20000c00 	.word	0x20000c00
 800557c:	0800bec4 	.word	0x0800bec4
 8005580:	0800becc 	.word	0x0800becc
 8005584:	0800bedc 	.word	0x0800bedc
 8005588:	0800bef4 	.word	0x0800bef4
 800558c:	20000a20 	.word	0x20000a20
 8005590:	20000a24 	.word	0x20000a24
 8005594:	20000a31 	.word	0x20000a31
 8005598:	0800befc 	.word	0x0800befc
 800559c:	0800bf04 	.word	0x0800bf04
 80055a0:	0800bf14 	.word	0x0800bf14
 80055a4:	20000a2e 	.word	0x20000a2e
 80055a8:	20000a34 	.word	0x20000a34
 80055ac:	20000a2c 	.word	0x20000a2c
 80055b0:	20000a04 	.word	0x20000a04

080055b4 <HAL_GPIO_EXTI_Callback>:

void HAL_GPIO_EXTI_Callback(uint16_t GPIO_Pin)
{
 80055b4:	b580      	push	{r7, lr}
 80055b6:	b082      	sub	sp, #8
 80055b8:	af00      	add	r7, sp, #0
 80055ba:	4603      	mov	r3, r0
 80055bc:	80fb      	strh	r3, [r7, #6]
	if (GPIO_Pin != T_IRQ_Pin) return;
 80055be:	88fb      	ldrh	r3, [r7, #6]
 80055c0:	2b20      	cmp	r3, #32
 80055c2:	d133      	bne.n	800562c <HAL_GPIO_EXTI_Callback+0x78>

	if (!XPT2046_TouchPressed() || !allowTouch) return;
 80055c4:	f7fb fcee 	bl	8000fa4 <XPT2046_TouchPressed>
 80055c8:	4603      	mov	r3, r0
 80055ca:	f083 0301 	eor.w	r3, r3, #1
 80055ce:	b2db      	uxtb	r3, r3
 80055d0:	2b00      	cmp	r3, #0
 80055d2:	d12d      	bne.n	8005630 <HAL_GPIO_EXTI_Callback+0x7c>
 80055d4:	4b19      	ldr	r3, [pc, #100]	@ (800563c <HAL_GPIO_EXTI_Callback+0x88>)
 80055d6:	781b      	ldrb	r3, [r3, #0]
 80055d8:	f083 0301 	eor.w	r3, r3, #1
 80055dc:	b2db      	uxtb	r3, r3
 80055de:	2b00      	cmp	r3, #0
 80055e0:	d126      	bne.n	8005630 <HAL_GPIO_EXTI_Callback+0x7c>

	if (!XPT2046_TouchGetCoordinates(&xCoordinates, &yCoordinates)) return;
 80055e2:	4917      	ldr	r1, [pc, #92]	@ (8005640 <HAL_GPIO_EXTI_Callback+0x8c>)
 80055e4:	4817      	ldr	r0, [pc, #92]	@ (8005644 <HAL_GPIO_EXTI_Callback+0x90>)
 80055e6:	f7fb fced 	bl	8000fc4 <XPT2046_TouchGetCoordinates>
 80055ea:	4603      	mov	r3, r0
 80055ec:	f083 0301 	eor.w	r3, r3, #1
 80055f0:	b2db      	uxtb	r3, r3
 80055f2:	2b00      	cmp	r3, #0
 80055f4:	d11e      	bne.n	8005634 <HAL_GPIO_EXTI_Callback+0x80>

	xCoordinates = 240 - xCoordinates;
 80055f6:	4b13      	ldr	r3, [pc, #76]	@ (8005644 <HAL_GPIO_EXTI_Callback+0x90>)
 80055f8:	881b      	ldrh	r3, [r3, #0]
 80055fa:	f1c3 03f0 	rsb	r3, r3, #240	@ 0xf0
 80055fe:	b29a      	uxth	r2, r3
 8005600:	4b10      	ldr	r3, [pc, #64]	@ (8005644 <HAL_GPIO_EXTI_Callback+0x90>)
 8005602:	801a      	strh	r2, [r3, #0]
	yCoordinates = 320 - yCoordinates;
 8005604:	4b0e      	ldr	r3, [pc, #56]	@ (8005640 <HAL_GPIO_EXTI_Callback+0x8c>)
 8005606:	881b      	ldrh	r3, [r3, #0]
 8005608:	f5c3 73a0 	rsb	r3, r3, #320	@ 0x140
 800560c:	b29a      	uxth	r2, r3
 800560e:	4b0c      	ldr	r3, [pc, #48]	@ (8005640 <HAL_GPIO_EXTI_Callback+0x8c>)
 8005610:	801a      	strh	r2, [r3, #0]
	if (wifi == 1)
 8005612:	4b0d      	ldr	r3, [pc, #52]	@ (8005648 <HAL_GPIO_EXTI_Callback+0x94>)
 8005614:	781b      	ldrb	r3, [r3, #0]
 8005616:	2b01      	cmp	r3, #1
 8005618:	d102      	bne.n	8005620 <HAL_GPIO_EXTI_Callback+0x6c>
	{
		handleKeyboardTouch();
 800561a:	f7fe fee9 	bl	80043f0 <handleKeyboardTouch>
 800561e:	e001      	b.n	8005624 <HAL_GPIO_EXTI_Callback+0x70>
	}
	else
	{
		checkCoordinates();
 8005620:	f7ff f9bc 	bl	800499c <checkCoordinates>
	}
	allowTouch = false;
 8005624:	4b05      	ldr	r3, [pc, #20]	@ (800563c <HAL_GPIO_EXTI_Callback+0x88>)
 8005626:	2200      	movs	r2, #0
 8005628:	701a      	strb	r2, [r3, #0]
 800562a:	e004      	b.n	8005636 <HAL_GPIO_EXTI_Callback+0x82>
	if (GPIO_Pin != T_IRQ_Pin) return;
 800562c:	bf00      	nop
 800562e:	e002      	b.n	8005636 <HAL_GPIO_EXTI_Callback+0x82>
	if (!XPT2046_TouchPressed() || !allowTouch) return;
 8005630:	bf00      	nop
 8005632:	e000      	b.n	8005636 <HAL_GPIO_EXTI_Callback+0x82>
	if (!XPT2046_TouchGetCoordinates(&xCoordinates, &yCoordinates)) return;
 8005634:	bf00      	nop
}
 8005636:	3708      	adds	r7, #8
 8005638:	46bd      	mov	sp, r7
 800563a:	bd80      	pop	{r7, pc}
 800563c:	20000059 	.word	0x20000059
 8005640:	200009fa 	.word	0x200009fa
 8005644:	200009f8 	.word	0x200009f8
 8005648:	200009fc 	.word	0x200009fc

0800564c <resetBuffer>:

void resetBuffer()
{
 800564c:	b480      	push	{r7}
 800564e:	b083      	sub	sp, #12
 8005650:	af00      	add	r7, sp, #0
	for (int i = 0; i <= BUFFER_SIZE; i++)
 8005652:	2300      	movs	r3, #0
 8005654:	607b      	str	r3, [r7, #4]
 8005656:	e007      	b.n	8005668 <resetBuffer+0x1c>
	{
		rxBuffer[i] = 0;
 8005658:	4a09      	ldr	r2, [pc, #36]	@ (8005680 <resetBuffer+0x34>)
 800565a:	687b      	ldr	r3, [r7, #4]
 800565c:	4413      	add	r3, r2
 800565e:	2200      	movs	r2, #0
 8005660:	701a      	strb	r2, [r3, #0]
	for (int i = 0; i <= BUFFER_SIZE; i++)
 8005662:	687b      	ldr	r3, [r7, #4]
 8005664:	3301      	adds	r3, #1
 8005666:	607b      	str	r3, [r7, #4]
 8005668:	687b      	ldr	r3, [r7, #4]
 800566a:	f5b3 6f80 	cmp.w	r3, #1024	@ 0x400
 800566e:	ddf3      	ble.n	8005658 <resetBuffer+0xc>
	}
}
 8005670:	bf00      	nop
 8005672:	bf00      	nop
 8005674:	370c      	adds	r7, #12
 8005676:	46bd      	mov	sp, r7
 8005678:	f85d 7b04 	ldr.w	r7, [sp], #4
 800567c:	4770      	bx	lr
 800567e:	bf00      	nop
 8005680:	200005f4 	.word	0x200005f4

08005684 <Error_Handler>:
/**
  * @brief  This function is executed in case of error occurrence.
  * @retval None
  */
void Error_Handler(void)
{
 8005684:	b480      	push	{r7}
 8005686:	af00      	add	r7, sp, #0
  \details Disables IRQ interrupts by setting special-purpose register PRIMASK.
           Can only be executed in Privileged modes.
 */
__STATIC_FORCEINLINE void __disable_irq(void)
{
  __ASM volatile ("cpsid i" : : : "memory");
 8005688:	b672      	cpsid	i
}
 800568a:	bf00      	nop
  /* USER CODE BEGIN Error_Handler_Debug */
  /* User can add his own implementation to report the HAL error return state */
  __disable_irq();
  while (1)
 800568c:	bf00      	nop
 800568e:	e7fd      	b.n	800568c <Error_Handler+0x8>

08005690 <HAL_MspInit>:
/* USER CODE END 0 */
/**
  * Initializes the Global MSP.
  */
void HAL_MspInit(void)
{
 8005690:	b480      	push	{r7}
 8005692:	b083      	sub	sp, #12
 8005694:	af00      	add	r7, sp, #0

  /* USER CODE BEGIN MspInit 0 */

  /* USER CODE END MspInit 0 */

  __HAL_RCC_SYSCFG_CLK_ENABLE();
 8005696:	2300      	movs	r3, #0
 8005698:	607b      	str	r3, [r7, #4]
 800569a:	4b10      	ldr	r3, [pc, #64]	@ (80056dc <HAL_MspInit+0x4c>)
 800569c:	6c5b      	ldr	r3, [r3, #68]	@ 0x44
 800569e:	4a0f      	ldr	r2, [pc, #60]	@ (80056dc <HAL_MspInit+0x4c>)
 80056a0:	f443 4380 	orr.w	r3, r3, #16384	@ 0x4000
 80056a4:	6453      	str	r3, [r2, #68]	@ 0x44
 80056a6:	4b0d      	ldr	r3, [pc, #52]	@ (80056dc <HAL_MspInit+0x4c>)
 80056a8:	6c5b      	ldr	r3, [r3, #68]	@ 0x44
 80056aa:	f403 4380 	and.w	r3, r3, #16384	@ 0x4000
 80056ae:	607b      	str	r3, [r7, #4]
 80056b0:	687b      	ldr	r3, [r7, #4]
  __HAL_RCC_PWR_CLK_ENABLE();
 80056b2:	2300      	movs	r3, #0
 80056b4:	603b      	str	r3, [r7, #0]
 80056b6:	4b09      	ldr	r3, [pc, #36]	@ (80056dc <HAL_MspInit+0x4c>)
 80056b8:	6c1b      	ldr	r3, [r3, #64]	@ 0x40
 80056ba:	4a08      	ldr	r2, [pc, #32]	@ (80056dc <HAL_MspInit+0x4c>)
 80056bc:	f043 5380 	orr.w	r3, r3, #268435456	@ 0x10000000
 80056c0:	6413      	str	r3, [r2, #64]	@ 0x40
 80056c2:	4b06      	ldr	r3, [pc, #24]	@ (80056dc <HAL_MspInit+0x4c>)
 80056c4:	6c1b      	ldr	r3, [r3, #64]	@ 0x40
 80056c6:	f003 5380 	and.w	r3, r3, #268435456	@ 0x10000000
 80056ca:	603b      	str	r3, [r7, #0]
 80056cc:	683b      	ldr	r3, [r7, #0]
  /* System interrupt init*/

  /* USER CODE BEGIN MspInit 1 */

  /* USER CODE END MspInit 1 */
}
 80056ce:	bf00      	nop
 80056d0:	370c      	adds	r7, #12
 80056d2:	46bd      	mov	sp, r7
 80056d4:	f85d 7b04 	ldr.w	r7, [sp], #4
 80056d8:	4770      	bx	lr
 80056da:	bf00      	nop
 80056dc:	40023800 	.word	0x40023800

080056e0 <HAL_SPI_MspInit>:
  * This function configures the hardware resources used in this example
  * @param hspi: SPI handle pointer
  * @retval None
  */
void HAL_SPI_MspInit(SPI_HandleTypeDef* hspi)
{
 80056e0:	b580      	push	{r7, lr}
 80056e2:	b08a      	sub	sp, #40	@ 0x28
 80056e4:	af00      	add	r7, sp, #0
 80056e6:	6078      	str	r0, [r7, #4]
  GPIO_InitTypeDef GPIO_InitStruct = {0};
 80056e8:	f107 0314 	add.w	r3, r7, #20
 80056ec:	2200      	movs	r2, #0
 80056ee:	601a      	str	r2, [r3, #0]
 80056f0:	605a      	str	r2, [r3, #4]
 80056f2:	609a      	str	r2, [r3, #8]
 80056f4:	60da      	str	r2, [r3, #12]
 80056f6:	611a      	str	r2, [r3, #16]
  if(hspi->Instance==SPI2)
 80056f8:	687b      	ldr	r3, [r7, #4]
 80056fa:	681b      	ldr	r3, [r3, #0]
 80056fc:	4a19      	ldr	r2, [pc, #100]	@ (8005764 <HAL_SPI_MspInit+0x84>)
 80056fe:	4293      	cmp	r3, r2
 8005700:	d12c      	bne.n	800575c <HAL_SPI_MspInit+0x7c>
  {
    /* USER CODE BEGIN SPI2_MspInit 0 */

    /* USER CODE END SPI2_MspInit 0 */
    /* Peripheral clock enable */
    __HAL_RCC_SPI2_CLK_ENABLE();
 8005702:	2300      	movs	r3, #0
 8005704:	613b      	str	r3, [r7, #16]
 8005706:	4b18      	ldr	r3, [pc, #96]	@ (8005768 <HAL_SPI_MspInit+0x88>)
 8005708:	6c1b      	ldr	r3, [r3, #64]	@ 0x40
 800570a:	4a17      	ldr	r2, [pc, #92]	@ (8005768 <HAL_SPI_MspInit+0x88>)
 800570c:	f443 4380 	orr.w	r3, r3, #16384	@ 0x4000
 8005710:	6413      	str	r3, [r2, #64]	@ 0x40
 8005712:	4b15      	ldr	r3, [pc, #84]	@ (8005768 <HAL_SPI_MspInit+0x88>)
 8005714:	6c1b      	ldr	r3, [r3, #64]	@ 0x40
 8005716:	f403 4380 	and.w	r3, r3, #16384	@ 0x4000
 800571a:	613b      	str	r3, [r7, #16]
 800571c:	693b      	ldr	r3, [r7, #16]

    __HAL_RCC_GPIOB_CLK_ENABLE();
 800571e:	2300      	movs	r3, #0
 8005720:	60fb      	str	r3, [r7, #12]
 8005722:	4b11      	ldr	r3, [pc, #68]	@ (8005768 <HAL_SPI_MspInit+0x88>)
 8005724:	6b1b      	ldr	r3, [r3, #48]	@ 0x30
 8005726:	4a10      	ldr	r2, [pc, #64]	@ (8005768 <HAL_SPI_MspInit+0x88>)
 8005728:	f043 0302 	orr.w	r3, r3, #2
 800572c:	6313      	str	r3, [r2, #48]	@ 0x30
 800572e:	4b0e      	ldr	r3, [pc, #56]	@ (8005768 <HAL_SPI_MspInit+0x88>)
 8005730:	6b1b      	ldr	r3, [r3, #48]	@ 0x30
 8005732:	f003 0302 	and.w	r3, r3, #2
 8005736:	60fb      	str	r3, [r7, #12]
 8005738:	68fb      	ldr	r3, [r7, #12]
    /**SPI2 GPIO Configuration
    PB13     ------> SPI2_SCK
    PB14     ------> SPI2_MISO
    PB15     ------> SPI2_MOSI
    */
    GPIO_InitStruct.Pin = GPIO_PIN_13|GPIO_PIN_14|GPIO_PIN_15;
 800573a:	f44f 4360 	mov.w	r3, #57344	@ 0xe000
 800573e:	617b      	str	r3, [r7, #20]
    GPIO_InitStruct.Mode = GPIO_MODE_AF_PP;
 8005740:	2302      	movs	r3, #2
 8005742:	61bb      	str	r3, [r7, #24]
    GPIO_InitStruct.Pull = GPIO_NOPULL;
 8005744:	2300      	movs	r3, #0
 8005746:	61fb      	str	r3, [r7, #28]
    GPIO_InitStruct.Speed = GPIO_SPEED_FREQ_VERY_HIGH;
 8005748:	2303      	movs	r3, #3
 800574a:	623b      	str	r3, [r7, #32]
    GPIO_InitStruct.Alternate = GPIO_AF5_SPI2;
 800574c:	2305      	movs	r3, #5
 800574e:	627b      	str	r3, [r7, #36]	@ 0x24
    HAL_GPIO_Init(GPIOB, &GPIO_InitStruct);
 8005750:	f107 0314 	add.w	r3, r7, #20
 8005754:	4619      	mov	r1, r3
 8005756:	4805      	ldr	r0, [pc, #20]	@ (800576c <HAL_SPI_MspInit+0x8c>)
 8005758:	f000 fc2c 	bl	8005fb4 <HAL_GPIO_Init>

    /* USER CODE END SPI2_MspInit 1 */

  }

}
 800575c:	bf00      	nop
 800575e:	3728      	adds	r7, #40	@ 0x28
 8005760:	46bd      	mov	sp, r7
 8005762:	bd80      	pop	{r7, pc}
 8005764:	40003800 	.word	0x40003800
 8005768:	40023800 	.word	0x40023800
 800576c:	40020400 	.word	0x40020400

08005770 <HAL_UART_MspInit>:
  * This function configures the hardware resources used in this example
  * @param huart: UART handle pointer
  * @retval None
  */
void HAL_UART_MspInit(UART_HandleTypeDef* huart)
{
 8005770:	b580      	push	{r7, lr}
 8005772:	b08a      	sub	sp, #40	@ 0x28
 8005774:	af00      	add	r7, sp, #0
 8005776:	6078      	str	r0, [r7, #4]
  GPIO_InitTypeDef GPIO_InitStruct = {0};
 8005778:	f107 0314 	add.w	r3, r7, #20
 800577c:	2200      	movs	r2, #0
 800577e:	601a      	str	r2, [r3, #0]
 8005780:	605a      	str	r2, [r3, #4]
 8005782:	609a      	str	r2, [r3, #8]
 8005784:	60da      	str	r2, [r3, #12]
 8005786:	611a      	str	r2, [r3, #16]
  if(huart->Instance==USART1)
 8005788:	687b      	ldr	r3, [r7, #4]
 800578a:	681b      	ldr	r3, [r3, #0]
 800578c:	4a1d      	ldr	r2, [pc, #116]	@ (8005804 <HAL_UART_MspInit+0x94>)
 800578e:	4293      	cmp	r3, r2
 8005790:	d134      	bne.n	80057fc <HAL_UART_MspInit+0x8c>
  {
    /* USER CODE BEGIN USART1_MspInit 0 */

    /* USER CODE END USART1_MspInit 0 */
    /* Peripheral clock enable */
    __HAL_RCC_USART1_CLK_ENABLE();
 8005792:	2300      	movs	r3, #0
 8005794:	613b      	str	r3, [r7, #16]
 8005796:	4b1c      	ldr	r3, [pc, #112]	@ (8005808 <HAL_UART_MspInit+0x98>)
 8005798:	6c5b      	ldr	r3, [r3, #68]	@ 0x44
 800579a:	4a1b      	ldr	r2, [pc, #108]	@ (8005808 <HAL_UART_MspInit+0x98>)
 800579c:	f043 0310 	orr.w	r3, r3, #16
 80057a0:	6453      	str	r3, [r2, #68]	@ 0x44
 80057a2:	4b19      	ldr	r3, [pc, #100]	@ (8005808 <HAL_UART_MspInit+0x98>)
 80057a4:	6c5b      	ldr	r3, [r3, #68]	@ 0x44
 80057a6:	f003 0310 	and.w	r3, r3, #16
 80057aa:	613b      	str	r3, [r7, #16]
 80057ac:	693b      	ldr	r3, [r7, #16]

    __HAL_RCC_GPIOA_CLK_ENABLE();
 80057ae:	2300      	movs	r3, #0
 80057b0:	60fb      	str	r3, [r7, #12]
 80057b2:	4b15      	ldr	r3, [pc, #84]	@ (8005808 <HAL_UART_MspInit+0x98>)
 80057b4:	6b1b      	ldr	r3, [r3, #48]	@ 0x30
 80057b6:	4a14      	ldr	r2, [pc, #80]	@ (8005808 <HAL_UART_MspInit+0x98>)
 80057b8:	f043 0301 	orr.w	r3, r3, #1
 80057bc:	6313      	str	r3, [r2, #48]	@ 0x30
 80057be:	4b12      	ldr	r3, [pc, #72]	@ (8005808 <HAL_UART_MspInit+0x98>)
 80057c0:	6b1b      	ldr	r3, [r3, #48]	@ 0x30
 80057c2:	f003 0301 	and.w	r3, r3, #1
 80057c6:	60fb      	str	r3, [r7, #12]
 80057c8:	68fb      	ldr	r3, [r7, #12]
    /**USART1 GPIO Configuration
    PA9     ------> USART1_TX
    PA10     ------> USART1_RX
    */
    GPIO_InitStruct.Pin = GPIO_PIN_9|GPIO_PIN_10;
 80057ca:	f44f 63c0 	mov.w	r3, #1536	@ 0x600
 80057ce:	617b      	str	r3, [r7, #20]
    GPIO_InitStruct.Mode = GPIO_MODE_AF_PP;
 80057d0:	2302      	movs	r3, #2
 80057d2:	61bb      	str	r3, [r7, #24]
    GPIO_InitStruct.Pull = GPIO_NOPULL;
 80057d4:	2300      	movs	r3, #0
 80057d6:	61fb      	str	r3, [r7, #28]
    GPIO_InitStruct.Speed = GPIO_SPEED_FREQ_VERY_HIGH;
 80057d8:	2303      	movs	r3, #3
 80057da:	623b      	str	r3, [r7, #32]
    GPIO_InitStruct.Alternate = GPIO_AF7_USART1;
 80057dc:	2307      	movs	r3, #7
 80057de:	627b      	str	r3, [r7, #36]	@ 0x24
    HAL_GPIO_Init(GPIOA, &GPIO_InitStruct);
 80057e0:	f107 0314 	add.w	r3, r7, #20
 80057e4:	4619      	mov	r1, r3
 80057e6:	4809      	ldr	r0, [pc, #36]	@ (800580c <HAL_UART_MspInit+0x9c>)
 80057e8:	f000 fbe4 	bl	8005fb4 <HAL_GPIO_Init>

    /* USART1 interrupt Init */
    HAL_NVIC_SetPriority(USART1_IRQn, 0, 0);
 80057ec:	2200      	movs	r2, #0
 80057ee:	2100      	movs	r1, #0
 80057f0:	2025      	movs	r0, #37	@ 0x25
 80057f2:	f000 fb16 	bl	8005e22 <HAL_NVIC_SetPriority>
    HAL_NVIC_EnableIRQ(USART1_IRQn);
 80057f6:	2025      	movs	r0, #37	@ 0x25
 80057f8:	f000 fb2f 	bl	8005e5a <HAL_NVIC_EnableIRQ>

    /* USER CODE END USART1_MspInit 1 */

  }

}
 80057fc:	bf00      	nop
 80057fe:	3728      	adds	r7, #40	@ 0x28
 8005800:	46bd      	mov	sp, r7
 8005802:	bd80      	pop	{r7, pc}
 8005804:	40011000 	.word	0x40011000
 8005808:	40023800 	.word	0x40023800
 800580c:	40020000 	.word	0x40020000

08005810 <HAL_FSMC_MspInit>:

}

static uint32_t FSMC_Initialized = 0;

static void HAL_FSMC_MspInit(void){
 8005810:	b580      	push	{r7, lr}
 8005812:	b086      	sub	sp, #24
 8005814:	af00      	add	r7, sp, #0
  /* USER CODE BEGIN FSMC_MspInit 0 */

  /* USER CODE END FSMC_MspInit 0 */
  GPIO_InitTypeDef GPIO_InitStruct ={0};
 8005816:	1d3b      	adds	r3, r7, #4
 8005818:	2200      	movs	r2, #0
 800581a:	601a      	str	r2, [r3, #0]
 800581c:	605a      	str	r2, [r3, #4]
 800581e:	609a      	str	r2, [r3, #8]
 8005820:	60da      	str	r2, [r3, #12]
 8005822:	611a      	str	r2, [r3, #16]
  if (FSMC_Initialized) {
 8005824:	4b1c      	ldr	r3, [pc, #112]	@ (8005898 <HAL_FSMC_MspInit+0x88>)
 8005826:	681b      	ldr	r3, [r3, #0]
 8005828:	2b00      	cmp	r3, #0
 800582a:	d131      	bne.n	8005890 <HAL_FSMC_MspInit+0x80>
    return;
  }
  FSMC_Initialized = 1;
 800582c:	4b1a      	ldr	r3, [pc, #104]	@ (8005898 <HAL_FSMC_MspInit+0x88>)
 800582e:	2201      	movs	r2, #1
 8005830:	601a      	str	r2, [r3, #0]

  /* Peripheral clock enable */
  __HAL_RCC_FSMC_CLK_ENABLE();
 8005832:	2300      	movs	r3, #0
 8005834:	603b      	str	r3, [r7, #0]
 8005836:	4b19      	ldr	r3, [pc, #100]	@ (800589c <HAL_FSMC_MspInit+0x8c>)
 8005838:	6b9b      	ldr	r3, [r3, #56]	@ 0x38
 800583a:	4a18      	ldr	r2, [pc, #96]	@ (800589c <HAL_FSMC_MspInit+0x8c>)
 800583c:	f043 0301 	orr.w	r3, r3, #1
 8005840:	6393      	str	r3, [r2, #56]	@ 0x38
 8005842:	4b16      	ldr	r3, [pc, #88]	@ (800589c <HAL_FSMC_MspInit+0x8c>)
 8005844:	6b9b      	ldr	r3, [r3, #56]	@ 0x38
 8005846:	f003 0301 	and.w	r3, r3, #1
 800584a:	603b      	str	r3, [r7, #0]
 800584c:	683b      	ldr	r3, [r7, #0]
  PD1   ------> FSMC_D3
  PD4   ------> FSMC_NOE
  PD5   ------> FSMC_NWE
  PD7   ------> FSMC_NE1
  */
  GPIO_InitStruct.Pin = GPIO_PIN_7|GPIO_PIN_8|GPIO_PIN_9|GPIO_PIN_10
 800584e:	f64f 7380 	movw	r3, #65408	@ 0xff80
 8005852:	607b      	str	r3, [r7, #4]
                          |GPIO_PIN_11|GPIO_PIN_12|GPIO_PIN_13|GPIO_PIN_14
                          |GPIO_PIN_15;
  GPIO_InitStruct.Mode = GPIO_MODE_AF_PP;
 8005854:	2302      	movs	r3, #2
 8005856:	60bb      	str	r3, [r7, #8]
  GPIO_InitStruct.Pull = GPIO_NOPULL;
 8005858:	2300      	movs	r3, #0
 800585a:	60fb      	str	r3, [r7, #12]
  GPIO_InitStruct.Speed = GPIO_SPEED_FREQ_VERY_HIGH;
 800585c:	2303      	movs	r3, #3
 800585e:	613b      	str	r3, [r7, #16]
  GPIO_InitStruct.Alternate = GPIO_AF12_FSMC;
 8005860:	230c      	movs	r3, #12
 8005862:	617b      	str	r3, [r7, #20]
  HAL_GPIO_Init(GPIOE, &GPIO_InitStruct);
 8005864:	1d3b      	adds	r3, r7, #4
 8005866:	4619      	mov	r1, r3
 8005868:	480d      	ldr	r0, [pc, #52]	@ (80058a0 <HAL_FSMC_MspInit+0x90>)
 800586a:	f000 fba3 	bl	8005fb4 <HAL_GPIO_Init>

  GPIO_InitStruct.Pin = GPIO_PIN_8|GPIO_PIN_9|GPIO_PIN_10|GPIO_PIN_13
 800586e:	f24e 73b3 	movw	r3, #59315	@ 0xe7b3
 8005872:	607b      	str	r3, [r7, #4]
                          |GPIO_PIN_14|GPIO_PIN_15|GPIO_PIN_0|GPIO_PIN_1
                          |GPIO_PIN_4|GPIO_PIN_5|GPIO_PIN_7;
  GPIO_InitStruct.Mode = GPIO_MODE_AF_PP;
 8005874:	2302      	movs	r3, #2
 8005876:	60bb      	str	r3, [r7, #8]
  GPIO_InitStruct.Pull = GPIO_NOPULL;
 8005878:	2300      	movs	r3, #0
 800587a:	60fb      	str	r3, [r7, #12]
  GPIO_InitStruct.Speed = GPIO_SPEED_FREQ_VERY_HIGH;
 800587c:	2303      	movs	r3, #3
 800587e:	613b      	str	r3, [r7, #16]
  GPIO_InitStruct.Alternate = GPIO_AF12_FSMC;
 8005880:	230c      	movs	r3, #12
 8005882:	617b      	str	r3, [r7, #20]
  HAL_GPIO_Init(GPIOD, &GPIO_InitStruct);
 8005884:	1d3b      	adds	r3, r7, #4
 8005886:	4619      	mov	r1, r3
 8005888:	4806      	ldr	r0, [pc, #24]	@ (80058a4 <HAL_FSMC_MspInit+0x94>)
 800588a:	f000 fb93 	bl	8005fb4 <HAL_GPIO_Init>
 800588e:	e000      	b.n	8005892 <HAL_FSMC_MspInit+0x82>
    return;
 8005890:	bf00      	nop

  /* USER CODE BEGIN FSMC_MspInit 1 */

  /* USER CODE END FSMC_MspInit 1 */
}
 8005892:	3718      	adds	r7, #24
 8005894:	46bd      	mov	sp, r7
 8005896:	bd80      	pop	{r7, pc}
 8005898:	20000c30 	.word	0x20000c30
 800589c:	40023800 	.word	0x40023800
 80058a0:	40021000 	.word	0x40021000
 80058a4:	40020c00 	.word	0x40020c00

080058a8 <HAL_SRAM_MspInit>:

void HAL_SRAM_MspInit(SRAM_HandleTypeDef* hsram){
 80058a8:	b580      	push	{r7, lr}
 80058aa:	b082      	sub	sp, #8
 80058ac:	af00      	add	r7, sp, #0
 80058ae:	6078      	str	r0, [r7, #4]
  /* USER CODE BEGIN SRAM_MspInit 0 */

  /* USER CODE END SRAM_MspInit 0 */
  HAL_FSMC_MspInit();
 80058b0:	f7ff ffae 	bl	8005810 <HAL_FSMC_MspInit>
  /* USER CODE BEGIN SRAM_MspInit 1 */

  /* USER CODE END SRAM_MspInit 1 */
}
 80058b4:	bf00      	nop
 80058b6:	3708      	adds	r7, #8
 80058b8:	46bd      	mov	sp, r7
 80058ba:	bd80      	pop	{r7, pc}

080058bc <NMI_Handler>:
/******************************************************************************/
/**
  * @brief This function handles Non maskable interrupt.
  */
void NMI_Handler(void)
{
 80058bc:	b480      	push	{r7}
 80058be:	af00      	add	r7, sp, #0
  /* USER CODE BEGIN NonMaskableInt_IRQn 0 */

  /* USER CODE END NonMaskableInt_IRQn 0 */
  /* USER CODE BEGIN NonMaskableInt_IRQn 1 */
   while (1)
 80058c0:	bf00      	nop
 80058c2:	e7fd      	b.n	80058c0 <NMI_Handler+0x4>

080058c4 <HardFault_Handler>:

/**
  * @brief This function handles Hard fault interrupt.
  */
void HardFault_Handler(void)
{
 80058c4:	b480      	push	{r7}
 80058c6:	af00      	add	r7, sp, #0
  /* USER CODE BEGIN HardFault_IRQn 0 */

  /* USER CODE END HardFault_IRQn 0 */
  while (1)
 80058c8:	bf00      	nop
 80058ca:	e7fd      	b.n	80058c8 <HardFault_Handler+0x4>

080058cc <MemManage_Handler>:

/**
  * @brief This function handles Memory management fault.
  */
void MemManage_Handler(void)
{
 80058cc:	b480      	push	{r7}
 80058ce:	af00      	add	r7, sp, #0
  /* USER CODE BEGIN MemoryManagement_IRQn 0 */

  /* USER CODE END MemoryManagement_IRQn 0 */
  while (1)
 80058d0:	bf00      	nop
 80058d2:	e7fd      	b.n	80058d0 <MemManage_Handler+0x4>

080058d4 <BusFault_Handler>:

/**
  * @brief This function handles Pre-fetch fault, memory access fault.
  */
void BusFault_Handler(void)
{
 80058d4:	b480      	push	{r7}
 80058d6:	af00      	add	r7, sp, #0
  /* USER CODE BEGIN BusFault_IRQn 0 */

  /* USER CODE END BusFault_IRQn 0 */
  while (1)
 80058d8:	bf00      	nop
 80058da:	e7fd      	b.n	80058d8 <BusFault_Handler+0x4>

080058dc <UsageFault_Handler>:

/**
  * @brief This function handles Undefined instruction or illegal state.
  */
void UsageFault_Handler(void)
{
 80058dc:	b480      	push	{r7}
 80058de:	af00      	add	r7, sp, #0
  /* USER CODE BEGIN UsageFault_IRQn 0 */

  /* USER CODE END UsageFault_IRQn 0 */
  while (1)
 80058e0:	bf00      	nop
 80058e2:	e7fd      	b.n	80058e0 <UsageFault_Handler+0x4>

080058e4 <SVC_Handler>:

/**
  * @brief This function handles System service call via SWI instruction.
  */
void SVC_Handler(void)
{
 80058e4:	b480      	push	{r7}
 80058e6:	af00      	add	r7, sp, #0

  /* USER CODE END SVCall_IRQn 0 */
  /* USER CODE BEGIN SVCall_IRQn 1 */

  /* USER CODE END SVCall_IRQn 1 */
}
 80058e8:	bf00      	nop
 80058ea:	46bd      	mov	sp, r7
 80058ec:	f85d 7b04 	ldr.w	r7, [sp], #4
 80058f0:	4770      	bx	lr

080058f2 <DebugMon_Handler>:

/**
  * @brief This function handles Debug monitor.
  */
void DebugMon_Handler(void)
{
 80058f2:	b480      	push	{r7}
 80058f4:	af00      	add	r7, sp, #0

  /* USER CODE END DebugMonitor_IRQn 0 */
  /* USER CODE BEGIN DebugMonitor_IRQn 1 */

  /* USER CODE END DebugMonitor_IRQn 1 */
}
 80058f6:	bf00      	nop
 80058f8:	46bd      	mov	sp, r7
 80058fa:	f85d 7b04 	ldr.w	r7, [sp], #4
 80058fe:	4770      	bx	lr

08005900 <PendSV_Handler>:

/**
  * @brief This function handles Pendable request for system service.
  */
void PendSV_Handler(void)
{
 8005900:	b480      	push	{r7}
 8005902:	af00      	add	r7, sp, #0

  /* USER CODE END PendSV_IRQn 0 */
  /* USER CODE BEGIN PendSV_IRQn 1 */

  /* USER CODE END PendSV_IRQn 1 */
}
 8005904:	bf00      	nop
 8005906:	46bd      	mov	sp, r7
 8005908:	f85d 7b04 	ldr.w	r7, [sp], #4
 800590c:	4770      	bx	lr

0800590e <SysTick_Handler>:

/**
  * @brief This function handles System tick timer.
  */
void SysTick_Handler(void)
{
 800590e:	b580      	push	{r7, lr}
 8005910:	af00      	add	r7, sp, #0
  /* USER CODE BEGIN SysTick_IRQn 0 */

  /* USER CODE END SysTick_IRQn 0 */
  HAL_IncTick();
 8005912:	f000 f967 	bl	8005be4 <HAL_IncTick>
  /* USER CODE BEGIN SysTick_IRQn 1 */

  /* USER CODE END SysTick_IRQn 1 */
}
 8005916:	bf00      	nop
 8005918:	bd80      	pop	{r7, pc}

0800591a <EXTI9_5_IRQHandler>:

/**
  * @brief This function handles EXTI line[9:5] interrupts.
  */
void EXTI9_5_IRQHandler(void)
{
 800591a:	b580      	push	{r7, lr}
 800591c:	af00      	add	r7, sp, #0
  /* USER CODE BEGIN EXTI9_5_IRQn 0 */

  /* USER CODE END EXTI9_5_IRQn 0 */
  HAL_GPIO_EXTI_IRQHandler(T_IRQ_Pin);
 800591e:	2020      	movs	r0, #32
 8005920:	f000 fd16 	bl	8006350 <HAL_GPIO_EXTI_IRQHandler>
  /* USER CODE BEGIN EXTI9_5_IRQn 1 */

  /* USER CODE END EXTI9_5_IRQn 1 */
}
 8005924:	bf00      	nop
 8005926:	bd80      	pop	{r7, pc}

08005928 <USART1_IRQHandler>:

/**
  * @brief This function handles USART1 global interrupt.
  */
void USART1_IRQHandler(void)
{
 8005928:	b580      	push	{r7, lr}
 800592a:	af00      	add	r7, sp, #0
  /* USER CODE BEGIN USART1_IRQn 0 */

  /* USER CODE END USART1_IRQn 0 */
  HAL_UART_IRQHandler(&huart1);
 800592c:	4802      	ldr	r0, [pc, #8]	@ (8005938 <USART1_IRQHandler+0x10>)
 800592e:	f001 ff59 	bl	80077e4 <HAL_UART_IRQHandler>
  /* USER CODE BEGIN USART1_IRQn 1 */

  /* USER CODE END USART1_IRQn 1 */
}
 8005932:	bf00      	nop
 8005934:	bd80      	pop	{r7, pc}
 8005936:	bf00      	nop
 8005938:	20000558 	.word	0x20000558

0800593c <_getpid>:
void initialise_monitor_handles()
{
}

int _getpid(void)
{
 800593c:	b480      	push	{r7}
 800593e:	af00      	add	r7, sp, #0
  return 1;
 8005940:	2301      	movs	r3, #1
}
 8005942:	4618      	mov	r0, r3
 8005944:	46bd      	mov	sp, r7
 8005946:	f85d 7b04 	ldr.w	r7, [sp], #4
 800594a:	4770      	bx	lr

0800594c <_kill>:

int _kill(int pid, int sig)
{
 800594c:	b580      	push	{r7, lr}
 800594e:	b082      	sub	sp, #8
 8005950:	af00      	add	r7, sp, #0
 8005952:	6078      	str	r0, [r7, #4]
 8005954:	6039      	str	r1, [r7, #0]
  (void)pid;
  (void)sig;
  errno = EINVAL;
 8005956:	f004 f83b 	bl	80099d0 <__errno>
 800595a:	4603      	mov	r3, r0
 800595c:	2216      	movs	r2, #22
 800595e:	601a      	str	r2, [r3, #0]
  return -1;
 8005960:	f04f 33ff 	mov.w	r3, #4294967295
}
 8005964:	4618      	mov	r0, r3
 8005966:	3708      	adds	r7, #8
 8005968:	46bd      	mov	sp, r7
 800596a:	bd80      	pop	{r7, pc}

0800596c <_exit>:

void _exit (int status)
{
 800596c:	b580      	push	{r7, lr}
 800596e:	b082      	sub	sp, #8
 8005970:	af00      	add	r7, sp, #0
 8005972:	6078      	str	r0, [r7, #4]
  _kill(status, -1);
 8005974:	f04f 31ff 	mov.w	r1, #4294967295
 8005978:	6878      	ldr	r0, [r7, #4]
 800597a:	f7ff ffe7 	bl	800594c <_kill>
  while (1) {}    /* Make sure we hang here */
 800597e:	bf00      	nop
 8005980:	e7fd      	b.n	800597e <_exit+0x12>

08005982 <_read>:
}

__attribute__((weak)) int _read(int file, char *ptr, int len)
{
 8005982:	b580      	push	{r7, lr}
 8005984:	b086      	sub	sp, #24
 8005986:	af00      	add	r7, sp, #0
 8005988:	60f8      	str	r0, [r7, #12]
 800598a:	60b9      	str	r1, [r7, #8]
 800598c:	607a      	str	r2, [r7, #4]
  (void)file;
  int DataIdx;

  for (DataIdx = 0; DataIdx < len; DataIdx++)
 800598e:	2300      	movs	r3, #0
 8005990:	617b      	str	r3, [r7, #20]
 8005992:	e00a      	b.n	80059aa <_read+0x28>
  {
    *ptr++ = __io_getchar();
 8005994:	f3af 8000 	nop.w
 8005998:	4601      	mov	r1, r0
 800599a:	68bb      	ldr	r3, [r7, #8]
 800599c:	1c5a      	adds	r2, r3, #1
 800599e:	60ba      	str	r2, [r7, #8]
 80059a0:	b2ca      	uxtb	r2, r1
 80059a2:	701a      	strb	r2, [r3, #0]
  for (DataIdx = 0; DataIdx < len; DataIdx++)
 80059a4:	697b      	ldr	r3, [r7, #20]
 80059a6:	3301      	adds	r3, #1
 80059a8:	617b      	str	r3, [r7, #20]
 80059aa:	697a      	ldr	r2, [r7, #20]
 80059ac:	687b      	ldr	r3, [r7, #4]
 80059ae:	429a      	cmp	r2, r3
 80059b0:	dbf0      	blt.n	8005994 <_read+0x12>
  }

  return len;
 80059b2:	687b      	ldr	r3, [r7, #4]
}
 80059b4:	4618      	mov	r0, r3
 80059b6:	3718      	adds	r7, #24
 80059b8:	46bd      	mov	sp, r7
 80059ba:	bd80      	pop	{r7, pc}

080059bc <_write>:

__attribute__((weak)) int _write(int file, char *ptr, int len)
{
 80059bc:	b580      	push	{r7, lr}
 80059be:	b086      	sub	sp, #24
 80059c0:	af00      	add	r7, sp, #0
 80059c2:	60f8      	str	r0, [r7, #12]
 80059c4:	60b9      	str	r1, [r7, #8]
 80059c6:	607a      	str	r2, [r7, #4]
  (void)file;
  int DataIdx;

  for (DataIdx = 0; DataIdx < len; DataIdx++)
 80059c8:	2300      	movs	r3, #0
 80059ca:	617b      	str	r3, [r7, #20]
 80059cc:	e009      	b.n	80059e2 <_write+0x26>
  {
    __io_putchar(*ptr++);
 80059ce:	68bb      	ldr	r3, [r7, #8]
 80059d0:	1c5a      	adds	r2, r3, #1
 80059d2:	60ba      	str	r2, [r7, #8]
 80059d4:	781b      	ldrb	r3, [r3, #0]
 80059d6:	4618      	mov	r0, r3
 80059d8:	f3af 8000 	nop.w
  for (DataIdx = 0; DataIdx < len; DataIdx++)
 80059dc:	697b      	ldr	r3, [r7, #20]
 80059de:	3301      	adds	r3, #1
 80059e0:	617b      	str	r3, [r7, #20]
 80059e2:	697a      	ldr	r2, [r7, #20]
 80059e4:	687b      	ldr	r3, [r7, #4]
 80059e6:	429a      	cmp	r2, r3
 80059e8:	dbf1      	blt.n	80059ce <_write+0x12>
  }
  return len;
 80059ea:	687b      	ldr	r3, [r7, #4]
}
 80059ec:	4618      	mov	r0, r3
 80059ee:	3718      	adds	r7, #24
 80059f0:	46bd      	mov	sp, r7
 80059f2:	bd80      	pop	{r7, pc}

080059f4 <_close>:

int _close(int file)
{
 80059f4:	b480      	push	{r7}
 80059f6:	b083      	sub	sp, #12
 80059f8:	af00      	add	r7, sp, #0
 80059fa:	6078      	str	r0, [r7, #4]
  (void)file;
  return -1;
 80059fc:	f04f 33ff 	mov.w	r3, #4294967295
}
 8005a00:	4618      	mov	r0, r3
 8005a02:	370c      	adds	r7, #12
 8005a04:	46bd      	mov	sp, r7
 8005a06:	f85d 7b04 	ldr.w	r7, [sp], #4
 8005a0a:	4770      	bx	lr

08005a0c <_fstat>:


int _fstat(int file, struct stat *st)
{
 8005a0c:	b480      	push	{r7}
 8005a0e:	b083      	sub	sp, #12
 8005a10:	af00      	add	r7, sp, #0
 8005a12:	6078      	str	r0, [r7, #4]
 8005a14:	6039      	str	r1, [r7, #0]
  (void)file;
  st->st_mode = S_IFCHR;
 8005a16:	683b      	ldr	r3, [r7, #0]
 8005a18:	f44f 5200 	mov.w	r2, #8192	@ 0x2000
 8005a1c:	605a      	str	r2, [r3, #4]
  return 0;
 8005a1e:	2300      	movs	r3, #0
}
 8005a20:	4618      	mov	r0, r3
 8005a22:	370c      	adds	r7, #12
 8005a24:	46bd      	mov	sp, r7
 8005a26:	f85d 7b04 	ldr.w	r7, [sp], #4
 8005a2a:	4770      	bx	lr

08005a2c <_isatty>:

int _isatty(int file)
{
 8005a2c:	b480      	push	{r7}
 8005a2e:	b083      	sub	sp, #12
 8005a30:	af00      	add	r7, sp, #0
 8005a32:	6078      	str	r0, [r7, #4]
  (void)file;
  return 1;
 8005a34:	2301      	movs	r3, #1
}
 8005a36:	4618      	mov	r0, r3
 8005a38:	370c      	adds	r7, #12
 8005a3a:	46bd      	mov	sp, r7
 8005a3c:	f85d 7b04 	ldr.w	r7, [sp], #4
 8005a40:	4770      	bx	lr

08005a42 <_lseek>:

int _lseek(int file, int ptr, int dir)
{
 8005a42:	b480      	push	{r7}
 8005a44:	b085      	sub	sp, #20
 8005a46:	af00      	add	r7, sp, #0
 8005a48:	60f8      	str	r0, [r7, #12]
 8005a4a:	60b9      	str	r1, [r7, #8]
 8005a4c:	607a      	str	r2, [r7, #4]
  (void)file;
  (void)ptr;
  (void)dir;
  return 0;
 8005a4e:	2300      	movs	r3, #0
}
 8005a50:	4618      	mov	r0, r3
 8005a52:	3714      	adds	r7, #20
 8005a54:	46bd      	mov	sp, r7
 8005a56:	f85d 7b04 	ldr.w	r7, [sp], #4
 8005a5a:	4770      	bx	lr

08005a5c <_sbrk>:
 *
 * @param incr Memory size
 * @return Pointer to allocated memory
 */
void *_sbrk(ptrdiff_t incr)
{
 8005a5c:	b580      	push	{r7, lr}
 8005a5e:	b086      	sub	sp, #24
 8005a60:	af00      	add	r7, sp, #0
 8005a62:	6078      	str	r0, [r7, #4]
  extern uint8_t _end; /* Symbol defined in the linker script */
  extern uint8_t _estack; /* Symbol defined in the linker script */
  extern uint32_t _Min_Stack_Size; /* Symbol defined in the linker script */
  const uint32_t stack_limit = (uint32_t)&_estack - (uint32_t)&_Min_Stack_Size;
 8005a64:	4a14      	ldr	r2, [pc, #80]	@ (8005ab8 <_sbrk+0x5c>)
 8005a66:	4b15      	ldr	r3, [pc, #84]	@ (8005abc <_sbrk+0x60>)
 8005a68:	1ad3      	subs	r3, r2, r3
 8005a6a:	617b      	str	r3, [r7, #20]
  const uint8_t *max_heap = (uint8_t *)stack_limit;
 8005a6c:	697b      	ldr	r3, [r7, #20]
 8005a6e:	613b      	str	r3, [r7, #16]
  uint8_t *prev_heap_end;

  /* Initialize heap end at first call */
  if (NULL == __sbrk_heap_end)
 8005a70:	4b13      	ldr	r3, [pc, #76]	@ (8005ac0 <_sbrk+0x64>)
 8005a72:	681b      	ldr	r3, [r3, #0]
 8005a74:	2b00      	cmp	r3, #0
 8005a76:	d102      	bne.n	8005a7e <_sbrk+0x22>
  {
    __sbrk_heap_end = &_end;
 8005a78:	4b11      	ldr	r3, [pc, #68]	@ (8005ac0 <_sbrk+0x64>)
 8005a7a:	4a12      	ldr	r2, [pc, #72]	@ (8005ac4 <_sbrk+0x68>)
 8005a7c:	601a      	str	r2, [r3, #0]
  }

  /* Protect heap from growing into the reserved MSP stack */
  if (__sbrk_heap_end + incr > max_heap)
 8005a7e:	4b10      	ldr	r3, [pc, #64]	@ (8005ac0 <_sbrk+0x64>)
 8005a80:	681a      	ldr	r2, [r3, #0]
 8005a82:	687b      	ldr	r3, [r7, #4]
 8005a84:	4413      	add	r3, r2
 8005a86:	693a      	ldr	r2, [r7, #16]
 8005a88:	429a      	cmp	r2, r3
 8005a8a:	d207      	bcs.n	8005a9c <_sbrk+0x40>
  {
    errno = ENOMEM;
 8005a8c:	f003 ffa0 	bl	80099d0 <__errno>
 8005a90:	4603      	mov	r3, r0
 8005a92:	220c      	movs	r2, #12
 8005a94:	601a      	str	r2, [r3, #0]
    return (void *)-1;
 8005a96:	f04f 33ff 	mov.w	r3, #4294967295
 8005a9a:	e009      	b.n	8005ab0 <_sbrk+0x54>
  }

  prev_heap_end = __sbrk_heap_end;
 8005a9c:	4b08      	ldr	r3, [pc, #32]	@ (8005ac0 <_sbrk+0x64>)
 8005a9e:	681b      	ldr	r3, [r3, #0]
 8005aa0:	60fb      	str	r3, [r7, #12]
  __sbrk_heap_end += incr;
 8005aa2:	4b07      	ldr	r3, [pc, #28]	@ (8005ac0 <_sbrk+0x64>)
 8005aa4:	681a      	ldr	r2, [r3, #0]
 8005aa6:	687b      	ldr	r3, [r7, #4]
 8005aa8:	4413      	add	r3, r2
 8005aaa:	4a05      	ldr	r2, [pc, #20]	@ (8005ac0 <_sbrk+0x64>)
 8005aac:	6013      	str	r3, [r2, #0]

  return (void *)prev_heap_end;
 8005aae:	68fb      	ldr	r3, [r7, #12]
}
 8005ab0:	4618      	mov	r0, r3
 8005ab2:	3718      	adds	r7, #24
 8005ab4:	46bd      	mov	sp, r7
 8005ab6:	bd80      	pop	{r7, pc}
 8005ab8:	20020000 	.word	0x20020000
 8005abc:	00000400 	.word	0x00000400
 8005ac0:	20000c34 	.word	0x20000c34
 8005ac4:	20000d88 	.word	0x20000d88

08005ac8 <SystemInit>:
  *         configuration.
  * @param  None
  * @retval None
  */
void SystemInit(void)
{
 8005ac8:	b480      	push	{r7}
 8005aca:	af00      	add	r7, sp, #0
  /* FPU settings ------------------------------------------------------------*/
  #if (__FPU_PRESENT == 1) && (__FPU_USED == 1)
    SCB->CPACR |= ((3UL << 10*2)|(3UL << 11*2));  /* set CP10 and CP11 Full Access */
 8005acc:	4b06      	ldr	r3, [pc, #24]	@ (8005ae8 <SystemInit+0x20>)
 8005ace:	f8d3 3088 	ldr.w	r3, [r3, #136]	@ 0x88
 8005ad2:	4a05      	ldr	r2, [pc, #20]	@ (8005ae8 <SystemInit+0x20>)
 8005ad4:	f443 0370 	orr.w	r3, r3, #15728640	@ 0xf00000
 8005ad8:	f8c2 3088 	str.w	r3, [r2, #136]	@ 0x88

  /* Configure the Vector Table location -------------------------------------*/
#if defined(USER_VECT_TAB_ADDRESS)
  SCB->VTOR = VECT_TAB_BASE_ADDRESS | VECT_TAB_OFFSET; /* Vector Table Relocation in Internal SRAM */
#endif /* USER_VECT_TAB_ADDRESS */
}
 8005adc:	bf00      	nop
 8005ade:	46bd      	mov	sp, r7
 8005ae0:	f85d 7b04 	ldr.w	r7, [sp], #4
 8005ae4:	4770      	bx	lr
 8005ae6:	bf00      	nop
 8005ae8:	e000ed00 	.word	0xe000ed00

08005aec <Reset_Handler>:

    .section  .text.Reset_Handler
  .weak  Reset_Handler
  .type  Reset_Handler, %function
Reset_Handler:  
  ldr   sp, =_estack     /* set stack pointer */
 8005aec:	f8df d034 	ldr.w	sp, [pc, #52]	@ 8005b24 <LoopFillZerobss+0xe>
  
/* Call the clock system initialization function.*/
  bl  SystemInit  
 8005af0:	f7ff ffea 	bl	8005ac8 <SystemInit>

/* Copy the data segment initializers from flash to SRAM */  
  ldr r0, =_sdata
 8005af4:	480c      	ldr	r0, [pc, #48]	@ (8005b28 <LoopFillZerobss+0x12>)
  ldr r1, =_edata
 8005af6:	490d      	ldr	r1, [pc, #52]	@ (8005b2c <LoopFillZerobss+0x16>)
  ldr r2, =_sidata
 8005af8:	4a0d      	ldr	r2, [pc, #52]	@ (8005b30 <LoopFillZerobss+0x1a>)
  movs r3, #0
 8005afa:	2300      	movs	r3, #0
  b LoopCopyDataInit
 8005afc:	e002      	b.n	8005b04 <LoopCopyDataInit>

08005afe <CopyDataInit>:

CopyDataInit:
  ldr r4, [r2, r3]
 8005afe:	58d4      	ldr	r4, [r2, r3]
  str r4, [r0, r3]
 8005b00:	50c4      	str	r4, [r0, r3]
  adds r3, r3, #4
 8005b02:	3304      	adds	r3, #4

08005b04 <LoopCopyDataInit>:

LoopCopyDataInit:
  adds r4, r0, r3
 8005b04:	18c4      	adds	r4, r0, r3
  cmp r4, r1
 8005b06:	428c      	cmp	r4, r1
  bcc CopyDataInit
 8005b08:	d3f9      	bcc.n	8005afe <CopyDataInit>
  
/* Zero fill the bss segment. */
  ldr r2, =_sbss
 8005b0a:	4a0a      	ldr	r2, [pc, #40]	@ (8005b34 <LoopFillZerobss+0x1e>)
  ldr r4, =_ebss
 8005b0c:	4c0a      	ldr	r4, [pc, #40]	@ (8005b38 <LoopFillZerobss+0x22>)
  movs r3, #0
 8005b0e:	2300      	movs	r3, #0
  b LoopFillZerobss
 8005b10:	e001      	b.n	8005b16 <LoopFillZerobss>

08005b12 <FillZerobss>:

FillZerobss:
  str  r3, [r2]
 8005b12:	6013      	str	r3, [r2, #0]
  adds r2, r2, #4
 8005b14:	3204      	adds	r2, #4

08005b16 <LoopFillZerobss>:

LoopFillZerobss:
  cmp r2, r4
 8005b16:	42a2      	cmp	r2, r4
  bcc FillZerobss
 8005b18:	d3fb      	bcc.n	8005b12 <FillZerobss>

/* Call static constructors */
    bl __libc_init_array
 8005b1a:	f003 ff5f 	bl	80099dc <__libc_init_array>
/* Call the application's entry point.*/
  bl  main
 8005b1e:	f7fe f93f 	bl	8003da0 <main>
  bx  lr    
 8005b22:	4770      	bx	lr
  ldr   sp, =_estack     /* set stack pointer */
 8005b24:	20020000 	.word	0x20020000
  ldr r0, =_sdata
 8005b28:	20000000 	.word	0x20000000
  ldr r1, =_edata
 8005b2c:	200002d4 	.word	0x200002d4
  ldr r2, =_sidata
 8005b30:	08033a50 	.word	0x08033a50
  ldr r2, =_sbss
 8005b34:	200002d4 	.word	0x200002d4
  ldr r4, =_ebss
 8005b38:	20000d88 	.word	0x20000d88

08005b3c <ADC_IRQHandler>:
 * @retval None       
*/
    .section  .text.Default_Handler,"ax",%progbits
Default_Handler:
Infinite_Loop:
  b  Infinite_Loop
 8005b3c:	e7fe      	b.n	8005b3c <ADC_IRQHandler>
	...

08005b40 <HAL_Init>:
  *         need to ensure that the SysTick time base is always set to 1 millisecond
  *         to have correct HAL operation.
  * @retval HAL status
  */
HAL_StatusTypeDef HAL_Init(void)
{
 8005b40:	b580      	push	{r7, lr}
 8005b42:	af00      	add	r7, sp, #0
  /* Configure Flash prefetch, Instruction cache, Data cache */ 
#if (INSTRUCTION_CACHE_ENABLE != 0U)
  __HAL_FLASH_INSTRUCTION_CACHE_ENABLE();
 8005b44:	4b0e      	ldr	r3, [pc, #56]	@ (8005b80 <HAL_Init+0x40>)
 8005b46:	681b      	ldr	r3, [r3, #0]
 8005b48:	4a0d      	ldr	r2, [pc, #52]	@ (8005b80 <HAL_Init+0x40>)
 8005b4a:	f443 7300 	orr.w	r3, r3, #512	@ 0x200
 8005b4e:	6013      	str	r3, [r2, #0]
#endif /* INSTRUCTION_CACHE_ENABLE */

#if (DATA_CACHE_ENABLE != 0U)
  __HAL_FLASH_DATA_CACHE_ENABLE();
 8005b50:	4b0b      	ldr	r3, [pc, #44]	@ (8005b80 <HAL_Init+0x40>)
 8005b52:	681b      	ldr	r3, [r3, #0]
 8005b54:	4a0a      	ldr	r2, [pc, #40]	@ (8005b80 <HAL_Init+0x40>)
 8005b56:	f443 6380 	orr.w	r3, r3, #1024	@ 0x400
 8005b5a:	6013      	str	r3, [r2, #0]
#endif /* DATA_CACHE_ENABLE */

#if (PREFETCH_ENABLE != 0U)
  __HAL_FLASH_PREFETCH_BUFFER_ENABLE();
 8005b5c:	4b08      	ldr	r3, [pc, #32]	@ (8005b80 <HAL_Init+0x40>)
 8005b5e:	681b      	ldr	r3, [r3, #0]
 8005b60:	4a07      	ldr	r2, [pc, #28]	@ (8005b80 <HAL_Init+0x40>)
 8005b62:	f443 7380 	orr.w	r3, r3, #256	@ 0x100
 8005b66:	6013      	str	r3, [r2, #0]
#endif /* PREFETCH_ENABLE */

  /* Set Interrupt Group Priority */
  HAL_NVIC_SetPriorityGrouping(NVIC_PRIORITYGROUP_4);
 8005b68:	2003      	movs	r0, #3
 8005b6a:	f000 f94f 	bl	8005e0c <HAL_NVIC_SetPriorityGrouping>

  /* Use systick as time base source and configure 1ms tick (default clock after Reset is HSI) */
  HAL_InitTick(TICK_INT_PRIORITY);
 8005b6e:	200f      	movs	r0, #15
 8005b70:	f000 f808 	bl	8005b84 <HAL_InitTick>

  /* Init the low level hardware */
  HAL_MspInit();
 8005b74:	f7ff fd8c 	bl	8005690 <HAL_MspInit>

  /* Return function status */
  return HAL_OK;
 8005b78:	2300      	movs	r3, #0
}
 8005b7a:	4618      	mov	r0, r3
 8005b7c:	bd80      	pop	{r7, pc}
 8005b7e:	bf00      	nop
 8005b80:	40023c00 	.word	0x40023c00

08005b84 <HAL_InitTick>:
  *       implementation  in user file.
  * @param TickPriority Tick interrupt priority.
  * @retval HAL status
  */
__weak HAL_StatusTypeDef HAL_InitTick(uint32_t TickPriority)
{
 8005b84:	b580      	push	{r7, lr}
 8005b86:	b082      	sub	sp, #8
 8005b88:	af00      	add	r7, sp, #0
 8005b8a:	6078      	str	r0, [r7, #4]
  /* Configure the SysTick to have interrupt in 1ms time basis*/
  if (HAL_SYSTICK_Config(SystemCoreClock / (1000U / uwTickFreq)) > 0U)
 8005b8c:	4b12      	ldr	r3, [pc, #72]	@ (8005bd8 <HAL_InitTick+0x54>)
 8005b8e:	681a      	ldr	r2, [r3, #0]
 8005b90:	4b12      	ldr	r3, [pc, #72]	@ (8005bdc <HAL_InitTick+0x58>)
 8005b92:	781b      	ldrb	r3, [r3, #0]
 8005b94:	4619      	mov	r1, r3
 8005b96:	f44f 737a 	mov.w	r3, #1000	@ 0x3e8
 8005b9a:	fbb3 f3f1 	udiv	r3, r3, r1
 8005b9e:	fbb2 f3f3 	udiv	r3, r2, r3
 8005ba2:	4618      	mov	r0, r3
 8005ba4:	f000 f967 	bl	8005e76 <HAL_SYSTICK_Config>
 8005ba8:	4603      	mov	r3, r0
 8005baa:	2b00      	cmp	r3, #0
 8005bac:	d001      	beq.n	8005bb2 <HAL_InitTick+0x2e>
  {
    return HAL_ERROR;
 8005bae:	2301      	movs	r3, #1
 8005bb0:	e00e      	b.n	8005bd0 <HAL_InitTick+0x4c>
  }

  /* Configure the SysTick IRQ priority */
  if (TickPriority < (1UL << __NVIC_PRIO_BITS))
 8005bb2:	687b      	ldr	r3, [r7, #4]
 8005bb4:	2b0f      	cmp	r3, #15
 8005bb6:	d80a      	bhi.n	8005bce <HAL_InitTick+0x4a>
  {
    HAL_NVIC_SetPriority(SysTick_IRQn, TickPriority, 0U);
 8005bb8:	2200      	movs	r2, #0
 8005bba:	6879      	ldr	r1, [r7, #4]
 8005bbc:	f04f 30ff 	mov.w	r0, #4294967295
 8005bc0:	f000 f92f 	bl	8005e22 <HAL_NVIC_SetPriority>
    uwTickPrio = TickPriority;
 8005bc4:	4a06      	ldr	r2, [pc, #24]	@ (8005be0 <HAL_InitTick+0x5c>)
 8005bc6:	687b      	ldr	r3, [r7, #4]
 8005bc8:	6013      	str	r3, [r2, #0]
  {
    return HAL_ERROR;
  }

  /* Return function status */
  return HAL_OK;
 8005bca:	2300      	movs	r3, #0
 8005bcc:	e000      	b.n	8005bd0 <HAL_InitTick+0x4c>
    return HAL_ERROR;
 8005bce:	2301      	movs	r3, #1
}
 8005bd0:	4618      	mov	r0, r3
 8005bd2:	3708      	adds	r7, #8
 8005bd4:	46bd      	mov	sp, r7
 8005bd6:	bd80      	pop	{r7, pc}
 8005bd8:	20000100 	.word	0x20000100
 8005bdc:	20000108 	.word	0x20000108
 8005be0:	20000104 	.word	0x20000104

08005be4 <HAL_IncTick>:
 * @note This function is declared as __weak to be overwritten in case of other 
  *      implementations in user file.
  * @retval None
  */
__weak void HAL_IncTick(void)
{
 8005be4:	b480      	push	{r7}
 8005be6:	af00      	add	r7, sp, #0
  uwTick += uwTickFreq;
 8005be8:	4b06      	ldr	r3, [pc, #24]	@ (8005c04 <HAL_IncTick+0x20>)
 8005bea:	781b      	ldrb	r3, [r3, #0]
 8005bec:	461a      	mov	r2, r3
 8005bee:	4b06      	ldr	r3, [pc, #24]	@ (8005c08 <HAL_IncTick+0x24>)
 8005bf0:	681b      	ldr	r3, [r3, #0]
 8005bf2:	4413      	add	r3, r2
 8005bf4:	4a04      	ldr	r2, [pc, #16]	@ (8005c08 <HAL_IncTick+0x24>)
 8005bf6:	6013      	str	r3, [r2, #0]
}
 8005bf8:	bf00      	nop
 8005bfa:	46bd      	mov	sp, r7
 8005bfc:	f85d 7b04 	ldr.w	r7, [sp], #4
 8005c00:	4770      	bx	lr
 8005c02:	bf00      	nop
 8005c04:	20000108 	.word	0x20000108
 8005c08:	20000c38 	.word	0x20000c38

08005c0c <HAL_GetTick>:
  * @note This function is declared as __weak to be overwritten in case of other 
  *       implementations in user file.
  * @retval tick value
  */
__weak uint32_t HAL_GetTick(void)
{
 8005c0c:	b480      	push	{r7}
 8005c0e:	af00      	add	r7, sp, #0
  return uwTick;
 8005c10:	4b03      	ldr	r3, [pc, #12]	@ (8005c20 <HAL_GetTick+0x14>)
 8005c12:	681b      	ldr	r3, [r3, #0]
}
 8005c14:	4618      	mov	r0, r3
 8005c16:	46bd      	mov	sp, r7
 8005c18:	f85d 7b04 	ldr.w	r7, [sp], #4
 8005c1c:	4770      	bx	lr
 8005c1e:	bf00      	nop
 8005c20:	20000c38 	.word	0x20000c38

08005c24 <HAL_Delay>:
  *       implementations in user file.
  * @param Delay specifies the delay time length, in milliseconds.
  * @retval None
  */
__weak void HAL_Delay(uint32_t Delay)
{
 8005c24:	b580      	push	{r7, lr}
 8005c26:	b084      	sub	sp, #16
 8005c28:	af00      	add	r7, sp, #0
 8005c2a:	6078      	str	r0, [r7, #4]
  uint32_t tickstart = HAL_GetTick();
 8005c2c:	f7ff ffee 	bl	8005c0c <HAL_GetTick>
 8005c30:	60b8      	str	r0, [r7, #8]
  uint32_t wait = Delay;
 8005c32:	687b      	ldr	r3, [r7, #4]
 8005c34:	60fb      	str	r3, [r7, #12]

  /* Add a freq to guarantee minimum wait */
  if (wait < HAL_MAX_DELAY)
 8005c36:	68fb      	ldr	r3, [r7, #12]
 8005c38:	f1b3 3fff 	cmp.w	r3, #4294967295
 8005c3c:	d005      	beq.n	8005c4a <HAL_Delay+0x26>
  {
    wait += (uint32_t)(uwTickFreq);
 8005c3e:	4b0a      	ldr	r3, [pc, #40]	@ (8005c68 <HAL_Delay+0x44>)
 8005c40:	781b      	ldrb	r3, [r3, #0]
 8005c42:	461a      	mov	r2, r3
 8005c44:	68fb      	ldr	r3, [r7, #12]
 8005c46:	4413      	add	r3, r2
 8005c48:	60fb      	str	r3, [r7, #12]
  }

  while((HAL_GetTick() - tickstart) < wait)
 8005c4a:	bf00      	nop
 8005c4c:	f7ff ffde 	bl	8005c0c <HAL_GetTick>
 8005c50:	4602      	mov	r2, r0
 8005c52:	68bb      	ldr	r3, [r7, #8]
 8005c54:	1ad3      	subs	r3, r2, r3
 8005c56:	68fa      	ldr	r2, [r7, #12]
 8005c58:	429a      	cmp	r2, r3
 8005c5a:	d8f7      	bhi.n	8005c4c <HAL_Delay+0x28>
  {
  }
}
 8005c5c:	bf00      	nop
 8005c5e:	bf00      	nop
 8005c60:	3710      	adds	r7, #16
 8005c62:	46bd      	mov	sp, r7
 8005c64:	bd80      	pop	{r7, pc}
 8005c66:	bf00      	nop
 8005c68:	20000108 	.word	0x20000108

08005c6c <__NVIC_SetPriorityGrouping>:
           In case of a conflict between priority grouping and available
           priority bits (__NVIC_PRIO_BITS), the smallest possible priority group is set.
  \param [in]      PriorityGroup  Priority grouping field.
 */
__STATIC_INLINE void __NVIC_SetPriorityGrouping(uint32_t PriorityGroup)
{
 8005c6c:	b480      	push	{r7}
 8005c6e:	b085      	sub	sp, #20
 8005c70:	af00      	add	r7, sp, #0
 8005c72:	6078      	str	r0, [r7, #4]
  uint32_t reg_value;
  uint32_t PriorityGroupTmp = (PriorityGroup & (uint32_t)0x07UL);             /* only values 0..7 are used          */
 8005c74:	687b      	ldr	r3, [r7, #4]
 8005c76:	f003 0307 	and.w	r3, r3, #7
 8005c7a:	60fb      	str	r3, [r7, #12]

  reg_value  =  SCB->AIRCR;                                                   /* read old register configuration    */
 8005c7c:	4b0c      	ldr	r3, [pc, #48]	@ (8005cb0 <__NVIC_SetPriorityGrouping+0x44>)
 8005c7e:	68db      	ldr	r3, [r3, #12]
 8005c80:	60bb      	str	r3, [r7, #8]
  reg_value &= ~((uint32_t)(SCB_AIRCR_VECTKEY_Msk | SCB_AIRCR_PRIGROUP_Msk)); /* clear bits to change               */
 8005c82:	68ba      	ldr	r2, [r7, #8]
 8005c84:	f64f 03ff 	movw	r3, #63743	@ 0xf8ff
 8005c88:	4013      	ands	r3, r2
 8005c8a:	60bb      	str	r3, [r7, #8]
  reg_value  =  (reg_value                                   |
                ((uint32_t)0x5FAUL << SCB_AIRCR_VECTKEY_Pos) |
                (PriorityGroupTmp << SCB_AIRCR_PRIGROUP_Pos)  );              /* Insert write key and priority group */
 8005c8c:	68fb      	ldr	r3, [r7, #12]
 8005c8e:	021a      	lsls	r2, r3, #8
                ((uint32_t)0x5FAUL << SCB_AIRCR_VECTKEY_Pos) |
 8005c90:	68bb      	ldr	r3, [r7, #8]
 8005c92:	4313      	orrs	r3, r2
  reg_value  =  (reg_value                                   |
 8005c94:	f043 63bf 	orr.w	r3, r3, #100139008	@ 0x5f80000
 8005c98:	f443 3300 	orr.w	r3, r3, #131072	@ 0x20000
 8005c9c:	60bb      	str	r3, [r7, #8]
  SCB->AIRCR =  reg_value;
 8005c9e:	4a04      	ldr	r2, [pc, #16]	@ (8005cb0 <__NVIC_SetPriorityGrouping+0x44>)
 8005ca0:	68bb      	ldr	r3, [r7, #8]
 8005ca2:	60d3      	str	r3, [r2, #12]
}
 8005ca4:	bf00      	nop
 8005ca6:	3714      	adds	r7, #20
 8005ca8:	46bd      	mov	sp, r7
 8005caa:	f85d 7b04 	ldr.w	r7, [sp], #4
 8005cae:	4770      	bx	lr
 8005cb0:	e000ed00 	.word	0xe000ed00

08005cb4 <__NVIC_GetPriorityGrouping>:
  \brief   Get Priority Grouping
  \details Reads the priority grouping field from the NVIC Interrupt Controller.
  \return                Priority grouping field (SCB->AIRCR [10:8] PRIGROUP field).
 */
__STATIC_INLINE uint32_t __NVIC_GetPriorityGrouping(void)
{
 8005cb4:	b480      	push	{r7}
 8005cb6:	af00      	add	r7, sp, #0
  return ((uint32_t)((SCB->AIRCR & SCB_AIRCR_PRIGROUP_Msk) >> SCB_AIRCR_PRIGROUP_Pos));
 8005cb8:	4b04      	ldr	r3, [pc, #16]	@ (8005ccc <__NVIC_GetPriorityGrouping+0x18>)
 8005cba:	68db      	ldr	r3, [r3, #12]
 8005cbc:	0a1b      	lsrs	r3, r3, #8
 8005cbe:	f003 0307 	and.w	r3, r3, #7
}
 8005cc2:	4618      	mov	r0, r3
 8005cc4:	46bd      	mov	sp, r7
 8005cc6:	f85d 7b04 	ldr.w	r7, [sp], #4
 8005cca:	4770      	bx	lr
 8005ccc:	e000ed00 	.word	0xe000ed00

08005cd0 <__NVIC_EnableIRQ>:
  \details Enables a device specific interrupt in the NVIC interrupt controller.
  \param [in]      IRQn  Device specific interrupt number.
  \note    IRQn must not be negative.
 */
__STATIC_INLINE void __NVIC_EnableIRQ(IRQn_Type IRQn)
{
 8005cd0:	b480      	push	{r7}
 8005cd2:	b083      	sub	sp, #12
 8005cd4:	af00      	add	r7, sp, #0
 8005cd6:	4603      	mov	r3, r0
 8005cd8:	71fb      	strb	r3, [r7, #7]
  if ((int32_t)(IRQn) >= 0)
 8005cda:	f997 3007 	ldrsb.w	r3, [r7, #7]
 8005cde:	2b00      	cmp	r3, #0
 8005ce0:	db0b      	blt.n	8005cfa <__NVIC_EnableIRQ+0x2a>
  {
    __COMPILER_BARRIER();
    NVIC->ISER[(((uint32_t)IRQn) >> 5UL)] = (uint32_t)(1UL << (((uint32_t)IRQn) & 0x1FUL));
 8005ce2:	79fb      	ldrb	r3, [r7, #7]
 8005ce4:	f003 021f 	and.w	r2, r3, #31
 8005ce8:	4907      	ldr	r1, [pc, #28]	@ (8005d08 <__NVIC_EnableIRQ+0x38>)
 8005cea:	f997 3007 	ldrsb.w	r3, [r7, #7]
 8005cee:	095b      	lsrs	r3, r3, #5
 8005cf0:	2001      	movs	r0, #1
 8005cf2:	fa00 f202 	lsl.w	r2, r0, r2
 8005cf6:	f841 2023 	str.w	r2, [r1, r3, lsl #2]
    __COMPILER_BARRIER();
  }
}
 8005cfa:	bf00      	nop
 8005cfc:	370c      	adds	r7, #12
 8005cfe:	46bd      	mov	sp, r7
 8005d00:	f85d 7b04 	ldr.w	r7, [sp], #4
 8005d04:	4770      	bx	lr
 8005d06:	bf00      	nop
 8005d08:	e000e100 	.word	0xe000e100

08005d0c <__NVIC_SetPriority>:
  \param [in]      IRQn  Interrupt number.
  \param [in]  priority  Priority to set.
  \note    The priority cannot be set for every processor exception.
 */
__STATIC_INLINE void __NVIC_SetPriority(IRQn_Type IRQn, uint32_t priority)
{
 8005d0c:	b480      	push	{r7}
 8005d0e:	b083      	sub	sp, #12
 8005d10:	af00      	add	r7, sp, #0
 8005d12:	4603      	mov	r3, r0
 8005d14:	6039      	str	r1, [r7, #0]
 8005d16:	71fb      	strb	r3, [r7, #7]
  if ((int32_t)(IRQn) >= 0)
 8005d18:	f997 3007 	ldrsb.w	r3, [r7, #7]
 8005d1c:	2b00      	cmp	r3, #0
 8005d1e:	db0a      	blt.n	8005d36 <__NVIC_SetPriority+0x2a>
  {
    NVIC->IP[((uint32_t)IRQn)]               = (uint8_t)((priority << (8U - __NVIC_PRIO_BITS)) & (uint32_t)0xFFUL);
 8005d20:	683b      	ldr	r3, [r7, #0]
 8005d22:	b2da      	uxtb	r2, r3
 8005d24:	490c      	ldr	r1, [pc, #48]	@ (8005d58 <__NVIC_SetPriority+0x4c>)
 8005d26:	f997 3007 	ldrsb.w	r3, [r7, #7]
 8005d2a:	0112      	lsls	r2, r2, #4
 8005d2c:	b2d2      	uxtb	r2, r2
 8005d2e:	440b      	add	r3, r1
 8005d30:	f883 2300 	strb.w	r2, [r3, #768]	@ 0x300
  }
  else
  {
    SCB->SHP[(((uint32_t)IRQn) & 0xFUL)-4UL] = (uint8_t)((priority << (8U - __NVIC_PRIO_BITS)) & (uint32_t)0xFFUL);
  }
}
 8005d34:	e00a      	b.n	8005d4c <__NVIC_SetPriority+0x40>
    SCB->SHP[(((uint32_t)IRQn) & 0xFUL)-4UL] = (uint8_t)((priority << (8U - __NVIC_PRIO_BITS)) & (uint32_t)0xFFUL);
 8005d36:	683b      	ldr	r3, [r7, #0]
 8005d38:	b2da      	uxtb	r2, r3
 8005d3a:	4908      	ldr	r1, [pc, #32]	@ (8005d5c <__NVIC_SetPriority+0x50>)
 8005d3c:	79fb      	ldrb	r3, [r7, #7]
 8005d3e:	f003 030f 	and.w	r3, r3, #15
 8005d42:	3b04      	subs	r3, #4
 8005d44:	0112      	lsls	r2, r2, #4
 8005d46:	b2d2      	uxtb	r2, r2
 8005d48:	440b      	add	r3, r1
 8005d4a:	761a      	strb	r2, [r3, #24]
}
 8005d4c:	bf00      	nop
 8005d4e:	370c      	adds	r7, #12
 8005d50:	46bd      	mov	sp, r7
 8005d52:	f85d 7b04 	ldr.w	r7, [sp], #4
 8005d56:	4770      	bx	lr
 8005d58:	e000e100 	.word	0xe000e100
 8005d5c:	e000ed00 	.word	0xe000ed00

08005d60 <NVIC_EncodePriority>:
  \param [in]   PreemptPriority  Preemptive priority value (starting from 0).
  \param [in]       SubPriority  Subpriority value (starting from 0).
  \return                        Encoded priority. Value can be used in the function \ref NVIC_SetPriority().
 */
__STATIC_INLINE uint32_t NVIC_EncodePriority (uint32_t PriorityGroup, uint32_t PreemptPriority, uint32_t SubPriority)
{
 8005d60:	b480      	push	{r7}
 8005d62:	b089      	sub	sp, #36	@ 0x24
 8005d64:	af00      	add	r7, sp, #0
 8005d66:	60f8      	str	r0, [r7, #12]
 8005d68:	60b9      	str	r1, [r7, #8]
 8005d6a:	607a      	str	r2, [r7, #4]
  uint32_t PriorityGroupTmp = (PriorityGroup & (uint32_t)0x07UL);   /* only values 0..7 are used          */
 8005d6c:	68fb      	ldr	r3, [r7, #12]
 8005d6e:	f003 0307 	and.w	r3, r3, #7
 8005d72:	61fb      	str	r3, [r7, #28]
  uint32_t PreemptPriorityBits;
  uint32_t SubPriorityBits;

  PreemptPriorityBits = ((7UL - PriorityGroupTmp) > (uint32_t)(__NVIC_PRIO_BITS)) ? (uint32_t)(__NVIC_PRIO_BITS) : (uint32_t)(7UL - PriorityGroupTmp);
 8005d74:	69fb      	ldr	r3, [r7, #28]
 8005d76:	f1c3 0307 	rsb	r3, r3, #7
 8005d7a:	2b04      	cmp	r3, #4
 8005d7c:	bf28      	it	cs
 8005d7e:	2304      	movcs	r3, #4
 8005d80:	61bb      	str	r3, [r7, #24]
  SubPriorityBits     = ((PriorityGroupTmp + (uint32_t)(__NVIC_PRIO_BITS)) < (uint32_t)7UL) ? (uint32_t)0UL : (uint32_t)((PriorityGroupTmp - 7UL) + (uint32_t)(__NVIC_PRIO_BITS));
 8005d82:	69fb      	ldr	r3, [r7, #28]
 8005d84:	3304      	adds	r3, #4
 8005d86:	2b06      	cmp	r3, #6
 8005d88:	d902      	bls.n	8005d90 <NVIC_EncodePriority+0x30>
 8005d8a:	69fb      	ldr	r3, [r7, #28]
 8005d8c:	3b03      	subs	r3, #3
 8005d8e:	e000      	b.n	8005d92 <NVIC_EncodePriority+0x32>
 8005d90:	2300      	movs	r3, #0
 8005d92:	617b      	str	r3, [r7, #20]

  return (
           ((PreemptPriority & (uint32_t)((1UL << (PreemptPriorityBits)) - 1UL)) << SubPriorityBits) |
 8005d94:	f04f 32ff 	mov.w	r2, #4294967295
 8005d98:	69bb      	ldr	r3, [r7, #24]
 8005d9a:	fa02 f303 	lsl.w	r3, r2, r3
 8005d9e:	43da      	mvns	r2, r3
 8005da0:	68bb      	ldr	r3, [r7, #8]
 8005da2:	401a      	ands	r2, r3
 8005da4:	697b      	ldr	r3, [r7, #20]
 8005da6:	409a      	lsls	r2, r3
           ((SubPriority     & (uint32_t)((1UL << (SubPriorityBits    )) - 1UL)))
 8005da8:	f04f 31ff 	mov.w	r1, #4294967295
 8005dac:	697b      	ldr	r3, [r7, #20]
 8005dae:	fa01 f303 	lsl.w	r3, r1, r3
 8005db2:	43d9      	mvns	r1, r3
 8005db4:	687b      	ldr	r3, [r7, #4]
 8005db6:	400b      	ands	r3, r1
           ((PreemptPriority & (uint32_t)((1UL << (PreemptPriorityBits)) - 1UL)) << SubPriorityBits) |
 8005db8:	4313      	orrs	r3, r2
         );
}
 8005dba:	4618      	mov	r0, r3
 8005dbc:	3724      	adds	r7, #36	@ 0x24
 8005dbe:	46bd      	mov	sp, r7
 8005dc0:	f85d 7b04 	ldr.w	r7, [sp], #4
 8005dc4:	4770      	bx	lr
	...

08005dc8 <SysTick_Config>:
  \note    When the variable <b>__Vendor_SysTickConfig</b> is set to 1, then the
           function <b>SysTick_Config</b> is not included. In this case, the file <b><i>device</i>.h</b>
           must contain a vendor-specific implementation of this function.
 */
__STATIC_INLINE uint32_t SysTick_Config(uint32_t ticks)
{
 8005dc8:	b580      	push	{r7, lr}
 8005dca:	b082      	sub	sp, #8
 8005dcc:	af00      	add	r7, sp, #0
 8005dce:	6078      	str	r0, [r7, #4]
  if ((ticks - 1UL) > SysTick_LOAD_RELOAD_Msk)
 8005dd0:	687b      	ldr	r3, [r7, #4]
 8005dd2:	3b01      	subs	r3, #1
 8005dd4:	f1b3 7f80 	cmp.w	r3, #16777216	@ 0x1000000
 8005dd8:	d301      	bcc.n	8005dde <SysTick_Config+0x16>
  {
    return (1UL);                                                   /* Reload value impossible */
 8005dda:	2301      	movs	r3, #1
 8005ddc:	e00f      	b.n	8005dfe <SysTick_Config+0x36>
  }

  SysTick->LOAD  = (uint32_t)(ticks - 1UL);                         /* set reload register */
 8005dde:	4a0a      	ldr	r2, [pc, #40]	@ (8005e08 <SysTick_Config+0x40>)
 8005de0:	687b      	ldr	r3, [r7, #4]
 8005de2:	3b01      	subs	r3, #1
 8005de4:	6053      	str	r3, [r2, #4]
  NVIC_SetPriority (SysTick_IRQn, (1UL << __NVIC_PRIO_BITS) - 1UL); /* set Priority for Systick Interrupt */
 8005de6:	210f      	movs	r1, #15
 8005de8:	f04f 30ff 	mov.w	r0, #4294967295
 8005dec:	f7ff ff8e 	bl	8005d0c <__NVIC_SetPriority>
  SysTick->VAL   = 0UL;                                             /* Load the SysTick Counter Value */
 8005df0:	4b05      	ldr	r3, [pc, #20]	@ (8005e08 <SysTick_Config+0x40>)
 8005df2:	2200      	movs	r2, #0
 8005df4:	609a      	str	r2, [r3, #8]
  SysTick->CTRL  = SysTick_CTRL_CLKSOURCE_Msk |
 8005df6:	4b04      	ldr	r3, [pc, #16]	@ (8005e08 <SysTick_Config+0x40>)
 8005df8:	2207      	movs	r2, #7
 8005dfa:	601a      	str	r2, [r3, #0]
                   SysTick_CTRL_TICKINT_Msk   |
                   SysTick_CTRL_ENABLE_Msk;                         /* Enable SysTick IRQ and SysTick Timer */
  return (0UL);                                                     /* Function successful */
 8005dfc:	2300      	movs	r3, #0
}
 8005dfe:	4618      	mov	r0, r3
 8005e00:	3708      	adds	r7, #8
 8005e02:	46bd      	mov	sp, r7
 8005e04:	bd80      	pop	{r7, pc}
 8005e06:	bf00      	nop
 8005e08:	e000e010 	.word	0xe000e010

08005e0c <HAL_NVIC_SetPriorityGrouping>:
  * @note   When the NVIC_PriorityGroup_0 is selected, IRQ preemption is no more possible. 
  *         The pending IRQ priority will be managed only by the subpriority. 
  * @retval None
  */
void HAL_NVIC_SetPriorityGrouping(uint32_t PriorityGroup)
{
 8005e0c:	b580      	push	{r7, lr}
 8005e0e:	b082      	sub	sp, #8
 8005e10:	af00      	add	r7, sp, #0
 8005e12:	6078      	str	r0, [r7, #4]
  /* Check the parameters */
  assert_param(IS_NVIC_PRIORITY_GROUP(PriorityGroup));
  
  /* Set the PRIGROUP[10:8] bits according to the PriorityGroup parameter value */
  NVIC_SetPriorityGrouping(PriorityGroup);
 8005e14:	6878      	ldr	r0, [r7, #4]
 8005e16:	f7ff ff29 	bl	8005c6c <__NVIC_SetPriorityGrouping>
}
 8005e1a:	bf00      	nop
 8005e1c:	3708      	adds	r7, #8
 8005e1e:	46bd      	mov	sp, r7
 8005e20:	bd80      	pop	{r7, pc}

08005e22 <HAL_NVIC_SetPriority>:
  *         This parameter can be a value between 0 and 15
  *         A lower priority value indicates a higher priority.          
  * @retval None
  */
void HAL_NVIC_SetPriority(IRQn_Type IRQn, uint32_t PreemptPriority, uint32_t SubPriority)
{ 
 8005e22:	b580      	push	{r7, lr}
 8005e24:	b086      	sub	sp, #24
 8005e26:	af00      	add	r7, sp, #0
 8005e28:	4603      	mov	r3, r0
 8005e2a:	60b9      	str	r1, [r7, #8]
 8005e2c:	607a      	str	r2, [r7, #4]
 8005e2e:	73fb      	strb	r3, [r7, #15]
  uint32_t prioritygroup = 0x00U;
 8005e30:	2300      	movs	r3, #0
 8005e32:	617b      	str	r3, [r7, #20]
  
  /* Check the parameters */
  assert_param(IS_NVIC_SUB_PRIORITY(SubPriority));
  assert_param(IS_NVIC_PREEMPTION_PRIORITY(PreemptPriority));
  
  prioritygroup = NVIC_GetPriorityGrouping();
 8005e34:	f7ff ff3e 	bl	8005cb4 <__NVIC_GetPriorityGrouping>
 8005e38:	6178      	str	r0, [r7, #20]
  
  NVIC_SetPriority(IRQn, NVIC_EncodePriority(prioritygroup, PreemptPriority, SubPriority));
 8005e3a:	687a      	ldr	r2, [r7, #4]
 8005e3c:	68b9      	ldr	r1, [r7, #8]
 8005e3e:	6978      	ldr	r0, [r7, #20]
 8005e40:	f7ff ff8e 	bl	8005d60 <NVIC_EncodePriority>
 8005e44:	4602      	mov	r2, r0
 8005e46:	f997 300f 	ldrsb.w	r3, [r7, #15]
 8005e4a:	4611      	mov	r1, r2
 8005e4c:	4618      	mov	r0, r3
 8005e4e:	f7ff ff5d 	bl	8005d0c <__NVIC_SetPriority>
}
 8005e52:	bf00      	nop
 8005e54:	3718      	adds	r7, #24
 8005e56:	46bd      	mov	sp, r7
 8005e58:	bd80      	pop	{r7, pc}

08005e5a <HAL_NVIC_EnableIRQ>:
  *         This parameter can be an enumerator of IRQn_Type enumeration
  *         (For the complete STM32 Devices IRQ Channels list, please refer to the appropriate CMSIS device file (stm32f4xxxx.h))
  * @retval None
  */
void HAL_NVIC_EnableIRQ(IRQn_Type IRQn)
{
 8005e5a:	b580      	push	{r7, lr}
 8005e5c:	b082      	sub	sp, #8
 8005e5e:	af00      	add	r7, sp, #0
 8005e60:	4603      	mov	r3, r0
 8005e62:	71fb      	strb	r3, [r7, #7]
  /* Check the parameters */
  assert_param(IS_NVIC_DEVICE_IRQ(IRQn));
  
  /* Enable interrupt */
  NVIC_EnableIRQ(IRQn);
 8005e64:	f997 3007 	ldrsb.w	r3, [r7, #7]
 8005e68:	4618      	mov	r0, r3
 8005e6a:	f7ff ff31 	bl	8005cd0 <__NVIC_EnableIRQ>
}
 8005e6e:	bf00      	nop
 8005e70:	3708      	adds	r7, #8
 8005e72:	46bd      	mov	sp, r7
 8005e74:	bd80      	pop	{r7, pc}

08005e76 <HAL_SYSTICK_Config>:
  * @param  TicksNumb Specifies the ticks Number of ticks between two interrupts.
  * @retval status:  - 0  Function succeeded.
  *                  - 1  Function failed.
  */
uint32_t HAL_SYSTICK_Config(uint32_t TicksNumb)
{
 8005e76:	b580      	push	{r7, lr}
 8005e78:	b082      	sub	sp, #8
 8005e7a:	af00      	add	r7, sp, #0
 8005e7c:	6078      	str	r0, [r7, #4]
   return SysTick_Config(TicksNumb);
 8005e7e:	6878      	ldr	r0, [r7, #4]
 8005e80:	f7ff ffa2 	bl	8005dc8 <SysTick_Config>
 8005e84:	4603      	mov	r3, r0
}
 8005e86:	4618      	mov	r0, r3
 8005e88:	3708      	adds	r7, #8
 8005e8a:	46bd      	mov	sp, r7
 8005e8c:	bd80      	pop	{r7, pc}

08005e8e <HAL_DMA_Abort>:
  *        and the Stream will be effectively disabled only after the transfer of
  *        this single data is finished.  
  * @retval HAL status
  */
HAL_StatusTypeDef HAL_DMA_Abort(DMA_HandleTypeDef *hdma)
{
 8005e8e:	b580      	push	{r7, lr}
 8005e90:	b084      	sub	sp, #16
 8005e92:	af00      	add	r7, sp, #0
 8005e94:	6078      	str	r0, [r7, #4]
  /* calculate DMA base and stream number */
  DMA_Base_Registers *regs = (DMA_Base_Registers *)hdma->StreamBaseAddress;
 8005e96:	687b      	ldr	r3, [r7, #4]
 8005e98:	6d9b      	ldr	r3, [r3, #88]	@ 0x58
 8005e9a:	60fb      	str	r3, [r7, #12]
  
  uint32_t tickstart = HAL_GetTick();
 8005e9c:	f7ff feb6 	bl	8005c0c <HAL_GetTick>
 8005ea0:	60b8      	str	r0, [r7, #8]
  
  if(hdma->State != HAL_DMA_STATE_BUSY)
 8005ea2:	687b      	ldr	r3, [r7, #4]
 8005ea4:	f893 3035 	ldrb.w	r3, [r3, #53]	@ 0x35
 8005ea8:	b2db      	uxtb	r3, r3
 8005eaa:	2b02      	cmp	r3, #2
 8005eac:	d008      	beq.n	8005ec0 <HAL_DMA_Abort+0x32>
  {
    hdma->ErrorCode = HAL_DMA_ERROR_NO_XFER;
 8005eae:	687b      	ldr	r3, [r7, #4]
 8005eb0:	2280      	movs	r2, #128	@ 0x80
 8005eb2:	655a      	str	r2, [r3, #84]	@ 0x54
    
    /* Process Unlocked */
    __HAL_UNLOCK(hdma);
 8005eb4:	687b      	ldr	r3, [r7, #4]
 8005eb6:	2200      	movs	r2, #0
 8005eb8:	f883 2034 	strb.w	r2, [r3, #52]	@ 0x34
    
    return HAL_ERROR;
 8005ebc:	2301      	movs	r3, #1
 8005ebe:	e052      	b.n	8005f66 <HAL_DMA_Abort+0xd8>
  }
  else
  {
    /* Disable all the transfer interrupts */
    hdma->Instance->CR  &= ~(DMA_IT_TC | DMA_IT_TE | DMA_IT_DME);
 8005ec0:	687b      	ldr	r3, [r7, #4]
 8005ec2:	681b      	ldr	r3, [r3, #0]
 8005ec4:	681a      	ldr	r2, [r3, #0]
 8005ec6:	687b      	ldr	r3, [r7, #4]
 8005ec8:	681b      	ldr	r3, [r3, #0]
 8005eca:	f022 0216 	bic.w	r2, r2, #22
 8005ece:	601a      	str	r2, [r3, #0]
    hdma->Instance->FCR &= ~(DMA_IT_FE);
 8005ed0:	687b      	ldr	r3, [r7, #4]
 8005ed2:	681b      	ldr	r3, [r3, #0]
 8005ed4:	695a      	ldr	r2, [r3, #20]
 8005ed6:	687b      	ldr	r3, [r7, #4]
 8005ed8:	681b      	ldr	r3, [r3, #0]
 8005eda:	f022 0280 	bic.w	r2, r2, #128	@ 0x80
 8005ede:	615a      	str	r2, [r3, #20]
    
    if((hdma->XferHalfCpltCallback != NULL) || (hdma->XferM1HalfCpltCallback != NULL))
 8005ee0:	687b      	ldr	r3, [r7, #4]
 8005ee2:	6c1b      	ldr	r3, [r3, #64]	@ 0x40
 8005ee4:	2b00      	cmp	r3, #0
 8005ee6:	d103      	bne.n	8005ef0 <HAL_DMA_Abort+0x62>
 8005ee8:	687b      	ldr	r3, [r7, #4]
 8005eea:	6c9b      	ldr	r3, [r3, #72]	@ 0x48
 8005eec:	2b00      	cmp	r3, #0
 8005eee:	d007      	beq.n	8005f00 <HAL_DMA_Abort+0x72>
    {
      hdma->Instance->CR  &= ~(DMA_IT_HT);
 8005ef0:	687b      	ldr	r3, [r7, #4]
 8005ef2:	681b      	ldr	r3, [r3, #0]
 8005ef4:	681a      	ldr	r2, [r3, #0]
 8005ef6:	687b      	ldr	r3, [r7, #4]
 8005ef8:	681b      	ldr	r3, [r3, #0]
 8005efa:	f022 0208 	bic.w	r2, r2, #8
 8005efe:	601a      	str	r2, [r3, #0]
    }
    
    /* Disable the stream */
    __HAL_DMA_DISABLE(hdma);
 8005f00:	687b      	ldr	r3, [r7, #4]
 8005f02:	681b      	ldr	r3, [r3, #0]
 8005f04:	681a      	ldr	r2, [r3, #0]
 8005f06:	687b      	ldr	r3, [r7, #4]
 8005f08:	681b      	ldr	r3, [r3, #0]
 8005f0a:	f022 0201 	bic.w	r2, r2, #1
 8005f0e:	601a      	str	r2, [r3, #0]
    
    /* Check if the DMA Stream is effectively disabled */
    while((hdma->Instance->CR & DMA_SxCR_EN) != RESET)
 8005f10:	e013      	b.n	8005f3a <HAL_DMA_Abort+0xac>
    {
      /* Check for the Timeout */
      if((HAL_GetTick() - tickstart ) > HAL_TIMEOUT_DMA_ABORT)
 8005f12:	f7ff fe7b 	bl	8005c0c <HAL_GetTick>
 8005f16:	4602      	mov	r2, r0
 8005f18:	68bb      	ldr	r3, [r7, #8]
 8005f1a:	1ad3      	subs	r3, r2, r3
 8005f1c:	2b05      	cmp	r3, #5
 8005f1e:	d90c      	bls.n	8005f3a <HAL_DMA_Abort+0xac>
      {
        /* Update error code */
        hdma->ErrorCode = HAL_DMA_ERROR_TIMEOUT;
 8005f20:	687b      	ldr	r3, [r7, #4]
 8005f22:	2220      	movs	r2, #32
 8005f24:	655a      	str	r2, [r3, #84]	@ 0x54
        
        /* Change the DMA state */
        hdma->State = HAL_DMA_STATE_TIMEOUT;
 8005f26:	687b      	ldr	r3, [r7, #4]
 8005f28:	2203      	movs	r2, #3
 8005f2a:	f883 2035 	strb.w	r2, [r3, #53]	@ 0x35
        
        /* Process Unlocked */
        __HAL_UNLOCK(hdma);
 8005f2e:	687b      	ldr	r3, [r7, #4]
 8005f30:	2200      	movs	r2, #0
 8005f32:	f883 2034 	strb.w	r2, [r3, #52]	@ 0x34
        
        return HAL_TIMEOUT;
 8005f36:	2303      	movs	r3, #3
 8005f38:	e015      	b.n	8005f66 <HAL_DMA_Abort+0xd8>
    while((hdma->Instance->CR & DMA_SxCR_EN) != RESET)
 8005f3a:	687b      	ldr	r3, [r7, #4]
 8005f3c:	681b      	ldr	r3, [r3, #0]
 8005f3e:	681b      	ldr	r3, [r3, #0]
 8005f40:	f003 0301 	and.w	r3, r3, #1
 8005f44:	2b00      	cmp	r3, #0
 8005f46:	d1e4      	bne.n	8005f12 <HAL_DMA_Abort+0x84>
      }
    }
    
    /* Clear all interrupt flags at correct offset within the register */
    regs->IFCR = 0x3FU << hdma->StreamIndex;
 8005f48:	687b      	ldr	r3, [r7, #4]
 8005f4a:	6ddb      	ldr	r3, [r3, #92]	@ 0x5c
 8005f4c:	223f      	movs	r2, #63	@ 0x3f
 8005f4e:	409a      	lsls	r2, r3
 8005f50:	68fb      	ldr	r3, [r7, #12]
 8005f52:	609a      	str	r2, [r3, #8]
    
    /* Change the DMA state*/
    hdma->State = HAL_DMA_STATE_READY;
 8005f54:	687b      	ldr	r3, [r7, #4]
 8005f56:	2201      	movs	r2, #1
 8005f58:	f883 2035 	strb.w	r2, [r3, #53]	@ 0x35
    
    /* Process Unlocked */
    __HAL_UNLOCK(hdma);
 8005f5c:	687b      	ldr	r3, [r7, #4]
 8005f5e:	2200      	movs	r2, #0
 8005f60:	f883 2034 	strb.w	r2, [r3, #52]	@ 0x34
  }
  return HAL_OK;
 8005f64:	2300      	movs	r3, #0
}
 8005f66:	4618      	mov	r0, r3
 8005f68:	3710      	adds	r7, #16
 8005f6a:	46bd      	mov	sp, r7
 8005f6c:	bd80      	pop	{r7, pc}

08005f6e <HAL_DMA_Abort_IT>:
  * @param  hdma   pointer to a DMA_HandleTypeDef structure that contains
  *                 the configuration information for the specified DMA Stream.
  * @retval HAL status
  */
HAL_StatusTypeDef HAL_DMA_Abort_IT(DMA_HandleTypeDef *hdma)
{
 8005f6e:	b480      	push	{r7}
 8005f70:	b083      	sub	sp, #12
 8005f72:	af00      	add	r7, sp, #0
 8005f74:	6078      	str	r0, [r7, #4]
  if(hdma->State != HAL_DMA_STATE_BUSY)
 8005f76:	687b      	ldr	r3, [r7, #4]
 8005f78:	f893 3035 	ldrb.w	r3, [r3, #53]	@ 0x35
 8005f7c:	b2db      	uxtb	r3, r3
 8005f7e:	2b02      	cmp	r3, #2
 8005f80:	d004      	beq.n	8005f8c <HAL_DMA_Abort_IT+0x1e>
  {
    hdma->ErrorCode = HAL_DMA_ERROR_NO_XFER;
 8005f82:	687b      	ldr	r3, [r7, #4]
 8005f84:	2280      	movs	r2, #128	@ 0x80
 8005f86:	655a      	str	r2, [r3, #84]	@ 0x54
    return HAL_ERROR;
 8005f88:	2301      	movs	r3, #1
 8005f8a:	e00c      	b.n	8005fa6 <HAL_DMA_Abort_IT+0x38>
  }
  else
  {
    /* Set Abort State  */
    hdma->State = HAL_DMA_STATE_ABORT;
 8005f8c:	687b      	ldr	r3, [r7, #4]
 8005f8e:	2205      	movs	r2, #5
 8005f90:	f883 2035 	strb.w	r2, [r3, #53]	@ 0x35
    
    /* Disable the stream */
    __HAL_DMA_DISABLE(hdma);
 8005f94:	687b      	ldr	r3, [r7, #4]
 8005f96:	681b      	ldr	r3, [r3, #0]
 8005f98:	681a      	ldr	r2, [r3, #0]
 8005f9a:	687b      	ldr	r3, [r7, #4]
 8005f9c:	681b      	ldr	r3, [r3, #0]
 8005f9e:	f022 0201 	bic.w	r2, r2, #1
 8005fa2:	601a      	str	r2, [r3, #0]
  }

  return HAL_OK;
 8005fa4:	2300      	movs	r3, #0
}
 8005fa6:	4618      	mov	r0, r3
 8005fa8:	370c      	adds	r7, #12
 8005faa:	46bd      	mov	sp, r7
 8005fac:	f85d 7b04 	ldr.w	r7, [sp], #4
 8005fb0:	4770      	bx	lr
	...

08005fb4 <HAL_GPIO_Init>:
  * @param  GPIO_Init pointer to a GPIO_InitTypeDef structure that contains
  *         the configuration information for the specified GPIO peripheral.
  * @retval None
  */
void HAL_GPIO_Init(GPIO_TypeDef  *GPIOx, GPIO_InitTypeDef *GPIO_Init)
{
 8005fb4:	b480      	push	{r7}
 8005fb6:	b089      	sub	sp, #36	@ 0x24
 8005fb8:	af00      	add	r7, sp, #0
 8005fba:	6078      	str	r0, [r7, #4]
 8005fbc:	6039      	str	r1, [r7, #0]
  uint32_t position;
  uint32_t ioposition = 0x00U;
 8005fbe:	2300      	movs	r3, #0
 8005fc0:	617b      	str	r3, [r7, #20]
  uint32_t iocurrent = 0x00U;
 8005fc2:	2300      	movs	r3, #0
 8005fc4:	613b      	str	r3, [r7, #16]
  uint32_t temp = 0x00U;
 8005fc6:	2300      	movs	r3, #0
 8005fc8:	61bb      	str	r3, [r7, #24]
  assert_param(IS_GPIO_ALL_INSTANCE(GPIOx));
  assert_param(IS_GPIO_PIN(GPIO_Init->Pin));
  assert_param(IS_GPIO_MODE(GPIO_Init->Mode));

  /* Configure the port pins */
  for(position = 0U; position < GPIO_NUMBER; position++)
 8005fca:	2300      	movs	r3, #0
 8005fcc:	61fb      	str	r3, [r7, #28]
 8005fce:	e16b      	b.n	80062a8 <HAL_GPIO_Init+0x2f4>
  {
    /* Get the IO position */
    ioposition = 0x01U << position;
 8005fd0:	2201      	movs	r2, #1
 8005fd2:	69fb      	ldr	r3, [r7, #28]
 8005fd4:	fa02 f303 	lsl.w	r3, r2, r3
 8005fd8:	617b      	str	r3, [r7, #20]
    /* Get the current IO position */
    iocurrent = (uint32_t)(GPIO_Init->Pin) & ioposition;
 8005fda:	683b      	ldr	r3, [r7, #0]
 8005fdc:	681b      	ldr	r3, [r3, #0]
 8005fde:	697a      	ldr	r2, [r7, #20]
 8005fe0:	4013      	ands	r3, r2
 8005fe2:	613b      	str	r3, [r7, #16]

    if(iocurrent == ioposition)
 8005fe4:	693a      	ldr	r2, [r7, #16]
 8005fe6:	697b      	ldr	r3, [r7, #20]
 8005fe8:	429a      	cmp	r2, r3
 8005fea:	f040 815a 	bne.w	80062a2 <HAL_GPIO_Init+0x2ee>
    {
      /*--------------------- GPIO Mode Configuration ------------------------*/
      /* In case of Output or Alternate function mode selection */
      if(((GPIO_Init->Mode & GPIO_MODE) == MODE_OUTPUT) || \
 8005fee:	683b      	ldr	r3, [r7, #0]
 8005ff0:	685b      	ldr	r3, [r3, #4]
 8005ff2:	f003 0303 	and.w	r3, r3, #3
 8005ff6:	2b01      	cmp	r3, #1
 8005ff8:	d005      	beq.n	8006006 <HAL_GPIO_Init+0x52>
          (GPIO_Init->Mode & GPIO_MODE) == MODE_AF)
 8005ffa:	683b      	ldr	r3, [r7, #0]
 8005ffc:	685b      	ldr	r3, [r3, #4]
 8005ffe:	f003 0303 	and.w	r3, r3, #3
      if(((GPIO_Init->Mode & GPIO_MODE) == MODE_OUTPUT) || \
 8006002:	2b02      	cmp	r3, #2
 8006004:	d130      	bne.n	8006068 <HAL_GPIO_Init+0xb4>
      {
        /* Check the Speed parameter */
        assert_param(IS_GPIO_SPEED(GPIO_Init->Speed));
        /* Configure the IO Speed */
        temp = GPIOx->OSPEEDR; 
 8006006:	687b      	ldr	r3, [r7, #4]
 8006008:	689b      	ldr	r3, [r3, #8]
 800600a:	61bb      	str	r3, [r7, #24]
        temp &= ~(GPIO_OSPEEDER_OSPEEDR0 << (position * 2U));
 800600c:	69fb      	ldr	r3, [r7, #28]
 800600e:	005b      	lsls	r3, r3, #1
 8006010:	2203      	movs	r2, #3
 8006012:	fa02 f303 	lsl.w	r3, r2, r3
 8006016:	43db      	mvns	r3, r3
 8006018:	69ba      	ldr	r2, [r7, #24]
 800601a:	4013      	ands	r3, r2
 800601c:	61bb      	str	r3, [r7, #24]
        temp |= (GPIO_Init->Speed << (position * 2U));
 800601e:	683b      	ldr	r3, [r7, #0]
 8006020:	68da      	ldr	r2, [r3, #12]
 8006022:	69fb      	ldr	r3, [r7, #28]
 8006024:	005b      	lsls	r3, r3, #1
 8006026:	fa02 f303 	lsl.w	r3, r2, r3
 800602a:	69ba      	ldr	r2, [r7, #24]
 800602c:	4313      	orrs	r3, r2
 800602e:	61bb      	str	r3, [r7, #24]
        GPIOx->OSPEEDR = temp;
 8006030:	687b      	ldr	r3, [r7, #4]
 8006032:	69ba      	ldr	r2, [r7, #24]
 8006034:	609a      	str	r2, [r3, #8]

        /* Configure the IO Output Type */
        temp = GPIOx->OTYPER;
 8006036:	687b      	ldr	r3, [r7, #4]
 8006038:	685b      	ldr	r3, [r3, #4]
 800603a:	61bb      	str	r3, [r7, #24]
        temp &= ~(GPIO_OTYPER_OT_0 << position) ;
 800603c:	2201      	movs	r2, #1
 800603e:	69fb      	ldr	r3, [r7, #28]
 8006040:	fa02 f303 	lsl.w	r3, r2, r3
 8006044:	43db      	mvns	r3, r3
 8006046:	69ba      	ldr	r2, [r7, #24]
 8006048:	4013      	ands	r3, r2
 800604a:	61bb      	str	r3, [r7, #24]
        temp |= (((GPIO_Init->Mode & OUTPUT_TYPE) >> OUTPUT_TYPE_Pos) << position);
 800604c:	683b      	ldr	r3, [r7, #0]
 800604e:	685b      	ldr	r3, [r3, #4]
 8006050:	091b      	lsrs	r3, r3, #4
 8006052:	f003 0201 	and.w	r2, r3, #1
 8006056:	69fb      	ldr	r3, [r7, #28]
 8006058:	fa02 f303 	lsl.w	r3, r2, r3
 800605c:	69ba      	ldr	r2, [r7, #24]
 800605e:	4313      	orrs	r3, r2
 8006060:	61bb      	str	r3, [r7, #24]
        GPIOx->OTYPER = temp;
 8006062:	687b      	ldr	r3, [r7, #4]
 8006064:	69ba      	ldr	r2, [r7, #24]
 8006066:	605a      	str	r2, [r3, #4]
       }

      if((GPIO_Init->Mode & GPIO_MODE) != MODE_ANALOG)
 8006068:	683b      	ldr	r3, [r7, #0]
 800606a:	685b      	ldr	r3, [r3, #4]
 800606c:	f003 0303 	and.w	r3, r3, #3
 8006070:	2b03      	cmp	r3, #3
 8006072:	d017      	beq.n	80060a4 <HAL_GPIO_Init+0xf0>
      {
        /* Check the parameters */
        assert_param(IS_GPIO_PULL(GPIO_Init->Pull));
        
        /* Activate the Pull-up or Pull down resistor for the current IO */
        temp = GPIOx->PUPDR;
 8006074:	687b      	ldr	r3, [r7, #4]
 8006076:	68db      	ldr	r3, [r3, #12]
 8006078:	61bb      	str	r3, [r7, #24]
        temp &= ~(GPIO_PUPDR_PUPDR0 << (position * 2U));
 800607a:	69fb      	ldr	r3, [r7, #28]
 800607c:	005b      	lsls	r3, r3, #1
 800607e:	2203      	movs	r2, #3
 8006080:	fa02 f303 	lsl.w	r3, r2, r3
 8006084:	43db      	mvns	r3, r3
 8006086:	69ba      	ldr	r2, [r7, #24]
 8006088:	4013      	ands	r3, r2
 800608a:	61bb      	str	r3, [r7, #24]
        temp |= ((GPIO_Init->Pull) << (position * 2U));
 800608c:	683b      	ldr	r3, [r7, #0]
 800608e:	689a      	ldr	r2, [r3, #8]
 8006090:	69fb      	ldr	r3, [r7, #28]
 8006092:	005b      	lsls	r3, r3, #1
 8006094:	fa02 f303 	lsl.w	r3, r2, r3
 8006098:	69ba      	ldr	r2, [r7, #24]
 800609a:	4313      	orrs	r3, r2
 800609c:	61bb      	str	r3, [r7, #24]
        GPIOx->PUPDR = temp;
 800609e:	687b      	ldr	r3, [r7, #4]
 80060a0:	69ba      	ldr	r2, [r7, #24]
 80060a2:	60da      	str	r2, [r3, #12]
      }

      /* In case of Alternate function mode selection */
      if((GPIO_Init->Mode & GPIO_MODE) == MODE_AF)
 80060a4:	683b      	ldr	r3, [r7, #0]
 80060a6:	685b      	ldr	r3, [r3, #4]
 80060a8:	f003 0303 	and.w	r3, r3, #3
 80060ac:	2b02      	cmp	r3, #2
 80060ae:	d123      	bne.n	80060f8 <HAL_GPIO_Init+0x144>
      {
        /* Check the Alternate function parameter */
        assert_param(IS_GPIO_AF(GPIO_Init->Alternate));
        /* Configure Alternate function mapped with the current IO */
        temp = GPIOx->AFR[position >> 3U];
 80060b0:	69fb      	ldr	r3, [r7, #28]
 80060b2:	08da      	lsrs	r2, r3, #3
 80060b4:	687b      	ldr	r3, [r7, #4]
 80060b6:	3208      	adds	r2, #8
 80060b8:	f853 3022 	ldr.w	r3, [r3, r2, lsl #2]
 80060bc:	61bb      	str	r3, [r7, #24]
        temp &= ~(0xFU << ((uint32_t)(position & 0x07U) * 4U)) ;
 80060be:	69fb      	ldr	r3, [r7, #28]
 80060c0:	f003 0307 	and.w	r3, r3, #7
 80060c4:	009b      	lsls	r3, r3, #2
 80060c6:	220f      	movs	r2, #15
 80060c8:	fa02 f303 	lsl.w	r3, r2, r3
 80060cc:	43db      	mvns	r3, r3
 80060ce:	69ba      	ldr	r2, [r7, #24]
 80060d0:	4013      	ands	r3, r2
 80060d2:	61bb      	str	r3, [r7, #24]
        temp |= ((uint32_t)(GPIO_Init->Alternate) << (((uint32_t)position & 0x07U) * 4U));
 80060d4:	683b      	ldr	r3, [r7, #0]
 80060d6:	691a      	ldr	r2, [r3, #16]
 80060d8:	69fb      	ldr	r3, [r7, #28]
 80060da:	f003 0307 	and.w	r3, r3, #7
 80060de:	009b      	lsls	r3, r3, #2
 80060e0:	fa02 f303 	lsl.w	r3, r2, r3
 80060e4:	69ba      	ldr	r2, [r7, #24]
 80060e6:	4313      	orrs	r3, r2
 80060e8:	61bb      	str	r3, [r7, #24]
        GPIOx->AFR[position >> 3U] = temp;
 80060ea:	69fb      	ldr	r3, [r7, #28]
 80060ec:	08da      	lsrs	r2, r3, #3
 80060ee:	687b      	ldr	r3, [r7, #4]
 80060f0:	3208      	adds	r2, #8
 80060f2:	69b9      	ldr	r1, [r7, #24]
 80060f4:	f843 1022 	str.w	r1, [r3, r2, lsl #2]
      }

      /* Configure IO Direction mode (Input, Output, Alternate or Analog) */
      temp = GPIOx->MODER;
 80060f8:	687b      	ldr	r3, [r7, #4]
 80060fa:	681b      	ldr	r3, [r3, #0]
 80060fc:	61bb      	str	r3, [r7, #24]
      temp &= ~(GPIO_MODER_MODER0 << (position * 2U));
 80060fe:	69fb      	ldr	r3, [r7, #28]
 8006100:	005b      	lsls	r3, r3, #1
 8006102:	2203      	movs	r2, #3
 8006104:	fa02 f303 	lsl.w	r3, r2, r3
 8006108:	43db      	mvns	r3, r3
 800610a:	69ba      	ldr	r2, [r7, #24]
 800610c:	4013      	ands	r3, r2
 800610e:	61bb      	str	r3, [r7, #24]
      temp |= ((GPIO_Init->Mode & GPIO_MODE) << (position * 2U));
 8006110:	683b      	ldr	r3, [r7, #0]
 8006112:	685b      	ldr	r3, [r3, #4]
 8006114:	f003 0203 	and.w	r2, r3, #3
 8006118:	69fb      	ldr	r3, [r7, #28]
 800611a:	005b      	lsls	r3, r3, #1
 800611c:	fa02 f303 	lsl.w	r3, r2, r3
 8006120:	69ba      	ldr	r2, [r7, #24]
 8006122:	4313      	orrs	r3, r2
 8006124:	61bb      	str	r3, [r7, #24]
      GPIOx->MODER = temp;
 8006126:	687b      	ldr	r3, [r7, #4]
 8006128:	69ba      	ldr	r2, [r7, #24]
 800612a:	601a      	str	r2, [r3, #0]

      /*--------------------- EXTI Mode Configuration ------------------------*/
      /* Configure the External Interrupt or event for the current IO */
      if((GPIO_Init->Mode & EXTI_MODE) != 0x00U)
 800612c:	683b      	ldr	r3, [r7, #0]
 800612e:	685b      	ldr	r3, [r3, #4]
 8006130:	f403 3340 	and.w	r3, r3, #196608	@ 0x30000
 8006134:	2b00      	cmp	r3, #0
 8006136:	f000 80b4 	beq.w	80062a2 <HAL_GPIO_Init+0x2ee>
      {
        /* Enable SYSCFG Clock */
        __HAL_RCC_SYSCFG_CLK_ENABLE();
 800613a:	2300      	movs	r3, #0
 800613c:	60fb      	str	r3, [r7, #12]
 800613e:	4b60      	ldr	r3, [pc, #384]	@ (80062c0 <HAL_GPIO_Init+0x30c>)
 8006140:	6c5b      	ldr	r3, [r3, #68]	@ 0x44
 8006142:	4a5f      	ldr	r2, [pc, #380]	@ (80062c0 <HAL_GPIO_Init+0x30c>)
 8006144:	f443 4380 	orr.w	r3, r3, #16384	@ 0x4000
 8006148:	6453      	str	r3, [r2, #68]	@ 0x44
 800614a:	4b5d      	ldr	r3, [pc, #372]	@ (80062c0 <HAL_GPIO_Init+0x30c>)
 800614c:	6c5b      	ldr	r3, [r3, #68]	@ 0x44
 800614e:	f403 4380 	and.w	r3, r3, #16384	@ 0x4000
 8006152:	60fb      	str	r3, [r7, #12]
 8006154:	68fb      	ldr	r3, [r7, #12]

        temp = SYSCFG->EXTICR[position >> 2U];
 8006156:	4a5b      	ldr	r2, [pc, #364]	@ (80062c4 <HAL_GPIO_Init+0x310>)
 8006158:	69fb      	ldr	r3, [r7, #28]
 800615a:	089b      	lsrs	r3, r3, #2
 800615c:	3302      	adds	r3, #2
 800615e:	f852 3023 	ldr.w	r3, [r2, r3, lsl #2]
 8006162:	61bb      	str	r3, [r7, #24]
        temp &= ~(0x0FU << (4U * (position & 0x03U)));
 8006164:	69fb      	ldr	r3, [r7, #28]
 8006166:	f003 0303 	and.w	r3, r3, #3
 800616a:	009b      	lsls	r3, r3, #2
 800616c:	220f      	movs	r2, #15
 800616e:	fa02 f303 	lsl.w	r3, r2, r3
 8006172:	43db      	mvns	r3, r3
 8006174:	69ba      	ldr	r2, [r7, #24]
 8006176:	4013      	ands	r3, r2
 8006178:	61bb      	str	r3, [r7, #24]
        temp |= ((uint32_t)(GPIO_GET_INDEX(GPIOx)) << (4U * (position & 0x03U)));
 800617a:	687b      	ldr	r3, [r7, #4]
 800617c:	4a52      	ldr	r2, [pc, #328]	@ (80062c8 <HAL_GPIO_Init+0x314>)
 800617e:	4293      	cmp	r3, r2
 8006180:	d02b      	beq.n	80061da <HAL_GPIO_Init+0x226>
 8006182:	687b      	ldr	r3, [r7, #4]
 8006184:	4a51      	ldr	r2, [pc, #324]	@ (80062cc <HAL_GPIO_Init+0x318>)
 8006186:	4293      	cmp	r3, r2
 8006188:	d025      	beq.n	80061d6 <HAL_GPIO_Init+0x222>
 800618a:	687b      	ldr	r3, [r7, #4]
 800618c:	4a50      	ldr	r2, [pc, #320]	@ (80062d0 <HAL_GPIO_Init+0x31c>)
 800618e:	4293      	cmp	r3, r2
 8006190:	d01f      	beq.n	80061d2 <HAL_GPIO_Init+0x21e>
 8006192:	687b      	ldr	r3, [r7, #4]
 8006194:	4a4f      	ldr	r2, [pc, #316]	@ (80062d4 <HAL_GPIO_Init+0x320>)
 8006196:	4293      	cmp	r3, r2
 8006198:	d019      	beq.n	80061ce <HAL_GPIO_Init+0x21a>
 800619a:	687b      	ldr	r3, [r7, #4]
 800619c:	4a4e      	ldr	r2, [pc, #312]	@ (80062d8 <HAL_GPIO_Init+0x324>)
 800619e:	4293      	cmp	r3, r2
 80061a0:	d013      	beq.n	80061ca <HAL_GPIO_Init+0x216>
 80061a2:	687b      	ldr	r3, [r7, #4]
 80061a4:	4a4d      	ldr	r2, [pc, #308]	@ (80062dc <HAL_GPIO_Init+0x328>)
 80061a6:	4293      	cmp	r3, r2
 80061a8:	d00d      	beq.n	80061c6 <HAL_GPIO_Init+0x212>
 80061aa:	687b      	ldr	r3, [r7, #4]
 80061ac:	4a4c      	ldr	r2, [pc, #304]	@ (80062e0 <HAL_GPIO_Init+0x32c>)
 80061ae:	4293      	cmp	r3, r2
 80061b0:	d007      	beq.n	80061c2 <HAL_GPIO_Init+0x20e>
 80061b2:	687b      	ldr	r3, [r7, #4]
 80061b4:	4a4b      	ldr	r2, [pc, #300]	@ (80062e4 <HAL_GPIO_Init+0x330>)
 80061b6:	4293      	cmp	r3, r2
 80061b8:	d101      	bne.n	80061be <HAL_GPIO_Init+0x20a>
 80061ba:	2307      	movs	r3, #7
 80061bc:	e00e      	b.n	80061dc <HAL_GPIO_Init+0x228>
 80061be:	2308      	movs	r3, #8
 80061c0:	e00c      	b.n	80061dc <HAL_GPIO_Init+0x228>
 80061c2:	2306      	movs	r3, #6
 80061c4:	e00a      	b.n	80061dc <HAL_GPIO_Init+0x228>
 80061c6:	2305      	movs	r3, #5
 80061c8:	e008      	b.n	80061dc <HAL_GPIO_Init+0x228>
 80061ca:	2304      	movs	r3, #4
 80061cc:	e006      	b.n	80061dc <HAL_GPIO_Init+0x228>
 80061ce:	2303      	movs	r3, #3
 80061d0:	e004      	b.n	80061dc <HAL_GPIO_Init+0x228>
 80061d2:	2302      	movs	r3, #2
 80061d4:	e002      	b.n	80061dc <HAL_GPIO_Init+0x228>
 80061d6:	2301      	movs	r3, #1
 80061d8:	e000      	b.n	80061dc <HAL_GPIO_Init+0x228>
 80061da:	2300      	movs	r3, #0
 80061dc:	69fa      	ldr	r2, [r7, #28]
 80061de:	f002 0203 	and.w	r2, r2, #3
 80061e2:	0092      	lsls	r2, r2, #2
 80061e4:	4093      	lsls	r3, r2
 80061e6:	69ba      	ldr	r2, [r7, #24]
 80061e8:	4313      	orrs	r3, r2
 80061ea:	61bb      	str	r3, [r7, #24]
        SYSCFG->EXTICR[position >> 2U] = temp;
 80061ec:	4935      	ldr	r1, [pc, #212]	@ (80062c4 <HAL_GPIO_Init+0x310>)
 80061ee:	69fb      	ldr	r3, [r7, #28]
 80061f0:	089b      	lsrs	r3, r3, #2
 80061f2:	3302      	adds	r3, #2
 80061f4:	69ba      	ldr	r2, [r7, #24]
 80061f6:	f841 2023 	str.w	r2, [r1, r3, lsl #2]

        /* Clear Rising Falling edge configuration */
        temp = EXTI->RTSR;
 80061fa:	4b3b      	ldr	r3, [pc, #236]	@ (80062e8 <HAL_GPIO_Init+0x334>)
 80061fc:	689b      	ldr	r3, [r3, #8]
 80061fe:	61bb      	str	r3, [r7, #24]
        temp &= ~((uint32_t)iocurrent);
 8006200:	693b      	ldr	r3, [r7, #16]
 8006202:	43db      	mvns	r3, r3
 8006204:	69ba      	ldr	r2, [r7, #24]
 8006206:	4013      	ands	r3, r2
 8006208:	61bb      	str	r3, [r7, #24]
        if((GPIO_Init->Mode & TRIGGER_RISING) != 0x00U)
 800620a:	683b      	ldr	r3, [r7, #0]
 800620c:	685b      	ldr	r3, [r3, #4]
 800620e:	f403 1380 	and.w	r3, r3, #1048576	@ 0x100000
 8006212:	2b00      	cmp	r3, #0
 8006214:	d003      	beq.n	800621e <HAL_GPIO_Init+0x26a>
        {
          temp |= iocurrent;
 8006216:	69ba      	ldr	r2, [r7, #24]
 8006218:	693b      	ldr	r3, [r7, #16]
 800621a:	4313      	orrs	r3, r2
 800621c:	61bb      	str	r3, [r7, #24]
        }
        EXTI->RTSR = temp;
 800621e:	4a32      	ldr	r2, [pc, #200]	@ (80062e8 <HAL_GPIO_Init+0x334>)
 8006220:	69bb      	ldr	r3, [r7, #24]
 8006222:	6093      	str	r3, [r2, #8]

        temp = EXTI->FTSR;
 8006224:	4b30      	ldr	r3, [pc, #192]	@ (80062e8 <HAL_GPIO_Init+0x334>)
 8006226:	68db      	ldr	r3, [r3, #12]
 8006228:	61bb      	str	r3, [r7, #24]
        temp &= ~((uint32_t)iocurrent);
 800622a:	693b      	ldr	r3, [r7, #16]
 800622c:	43db      	mvns	r3, r3
 800622e:	69ba      	ldr	r2, [r7, #24]
 8006230:	4013      	ands	r3, r2
 8006232:	61bb      	str	r3, [r7, #24]
        if((GPIO_Init->Mode & TRIGGER_FALLING) != 0x00U)
 8006234:	683b      	ldr	r3, [r7, #0]
 8006236:	685b      	ldr	r3, [r3, #4]
 8006238:	f403 1300 	and.w	r3, r3, #2097152	@ 0x200000
 800623c:	2b00      	cmp	r3, #0
 800623e:	d003      	beq.n	8006248 <HAL_GPIO_Init+0x294>
        {
          temp |= iocurrent;
 8006240:	69ba      	ldr	r2, [r7, #24]
 8006242:	693b      	ldr	r3, [r7, #16]
 8006244:	4313      	orrs	r3, r2
 8006246:	61bb      	str	r3, [r7, #24]
        }
        EXTI->FTSR = temp;
 8006248:	4a27      	ldr	r2, [pc, #156]	@ (80062e8 <HAL_GPIO_Init+0x334>)
 800624a:	69bb      	ldr	r3, [r7, #24]
 800624c:	60d3      	str	r3, [r2, #12]

        temp = EXTI->EMR;
 800624e:	4b26      	ldr	r3, [pc, #152]	@ (80062e8 <HAL_GPIO_Init+0x334>)
 8006250:	685b      	ldr	r3, [r3, #4]
 8006252:	61bb      	str	r3, [r7, #24]
        temp &= ~((uint32_t)iocurrent);
 8006254:	693b      	ldr	r3, [r7, #16]
 8006256:	43db      	mvns	r3, r3
 8006258:	69ba      	ldr	r2, [r7, #24]
 800625a:	4013      	ands	r3, r2
 800625c:	61bb      	str	r3, [r7, #24]
        if((GPIO_Init->Mode & EXTI_EVT) != 0x00U)
 800625e:	683b      	ldr	r3, [r7, #0]
 8006260:	685b      	ldr	r3, [r3, #4]
 8006262:	f403 3300 	and.w	r3, r3, #131072	@ 0x20000
 8006266:	2b00      	cmp	r3, #0
 8006268:	d003      	beq.n	8006272 <HAL_GPIO_Init+0x2be>
        {
          temp |= iocurrent;
 800626a:	69ba      	ldr	r2, [r7, #24]
 800626c:	693b      	ldr	r3, [r7, #16]
 800626e:	4313      	orrs	r3, r2
 8006270:	61bb      	str	r3, [r7, #24]
        }
        EXTI->EMR = temp;
 8006272:	4a1d      	ldr	r2, [pc, #116]	@ (80062e8 <HAL_GPIO_Init+0x334>)
 8006274:	69bb      	ldr	r3, [r7, #24]
 8006276:	6053      	str	r3, [r2, #4]

        /* Clear EXTI line configuration */
        temp = EXTI->IMR;
 8006278:	4b1b      	ldr	r3, [pc, #108]	@ (80062e8 <HAL_GPIO_Init+0x334>)
 800627a:	681b      	ldr	r3, [r3, #0]
 800627c:	61bb      	str	r3, [r7, #24]
        temp &= ~((uint32_t)iocurrent);
 800627e:	693b      	ldr	r3, [r7, #16]
 8006280:	43db      	mvns	r3, r3
 8006282:	69ba      	ldr	r2, [r7, #24]
 8006284:	4013      	ands	r3, r2
 8006286:	61bb      	str	r3, [r7, #24]
        if((GPIO_Init->Mode & EXTI_IT) != 0x00U)
 8006288:	683b      	ldr	r3, [r7, #0]
 800628a:	685b      	ldr	r3, [r3, #4]
 800628c:	f403 3380 	and.w	r3, r3, #65536	@ 0x10000
 8006290:	2b00      	cmp	r3, #0
 8006292:	d003      	beq.n	800629c <HAL_GPIO_Init+0x2e8>
        {
          temp |= iocurrent;
 8006294:	69ba      	ldr	r2, [r7, #24]
 8006296:	693b      	ldr	r3, [r7, #16]
 8006298:	4313      	orrs	r3, r2
 800629a:	61bb      	str	r3, [r7, #24]
        }
        EXTI->IMR = temp;
 800629c:	4a12      	ldr	r2, [pc, #72]	@ (80062e8 <HAL_GPIO_Init+0x334>)
 800629e:	69bb      	ldr	r3, [r7, #24]
 80062a0:	6013      	str	r3, [r2, #0]
  for(position = 0U; position < GPIO_NUMBER; position++)
 80062a2:	69fb      	ldr	r3, [r7, #28]
 80062a4:	3301      	adds	r3, #1
 80062a6:	61fb      	str	r3, [r7, #28]
 80062a8:	69fb      	ldr	r3, [r7, #28]
 80062aa:	2b0f      	cmp	r3, #15
 80062ac:	f67f ae90 	bls.w	8005fd0 <HAL_GPIO_Init+0x1c>
      }
    }
  }
}
 80062b0:	bf00      	nop
 80062b2:	bf00      	nop
 80062b4:	3724      	adds	r7, #36	@ 0x24
 80062b6:	46bd      	mov	sp, r7
 80062b8:	f85d 7b04 	ldr.w	r7, [sp], #4
 80062bc:	4770      	bx	lr
 80062be:	bf00      	nop
 80062c0:	40023800 	.word	0x40023800
 80062c4:	40013800 	.word	0x40013800
 80062c8:	40020000 	.word	0x40020000
 80062cc:	40020400 	.word	0x40020400
 80062d0:	40020800 	.word	0x40020800
 80062d4:	40020c00 	.word	0x40020c00
 80062d8:	40021000 	.word	0x40021000
 80062dc:	40021400 	.word	0x40021400
 80062e0:	40021800 	.word	0x40021800
 80062e4:	40021c00 	.word	0x40021c00
 80062e8:	40013c00 	.word	0x40013c00

080062ec <HAL_GPIO_ReadPin>:
  * @param  GPIO_Pin specifies the port bit to read.
  *         This parameter can be GPIO_PIN_x where x can be (0..15).
  * @retval The input port pin value.
  */
GPIO_PinState HAL_GPIO_ReadPin(GPIO_TypeDef* GPIOx, uint16_t GPIO_Pin)
{
 80062ec:	b480      	push	{r7}
 80062ee:	b085      	sub	sp, #20
 80062f0:	af00      	add	r7, sp, #0
 80062f2:	6078      	str	r0, [r7, #4]
 80062f4:	460b      	mov	r3, r1
 80062f6:	807b      	strh	r3, [r7, #2]
  GPIO_PinState bitstatus;

  /* Check the parameters */
  assert_param(IS_GPIO_PIN(GPIO_Pin));

  if((GPIOx->IDR & GPIO_Pin) != (uint32_t)GPIO_PIN_RESET)
 80062f8:	687b      	ldr	r3, [r7, #4]
 80062fa:	691a      	ldr	r2, [r3, #16]
 80062fc:	887b      	ldrh	r3, [r7, #2]
 80062fe:	4013      	ands	r3, r2
 8006300:	2b00      	cmp	r3, #0
 8006302:	d002      	beq.n	800630a <HAL_GPIO_ReadPin+0x1e>
  {
    bitstatus = GPIO_PIN_SET;
 8006304:	2301      	movs	r3, #1
 8006306:	73fb      	strb	r3, [r7, #15]
 8006308:	e001      	b.n	800630e <HAL_GPIO_ReadPin+0x22>
  }
  else
  {
    bitstatus = GPIO_PIN_RESET;
 800630a:	2300      	movs	r3, #0
 800630c:	73fb      	strb	r3, [r7, #15]
  }
  return bitstatus;
 800630e:	7bfb      	ldrb	r3, [r7, #15]
}
 8006310:	4618      	mov	r0, r3
 8006312:	3714      	adds	r7, #20
 8006314:	46bd      	mov	sp, r7
 8006316:	f85d 7b04 	ldr.w	r7, [sp], #4
 800631a:	4770      	bx	lr

0800631c <HAL_GPIO_WritePin>:
  *            @arg GPIO_PIN_RESET: to clear the port pin
  *            @arg GPIO_PIN_SET: to set the port pin
  * @retval None
  */
void HAL_GPIO_WritePin(GPIO_TypeDef* GPIOx, uint16_t GPIO_Pin, GPIO_PinState PinState)
{
 800631c:	b480      	push	{r7}
 800631e:	b083      	sub	sp, #12
 8006320:	af00      	add	r7, sp, #0
 8006322:	6078      	str	r0, [r7, #4]
 8006324:	460b      	mov	r3, r1
 8006326:	807b      	strh	r3, [r7, #2]
 8006328:	4613      	mov	r3, r2
 800632a:	707b      	strb	r3, [r7, #1]
  /* Check the parameters */
  assert_param(IS_GPIO_PIN(GPIO_Pin));
  assert_param(IS_GPIO_PIN_ACTION(PinState));

  if(PinState != GPIO_PIN_RESET)
 800632c:	787b      	ldrb	r3, [r7, #1]
 800632e:	2b00      	cmp	r3, #0
 8006330:	d003      	beq.n	800633a <HAL_GPIO_WritePin+0x1e>
  {
    GPIOx->BSRR = GPIO_Pin;
 8006332:	887a      	ldrh	r2, [r7, #2]
 8006334:	687b      	ldr	r3, [r7, #4]
 8006336:	619a      	str	r2, [r3, #24]
  }
  else
  {
    GPIOx->BSRR = (uint32_t)GPIO_Pin << 16U;
  }
}
 8006338:	e003      	b.n	8006342 <HAL_GPIO_WritePin+0x26>
    GPIOx->BSRR = (uint32_t)GPIO_Pin << 16U;
 800633a:	887b      	ldrh	r3, [r7, #2]
 800633c:	041a      	lsls	r2, r3, #16
 800633e:	687b      	ldr	r3, [r7, #4]
 8006340:	619a      	str	r2, [r3, #24]
}
 8006342:	bf00      	nop
 8006344:	370c      	adds	r7, #12
 8006346:	46bd      	mov	sp, r7
 8006348:	f85d 7b04 	ldr.w	r7, [sp], #4
 800634c:	4770      	bx	lr
	...

08006350 <HAL_GPIO_EXTI_IRQHandler>:
  * @brief  This function handles EXTI interrupt request.
  * @param  GPIO_Pin Specifies the pins connected EXTI line
  * @retval None
  */
void HAL_GPIO_EXTI_IRQHandler(uint16_t GPIO_Pin)
{
 8006350:	b580      	push	{r7, lr}
 8006352:	b082      	sub	sp, #8
 8006354:	af00      	add	r7, sp, #0
 8006356:	4603      	mov	r3, r0
 8006358:	80fb      	strh	r3, [r7, #6]
  /* EXTI line interrupt detected */
  if(__HAL_GPIO_EXTI_GET_IT(GPIO_Pin) != RESET)
 800635a:	4b08      	ldr	r3, [pc, #32]	@ (800637c <HAL_GPIO_EXTI_IRQHandler+0x2c>)
 800635c:	695a      	ldr	r2, [r3, #20]
 800635e:	88fb      	ldrh	r3, [r7, #6]
 8006360:	4013      	ands	r3, r2
 8006362:	2b00      	cmp	r3, #0
 8006364:	d006      	beq.n	8006374 <HAL_GPIO_EXTI_IRQHandler+0x24>
  {
    __HAL_GPIO_EXTI_CLEAR_IT(GPIO_Pin);
 8006366:	4a05      	ldr	r2, [pc, #20]	@ (800637c <HAL_GPIO_EXTI_IRQHandler+0x2c>)
 8006368:	88fb      	ldrh	r3, [r7, #6]
 800636a:	6153      	str	r3, [r2, #20]
    HAL_GPIO_EXTI_Callback(GPIO_Pin);
 800636c:	88fb      	ldrh	r3, [r7, #6]
 800636e:	4618      	mov	r0, r3
 8006370:	f7ff f920 	bl	80055b4 <HAL_GPIO_EXTI_Callback>
  }
}
 8006374:	bf00      	nop
 8006376:	3708      	adds	r7, #8
 8006378:	46bd      	mov	sp, r7
 800637a:	bd80      	pop	{r7, pc}
 800637c:	40013c00 	.word	0x40013c00

08006380 <HAL_RCC_OscConfig>:
  *         supported by this API. User should request a transition to HSE Off
  *         first and then HSE On or HSE Bypass.
  * @retval HAL status
  */
__weak HAL_StatusTypeDef HAL_RCC_OscConfig(RCC_OscInitTypeDef  *RCC_OscInitStruct)
{
 8006380:	b580      	push	{r7, lr}
 8006382:	b086      	sub	sp, #24
 8006384:	af00      	add	r7, sp, #0
 8006386:	6078      	str	r0, [r7, #4]
  uint32_t tickstart;
  uint32_t pll_config;
  /* Check Null pointer */
  if (RCC_OscInitStruct == NULL)
 8006388:	687b      	ldr	r3, [r7, #4]
 800638a:	2b00      	cmp	r3, #0
 800638c:	d101      	bne.n	8006392 <HAL_RCC_OscConfig+0x12>
  {
    return HAL_ERROR;
 800638e:	2301      	movs	r3, #1
 8006390:	e267      	b.n	8006862 <HAL_RCC_OscConfig+0x4e2>
  }

  /* Check the parameters */
  assert_param(IS_RCC_OSCILLATORTYPE(RCC_OscInitStruct->OscillatorType));
  /*------------------------------- HSE Configuration ------------------------*/
  if (((RCC_OscInitStruct->OscillatorType) & RCC_OSCILLATORTYPE_HSE) == RCC_OSCILLATORTYPE_HSE)
 8006392:	687b      	ldr	r3, [r7, #4]
 8006394:	681b      	ldr	r3, [r3, #0]
 8006396:	f003 0301 	and.w	r3, r3, #1
 800639a:	2b00      	cmp	r3, #0
 800639c:	d075      	beq.n	800648a <HAL_RCC_OscConfig+0x10a>
  {
    /* Check the parameters */
    assert_param(IS_RCC_HSE(RCC_OscInitStruct->HSEState));
    /* When the HSE is used as system clock or clock source for PLL in these cases HSE will not disabled */
    if ((__HAL_RCC_GET_SYSCLK_SOURCE() == RCC_CFGR_SWS_HSE) || \
 800639e:	4b88      	ldr	r3, [pc, #544]	@ (80065c0 <HAL_RCC_OscConfig+0x240>)
 80063a0:	689b      	ldr	r3, [r3, #8]
 80063a2:	f003 030c 	and.w	r3, r3, #12
 80063a6:	2b04      	cmp	r3, #4
 80063a8:	d00c      	beq.n	80063c4 <HAL_RCC_OscConfig+0x44>
        ((__HAL_RCC_GET_SYSCLK_SOURCE() == RCC_CFGR_SWS_PLL) && ((RCC->PLLCFGR & RCC_PLLCFGR_PLLSRC) == RCC_PLLCFGR_PLLSRC_HSE)))
 80063aa:	4b85      	ldr	r3, [pc, #532]	@ (80065c0 <HAL_RCC_OscConfig+0x240>)
 80063ac:	689b      	ldr	r3, [r3, #8]
 80063ae:	f003 030c 	and.w	r3, r3, #12
    if ((__HAL_RCC_GET_SYSCLK_SOURCE() == RCC_CFGR_SWS_HSE) || \
 80063b2:	2b08      	cmp	r3, #8
 80063b4:	d112      	bne.n	80063dc <HAL_RCC_OscConfig+0x5c>
        ((__HAL_RCC_GET_SYSCLK_SOURCE() == RCC_CFGR_SWS_PLL) && ((RCC->PLLCFGR & RCC_PLLCFGR_PLLSRC) == RCC_PLLCFGR_PLLSRC_HSE)))
 80063b6:	4b82      	ldr	r3, [pc, #520]	@ (80065c0 <HAL_RCC_OscConfig+0x240>)
 80063b8:	685b      	ldr	r3, [r3, #4]
 80063ba:	f403 0380 	and.w	r3, r3, #4194304	@ 0x400000
 80063be:	f5b3 0f80 	cmp.w	r3, #4194304	@ 0x400000
 80063c2:	d10b      	bne.n	80063dc <HAL_RCC_OscConfig+0x5c>
    {
      if ((__HAL_RCC_GET_FLAG(RCC_FLAG_HSERDY) != RESET) && (RCC_OscInitStruct->HSEState == RCC_HSE_OFF))
 80063c4:	4b7e      	ldr	r3, [pc, #504]	@ (80065c0 <HAL_RCC_OscConfig+0x240>)
 80063c6:	681b      	ldr	r3, [r3, #0]
 80063c8:	f403 3300 	and.w	r3, r3, #131072	@ 0x20000
 80063cc:	2b00      	cmp	r3, #0
 80063ce:	d05b      	beq.n	8006488 <HAL_RCC_OscConfig+0x108>
 80063d0:	687b      	ldr	r3, [r7, #4]
 80063d2:	685b      	ldr	r3, [r3, #4]
 80063d4:	2b00      	cmp	r3, #0
 80063d6:	d157      	bne.n	8006488 <HAL_RCC_OscConfig+0x108>
      {
        return HAL_ERROR;
 80063d8:	2301      	movs	r3, #1
 80063da:	e242      	b.n	8006862 <HAL_RCC_OscConfig+0x4e2>
      }
    }
    else
    {
      /* Set the new HSE configuration ---------------------------------------*/
      __HAL_RCC_HSE_CONFIG(RCC_OscInitStruct->HSEState);
 80063dc:	687b      	ldr	r3, [r7, #4]
 80063de:	685b      	ldr	r3, [r3, #4]
 80063e0:	f5b3 3f80 	cmp.w	r3, #65536	@ 0x10000
 80063e4:	d106      	bne.n	80063f4 <HAL_RCC_OscConfig+0x74>
 80063e6:	4b76      	ldr	r3, [pc, #472]	@ (80065c0 <HAL_RCC_OscConfig+0x240>)
 80063e8:	681b      	ldr	r3, [r3, #0]
 80063ea:	4a75      	ldr	r2, [pc, #468]	@ (80065c0 <HAL_RCC_OscConfig+0x240>)
 80063ec:	f443 3380 	orr.w	r3, r3, #65536	@ 0x10000
 80063f0:	6013      	str	r3, [r2, #0]
 80063f2:	e01d      	b.n	8006430 <HAL_RCC_OscConfig+0xb0>
 80063f4:	687b      	ldr	r3, [r7, #4]
 80063f6:	685b      	ldr	r3, [r3, #4]
 80063f8:	f5b3 2fa0 	cmp.w	r3, #327680	@ 0x50000
 80063fc:	d10c      	bne.n	8006418 <HAL_RCC_OscConfig+0x98>
 80063fe:	4b70      	ldr	r3, [pc, #448]	@ (80065c0 <HAL_RCC_OscConfig+0x240>)
 8006400:	681b      	ldr	r3, [r3, #0]
 8006402:	4a6f      	ldr	r2, [pc, #444]	@ (80065c0 <HAL_RCC_OscConfig+0x240>)
 8006404:	f443 2380 	orr.w	r3, r3, #262144	@ 0x40000
 8006408:	6013      	str	r3, [r2, #0]
 800640a:	4b6d      	ldr	r3, [pc, #436]	@ (80065c0 <HAL_RCC_OscConfig+0x240>)
 800640c:	681b      	ldr	r3, [r3, #0]
 800640e:	4a6c      	ldr	r2, [pc, #432]	@ (80065c0 <HAL_RCC_OscConfig+0x240>)
 8006410:	f443 3380 	orr.w	r3, r3, #65536	@ 0x10000
 8006414:	6013      	str	r3, [r2, #0]
 8006416:	e00b      	b.n	8006430 <HAL_RCC_OscConfig+0xb0>
 8006418:	4b69      	ldr	r3, [pc, #420]	@ (80065c0 <HAL_RCC_OscConfig+0x240>)
 800641a:	681b      	ldr	r3, [r3, #0]
 800641c:	4a68      	ldr	r2, [pc, #416]	@ (80065c0 <HAL_RCC_OscConfig+0x240>)
 800641e:	f423 3380 	bic.w	r3, r3, #65536	@ 0x10000
 8006422:	6013      	str	r3, [r2, #0]
 8006424:	4b66      	ldr	r3, [pc, #408]	@ (80065c0 <HAL_RCC_OscConfig+0x240>)
 8006426:	681b      	ldr	r3, [r3, #0]
 8006428:	4a65      	ldr	r2, [pc, #404]	@ (80065c0 <HAL_RCC_OscConfig+0x240>)
 800642a:	f423 2380 	bic.w	r3, r3, #262144	@ 0x40000
 800642e:	6013      	str	r3, [r2, #0]

      /* Check the HSE State */
      if ((RCC_OscInitStruct->HSEState) != RCC_HSE_OFF)
 8006430:	687b      	ldr	r3, [r7, #4]
 8006432:	685b      	ldr	r3, [r3, #4]
 8006434:	2b00      	cmp	r3, #0
 8006436:	d013      	beq.n	8006460 <HAL_RCC_OscConfig+0xe0>
      {
        /* Get Start Tick */
        tickstart = HAL_GetTick();
 8006438:	f7ff fbe8 	bl	8005c0c <HAL_GetTick>
 800643c:	6138      	str	r0, [r7, #16]

        /* Wait till HSE is ready */
        while (__HAL_RCC_GET_FLAG(RCC_FLAG_HSERDY) == RESET)
 800643e:	e008      	b.n	8006452 <HAL_RCC_OscConfig+0xd2>
        {
          if ((HAL_GetTick() - tickstart) > HSE_TIMEOUT_VALUE)
 8006440:	f7ff fbe4 	bl	8005c0c <HAL_GetTick>
 8006444:	4602      	mov	r2, r0
 8006446:	693b      	ldr	r3, [r7, #16]
 8006448:	1ad3      	subs	r3, r2, r3
 800644a:	2b64      	cmp	r3, #100	@ 0x64
 800644c:	d901      	bls.n	8006452 <HAL_RCC_OscConfig+0xd2>
          {
            return HAL_TIMEOUT;
 800644e:	2303      	movs	r3, #3
 8006450:	e207      	b.n	8006862 <HAL_RCC_OscConfig+0x4e2>
        while (__HAL_RCC_GET_FLAG(RCC_FLAG_HSERDY) == RESET)
 8006452:	4b5b      	ldr	r3, [pc, #364]	@ (80065c0 <HAL_RCC_OscConfig+0x240>)
 8006454:	681b      	ldr	r3, [r3, #0]
 8006456:	f403 3300 	and.w	r3, r3, #131072	@ 0x20000
 800645a:	2b00      	cmp	r3, #0
 800645c:	d0f0      	beq.n	8006440 <HAL_RCC_OscConfig+0xc0>
 800645e:	e014      	b.n	800648a <HAL_RCC_OscConfig+0x10a>
        }
      }
      else
      {
        /* Get Start Tick */
        tickstart = HAL_GetTick();
 8006460:	f7ff fbd4 	bl	8005c0c <HAL_GetTick>
 8006464:	6138      	str	r0, [r7, #16]

        /* Wait till HSE is bypassed or disabled */
        while (__HAL_RCC_GET_FLAG(RCC_FLAG_HSERDY) != RESET)
 8006466:	e008      	b.n	800647a <HAL_RCC_OscConfig+0xfa>
        {
          if ((HAL_GetTick() - tickstart) > HSE_TIMEOUT_VALUE)
 8006468:	f7ff fbd0 	bl	8005c0c <HAL_GetTick>
 800646c:	4602      	mov	r2, r0
 800646e:	693b      	ldr	r3, [r7, #16]
 8006470:	1ad3      	subs	r3, r2, r3
 8006472:	2b64      	cmp	r3, #100	@ 0x64
 8006474:	d901      	bls.n	800647a <HAL_RCC_OscConfig+0xfa>
          {
            return HAL_TIMEOUT;
 8006476:	2303      	movs	r3, #3
 8006478:	e1f3      	b.n	8006862 <HAL_RCC_OscConfig+0x4e2>
        while (__HAL_RCC_GET_FLAG(RCC_FLAG_HSERDY) != RESET)
 800647a:	4b51      	ldr	r3, [pc, #324]	@ (80065c0 <HAL_RCC_OscConfig+0x240>)
 800647c:	681b      	ldr	r3, [r3, #0]
 800647e:	f403 3300 	and.w	r3, r3, #131072	@ 0x20000
 8006482:	2b00      	cmp	r3, #0
 8006484:	d1f0      	bne.n	8006468 <HAL_RCC_OscConfig+0xe8>
 8006486:	e000      	b.n	800648a <HAL_RCC_OscConfig+0x10a>
      if ((__HAL_RCC_GET_FLAG(RCC_FLAG_HSERDY) != RESET) && (RCC_OscInitStruct->HSEState == RCC_HSE_OFF))
 8006488:	bf00      	nop
        }
      }
    }
  }
  /*----------------------------- HSI Configuration --------------------------*/
  if (((RCC_OscInitStruct->OscillatorType) & RCC_OSCILLATORTYPE_HSI) == RCC_OSCILLATORTYPE_HSI)
 800648a:	687b      	ldr	r3, [r7, #4]
 800648c:	681b      	ldr	r3, [r3, #0]
 800648e:	f003 0302 	and.w	r3, r3, #2
 8006492:	2b00      	cmp	r3, #0
 8006494:	d063      	beq.n	800655e <HAL_RCC_OscConfig+0x1de>
    /* Check the parameters */
    assert_param(IS_RCC_HSI(RCC_OscInitStruct->HSIState));
    assert_param(IS_RCC_CALIBRATION_VALUE(RCC_OscInitStruct->HSICalibrationValue));

    /* Check if HSI is used as system clock or as PLL source when PLL is selected as system clock */
    if ((__HAL_RCC_GET_SYSCLK_SOURCE() == RCC_CFGR_SWS_HSI) || \
 8006496:	4b4a      	ldr	r3, [pc, #296]	@ (80065c0 <HAL_RCC_OscConfig+0x240>)
 8006498:	689b      	ldr	r3, [r3, #8]
 800649a:	f003 030c 	and.w	r3, r3, #12
 800649e:	2b00      	cmp	r3, #0
 80064a0:	d00b      	beq.n	80064ba <HAL_RCC_OscConfig+0x13a>
        ((__HAL_RCC_GET_SYSCLK_SOURCE() == RCC_CFGR_SWS_PLL) && ((RCC->PLLCFGR & RCC_PLLCFGR_PLLSRC) == RCC_PLLCFGR_PLLSRC_HSI)))
 80064a2:	4b47      	ldr	r3, [pc, #284]	@ (80065c0 <HAL_RCC_OscConfig+0x240>)
 80064a4:	689b      	ldr	r3, [r3, #8]
 80064a6:	f003 030c 	and.w	r3, r3, #12
    if ((__HAL_RCC_GET_SYSCLK_SOURCE() == RCC_CFGR_SWS_HSI) || \
 80064aa:	2b08      	cmp	r3, #8
 80064ac:	d11c      	bne.n	80064e8 <HAL_RCC_OscConfig+0x168>
        ((__HAL_RCC_GET_SYSCLK_SOURCE() == RCC_CFGR_SWS_PLL) && ((RCC->PLLCFGR & RCC_PLLCFGR_PLLSRC) == RCC_PLLCFGR_PLLSRC_HSI)))
 80064ae:	4b44      	ldr	r3, [pc, #272]	@ (80065c0 <HAL_RCC_OscConfig+0x240>)
 80064b0:	685b      	ldr	r3, [r3, #4]
 80064b2:	f403 0380 	and.w	r3, r3, #4194304	@ 0x400000
 80064b6:	2b00      	cmp	r3, #0
 80064b8:	d116      	bne.n	80064e8 <HAL_RCC_OscConfig+0x168>
    {
      /* When HSI is used as system clock it will not disabled */
      if ((__HAL_RCC_GET_FLAG(RCC_FLAG_HSIRDY) != RESET) && (RCC_OscInitStruct->HSIState != RCC_HSI_ON))
 80064ba:	4b41      	ldr	r3, [pc, #260]	@ (80065c0 <HAL_RCC_OscConfig+0x240>)
 80064bc:	681b      	ldr	r3, [r3, #0]
 80064be:	f003 0302 	and.w	r3, r3, #2
 80064c2:	2b00      	cmp	r3, #0
 80064c4:	d005      	beq.n	80064d2 <HAL_RCC_OscConfig+0x152>
 80064c6:	687b      	ldr	r3, [r7, #4]
 80064c8:	68db      	ldr	r3, [r3, #12]
 80064ca:	2b01      	cmp	r3, #1
 80064cc:	d001      	beq.n	80064d2 <HAL_RCC_OscConfig+0x152>
      {
        return HAL_ERROR;
 80064ce:	2301      	movs	r3, #1
 80064d0:	e1c7      	b.n	8006862 <HAL_RCC_OscConfig+0x4e2>
      }
      /* Otherwise, just the calibration is allowed */
      else
      {
        /* Adjusts the Internal High Speed oscillator (HSI) calibration value.*/
        __HAL_RCC_HSI_CALIBRATIONVALUE_ADJUST(RCC_OscInitStruct->HSICalibrationValue);
 80064d2:	4b3b      	ldr	r3, [pc, #236]	@ (80065c0 <HAL_RCC_OscConfig+0x240>)
 80064d4:	681b      	ldr	r3, [r3, #0]
 80064d6:	f023 02f8 	bic.w	r2, r3, #248	@ 0xf8
 80064da:	687b      	ldr	r3, [r7, #4]
 80064dc:	691b      	ldr	r3, [r3, #16]
 80064de:	00db      	lsls	r3, r3, #3
 80064e0:	4937      	ldr	r1, [pc, #220]	@ (80065c0 <HAL_RCC_OscConfig+0x240>)
 80064e2:	4313      	orrs	r3, r2
 80064e4:	600b      	str	r3, [r1, #0]
      if ((__HAL_RCC_GET_FLAG(RCC_FLAG_HSIRDY) != RESET) && (RCC_OscInitStruct->HSIState != RCC_HSI_ON))
 80064e6:	e03a      	b.n	800655e <HAL_RCC_OscConfig+0x1de>
      }
    }
    else
    {
      /* Check the HSI State */
      if ((RCC_OscInitStruct->HSIState) != RCC_HSI_OFF)
 80064e8:	687b      	ldr	r3, [r7, #4]
 80064ea:	68db      	ldr	r3, [r3, #12]
 80064ec:	2b00      	cmp	r3, #0
 80064ee:	d020      	beq.n	8006532 <HAL_RCC_OscConfig+0x1b2>
      {
        /* Enable the Internal High Speed oscillator (HSI). */
        __HAL_RCC_HSI_ENABLE();
 80064f0:	4b34      	ldr	r3, [pc, #208]	@ (80065c4 <HAL_RCC_OscConfig+0x244>)
 80064f2:	2201      	movs	r2, #1
 80064f4:	601a      	str	r2, [r3, #0]

        /* Get Start Tick*/
        tickstart = HAL_GetTick();
 80064f6:	f7ff fb89 	bl	8005c0c <HAL_GetTick>
 80064fa:	6138      	str	r0, [r7, #16]

        /* Wait till HSI is ready */
        while (__HAL_RCC_GET_FLAG(RCC_FLAG_HSIRDY) == RESET)
 80064fc:	e008      	b.n	8006510 <HAL_RCC_OscConfig+0x190>
        {
          if ((HAL_GetTick() - tickstart) > HSI_TIMEOUT_VALUE)
 80064fe:	f7ff fb85 	bl	8005c0c <HAL_GetTick>
 8006502:	4602      	mov	r2, r0
 8006504:	693b      	ldr	r3, [r7, #16]
 8006506:	1ad3      	subs	r3, r2, r3
 8006508:	2b02      	cmp	r3, #2
 800650a:	d901      	bls.n	8006510 <HAL_RCC_OscConfig+0x190>
          {
            return HAL_TIMEOUT;
 800650c:	2303      	movs	r3, #3
 800650e:	e1a8      	b.n	8006862 <HAL_RCC_OscConfig+0x4e2>
        while (__HAL_RCC_GET_FLAG(RCC_FLAG_HSIRDY) == RESET)
 8006510:	4b2b      	ldr	r3, [pc, #172]	@ (80065c0 <HAL_RCC_OscConfig+0x240>)
 8006512:	681b      	ldr	r3, [r3, #0]
 8006514:	f003 0302 	and.w	r3, r3, #2
 8006518:	2b00      	cmp	r3, #0
 800651a:	d0f0      	beq.n	80064fe <HAL_RCC_OscConfig+0x17e>
          }
        }

        /* Adjusts the Internal High Speed oscillator (HSI) calibration value. */
        __HAL_RCC_HSI_CALIBRATIONVALUE_ADJUST(RCC_OscInitStruct->HSICalibrationValue);
 800651c:	4b28      	ldr	r3, [pc, #160]	@ (80065c0 <HAL_RCC_OscConfig+0x240>)
 800651e:	681b      	ldr	r3, [r3, #0]
 8006520:	f023 02f8 	bic.w	r2, r3, #248	@ 0xf8
 8006524:	687b      	ldr	r3, [r7, #4]
 8006526:	691b      	ldr	r3, [r3, #16]
 8006528:	00db      	lsls	r3, r3, #3
 800652a:	4925      	ldr	r1, [pc, #148]	@ (80065c0 <HAL_RCC_OscConfig+0x240>)
 800652c:	4313      	orrs	r3, r2
 800652e:	600b      	str	r3, [r1, #0]
 8006530:	e015      	b.n	800655e <HAL_RCC_OscConfig+0x1de>
      }
      else
      {
        /* Disable the Internal High Speed oscillator (HSI). */
        __HAL_RCC_HSI_DISABLE();
 8006532:	4b24      	ldr	r3, [pc, #144]	@ (80065c4 <HAL_RCC_OscConfig+0x244>)
 8006534:	2200      	movs	r2, #0
 8006536:	601a      	str	r2, [r3, #0]

        /* Get Start Tick*/
        tickstart = HAL_GetTick();
 8006538:	f7ff fb68 	bl	8005c0c <HAL_GetTick>
 800653c:	6138      	str	r0, [r7, #16]

        /* Wait till HSI is ready */
        while (__HAL_RCC_GET_FLAG(RCC_FLAG_HSIRDY) != RESET)
 800653e:	e008      	b.n	8006552 <HAL_RCC_OscConfig+0x1d2>
        {
          if ((HAL_GetTick() - tickstart) > HSI_TIMEOUT_VALUE)
 8006540:	f7ff fb64 	bl	8005c0c <HAL_GetTick>
 8006544:	4602      	mov	r2, r0
 8006546:	693b      	ldr	r3, [r7, #16]
 8006548:	1ad3      	subs	r3, r2, r3
 800654a:	2b02      	cmp	r3, #2
 800654c:	d901      	bls.n	8006552 <HAL_RCC_OscConfig+0x1d2>
          {
            return HAL_TIMEOUT;
 800654e:	2303      	movs	r3, #3
 8006550:	e187      	b.n	8006862 <HAL_RCC_OscConfig+0x4e2>
        while (__HAL_RCC_GET_FLAG(RCC_FLAG_HSIRDY) != RESET)
 8006552:	4b1b      	ldr	r3, [pc, #108]	@ (80065c0 <HAL_RCC_OscConfig+0x240>)
 8006554:	681b      	ldr	r3, [r3, #0]
 8006556:	f003 0302 	and.w	r3, r3, #2
 800655a:	2b00      	cmp	r3, #0
 800655c:	d1f0      	bne.n	8006540 <HAL_RCC_OscConfig+0x1c0>
        }
      }
    }
  }
  /*------------------------------ LSI Configuration -------------------------*/
  if (((RCC_OscInitStruct->OscillatorType) & RCC_OSCILLATORTYPE_LSI) == RCC_OSCILLATORTYPE_LSI)
 800655e:	687b      	ldr	r3, [r7, #4]
 8006560:	681b      	ldr	r3, [r3, #0]
 8006562:	f003 0308 	and.w	r3, r3, #8
 8006566:	2b00      	cmp	r3, #0
 8006568:	d036      	beq.n	80065d8 <HAL_RCC_OscConfig+0x258>
  {
    /* Check the parameters */
    assert_param(IS_RCC_LSI(RCC_OscInitStruct->LSIState));

    /* Check the LSI State */
    if ((RCC_OscInitStruct->LSIState) != RCC_LSI_OFF)
 800656a:	687b      	ldr	r3, [r7, #4]
 800656c:	695b      	ldr	r3, [r3, #20]
 800656e:	2b00      	cmp	r3, #0
 8006570:	d016      	beq.n	80065a0 <HAL_RCC_OscConfig+0x220>
    {
      /* Enable the Internal Low Speed oscillator (LSI). */
      __HAL_RCC_LSI_ENABLE();
 8006572:	4b15      	ldr	r3, [pc, #84]	@ (80065c8 <HAL_RCC_OscConfig+0x248>)
 8006574:	2201      	movs	r2, #1
 8006576:	601a      	str	r2, [r3, #0]

      /* Get Start Tick*/
      tickstart = HAL_GetTick();
 8006578:	f7ff fb48 	bl	8005c0c <HAL_GetTick>
 800657c:	6138      	str	r0, [r7, #16]

      /* Wait till LSI is ready */
      while (__HAL_RCC_GET_FLAG(RCC_FLAG_LSIRDY) == RESET)
 800657e:	e008      	b.n	8006592 <HAL_RCC_OscConfig+0x212>
      {
        if ((HAL_GetTick() - tickstart) > LSI_TIMEOUT_VALUE)
 8006580:	f7ff fb44 	bl	8005c0c <HAL_GetTick>
 8006584:	4602      	mov	r2, r0
 8006586:	693b      	ldr	r3, [r7, #16]
 8006588:	1ad3      	subs	r3, r2, r3
 800658a:	2b02      	cmp	r3, #2
 800658c:	d901      	bls.n	8006592 <HAL_RCC_OscConfig+0x212>
        {
          return HAL_TIMEOUT;
 800658e:	2303      	movs	r3, #3
 8006590:	e167      	b.n	8006862 <HAL_RCC_OscConfig+0x4e2>
      while (__HAL_RCC_GET_FLAG(RCC_FLAG_LSIRDY) == RESET)
 8006592:	4b0b      	ldr	r3, [pc, #44]	@ (80065c0 <HAL_RCC_OscConfig+0x240>)
 8006594:	6f5b      	ldr	r3, [r3, #116]	@ 0x74
 8006596:	f003 0302 	and.w	r3, r3, #2
 800659a:	2b00      	cmp	r3, #0
 800659c:	d0f0      	beq.n	8006580 <HAL_RCC_OscConfig+0x200>
 800659e:	e01b      	b.n	80065d8 <HAL_RCC_OscConfig+0x258>
      }
    }
    else
    {
      /* Disable the Internal Low Speed oscillator (LSI). */
      __HAL_RCC_LSI_DISABLE();
 80065a0:	4b09      	ldr	r3, [pc, #36]	@ (80065c8 <HAL_RCC_OscConfig+0x248>)
 80065a2:	2200      	movs	r2, #0
 80065a4:	601a      	str	r2, [r3, #0]

      /* Get Start Tick */
      tickstart = HAL_GetTick();
 80065a6:	f7ff fb31 	bl	8005c0c <HAL_GetTick>
 80065aa:	6138      	str	r0, [r7, #16]

      /* Wait till LSI is ready */
      while (__HAL_RCC_GET_FLAG(RCC_FLAG_LSIRDY) != RESET)
 80065ac:	e00e      	b.n	80065cc <HAL_RCC_OscConfig+0x24c>
      {
        if ((HAL_GetTick() - tickstart) > LSI_TIMEOUT_VALUE)
 80065ae:	f7ff fb2d 	bl	8005c0c <HAL_GetTick>
 80065b2:	4602      	mov	r2, r0
 80065b4:	693b      	ldr	r3, [r7, #16]
 80065b6:	1ad3      	subs	r3, r2, r3
 80065b8:	2b02      	cmp	r3, #2
 80065ba:	d907      	bls.n	80065cc <HAL_RCC_OscConfig+0x24c>
        {
          return HAL_TIMEOUT;
 80065bc:	2303      	movs	r3, #3
 80065be:	e150      	b.n	8006862 <HAL_RCC_OscConfig+0x4e2>
 80065c0:	40023800 	.word	0x40023800
 80065c4:	42470000 	.word	0x42470000
 80065c8:	42470e80 	.word	0x42470e80
      while (__HAL_RCC_GET_FLAG(RCC_FLAG_LSIRDY) != RESET)
 80065cc:	4b88      	ldr	r3, [pc, #544]	@ (80067f0 <HAL_RCC_OscConfig+0x470>)
 80065ce:	6f5b      	ldr	r3, [r3, #116]	@ 0x74
 80065d0:	f003 0302 	and.w	r3, r3, #2
 80065d4:	2b00      	cmp	r3, #0
 80065d6:	d1ea      	bne.n	80065ae <HAL_RCC_OscConfig+0x22e>
        }
      }
    }
  }
  /*------------------------------ LSE Configuration -------------------------*/
  if (((RCC_OscInitStruct->OscillatorType) & RCC_OSCILLATORTYPE_LSE) == RCC_OSCILLATORTYPE_LSE)
 80065d8:	687b      	ldr	r3, [r7, #4]
 80065da:	681b      	ldr	r3, [r3, #0]
 80065dc:	f003 0304 	and.w	r3, r3, #4
 80065e0:	2b00      	cmp	r3, #0
 80065e2:	f000 8097 	beq.w	8006714 <HAL_RCC_OscConfig+0x394>
  {
    FlagStatus       pwrclkchanged = RESET;
 80065e6:	2300      	movs	r3, #0
 80065e8:	75fb      	strb	r3, [r7, #23]
    /* Check the parameters */
    assert_param(IS_RCC_LSE(RCC_OscInitStruct->LSEState));

    /* Update LSE configuration in Backup Domain control register    */
    /* Requires to enable write access to Backup Domain of necessary */
    if (__HAL_RCC_PWR_IS_CLK_DISABLED())
 80065ea:	4b81      	ldr	r3, [pc, #516]	@ (80067f0 <HAL_RCC_OscConfig+0x470>)
 80065ec:	6c1b      	ldr	r3, [r3, #64]	@ 0x40
 80065ee:	f003 5380 	and.w	r3, r3, #268435456	@ 0x10000000
 80065f2:	2b00      	cmp	r3, #0
 80065f4:	d10f      	bne.n	8006616 <HAL_RCC_OscConfig+0x296>
    {
      __HAL_RCC_PWR_CLK_ENABLE();
 80065f6:	2300      	movs	r3, #0
 80065f8:	60bb      	str	r3, [r7, #8]
 80065fa:	4b7d      	ldr	r3, [pc, #500]	@ (80067f0 <HAL_RCC_OscConfig+0x470>)
 80065fc:	6c1b      	ldr	r3, [r3, #64]	@ 0x40
 80065fe:	4a7c      	ldr	r2, [pc, #496]	@ (80067f0 <HAL_RCC_OscConfig+0x470>)
 8006600:	f043 5380 	orr.w	r3, r3, #268435456	@ 0x10000000
 8006604:	6413      	str	r3, [r2, #64]	@ 0x40
 8006606:	4b7a      	ldr	r3, [pc, #488]	@ (80067f0 <HAL_RCC_OscConfig+0x470>)
 8006608:	6c1b      	ldr	r3, [r3, #64]	@ 0x40
 800660a:	f003 5380 	and.w	r3, r3, #268435456	@ 0x10000000
 800660e:	60bb      	str	r3, [r7, #8]
 8006610:	68bb      	ldr	r3, [r7, #8]
      pwrclkchanged = SET;
 8006612:	2301      	movs	r3, #1
 8006614:	75fb      	strb	r3, [r7, #23]
    }

    if (HAL_IS_BIT_CLR(PWR->CR, PWR_CR_DBP))
 8006616:	4b77      	ldr	r3, [pc, #476]	@ (80067f4 <HAL_RCC_OscConfig+0x474>)
 8006618:	681b      	ldr	r3, [r3, #0]
 800661a:	f403 7380 	and.w	r3, r3, #256	@ 0x100
 800661e:	2b00      	cmp	r3, #0
 8006620:	d118      	bne.n	8006654 <HAL_RCC_OscConfig+0x2d4>
    {
      /* Enable write access to Backup domain */
      SET_BIT(PWR->CR, PWR_CR_DBP);
 8006622:	4b74      	ldr	r3, [pc, #464]	@ (80067f4 <HAL_RCC_OscConfig+0x474>)
 8006624:	681b      	ldr	r3, [r3, #0]
 8006626:	4a73      	ldr	r2, [pc, #460]	@ (80067f4 <HAL_RCC_OscConfig+0x474>)
 8006628:	f443 7380 	orr.w	r3, r3, #256	@ 0x100
 800662c:	6013      	str	r3, [r2, #0]

      /* Wait for Backup domain Write protection disable */
      tickstart = HAL_GetTick();
 800662e:	f7ff faed 	bl	8005c0c <HAL_GetTick>
 8006632:	6138      	str	r0, [r7, #16]

      while (HAL_IS_BIT_CLR(PWR->CR, PWR_CR_DBP))
 8006634:	e008      	b.n	8006648 <HAL_RCC_OscConfig+0x2c8>
      {
        if ((HAL_GetTick() - tickstart) > RCC_DBP_TIMEOUT_VALUE)
 8006636:	f7ff fae9 	bl	8005c0c <HAL_GetTick>
 800663a:	4602      	mov	r2, r0
 800663c:	693b      	ldr	r3, [r7, #16]
 800663e:	1ad3      	subs	r3, r2, r3
 8006640:	2b02      	cmp	r3, #2
 8006642:	d901      	bls.n	8006648 <HAL_RCC_OscConfig+0x2c8>
        {
          return HAL_TIMEOUT;
 8006644:	2303      	movs	r3, #3
 8006646:	e10c      	b.n	8006862 <HAL_RCC_OscConfig+0x4e2>
      while (HAL_IS_BIT_CLR(PWR->CR, PWR_CR_DBP))
 8006648:	4b6a      	ldr	r3, [pc, #424]	@ (80067f4 <HAL_RCC_OscConfig+0x474>)
 800664a:	681b      	ldr	r3, [r3, #0]
 800664c:	f403 7380 	and.w	r3, r3, #256	@ 0x100
 8006650:	2b00      	cmp	r3, #0
 8006652:	d0f0      	beq.n	8006636 <HAL_RCC_OscConfig+0x2b6>
        }
      }
    }

    /* Set the new LSE configuration -----------------------------------------*/
    __HAL_RCC_LSE_CONFIG(RCC_OscInitStruct->LSEState);
 8006654:	687b      	ldr	r3, [r7, #4]
 8006656:	689b      	ldr	r3, [r3, #8]
 8006658:	2b01      	cmp	r3, #1
 800665a:	d106      	bne.n	800666a <HAL_RCC_OscConfig+0x2ea>
 800665c:	4b64      	ldr	r3, [pc, #400]	@ (80067f0 <HAL_RCC_OscConfig+0x470>)
 800665e:	6f1b      	ldr	r3, [r3, #112]	@ 0x70
 8006660:	4a63      	ldr	r2, [pc, #396]	@ (80067f0 <HAL_RCC_OscConfig+0x470>)
 8006662:	f043 0301 	orr.w	r3, r3, #1
 8006666:	6713      	str	r3, [r2, #112]	@ 0x70
 8006668:	e01c      	b.n	80066a4 <HAL_RCC_OscConfig+0x324>
 800666a:	687b      	ldr	r3, [r7, #4]
 800666c:	689b      	ldr	r3, [r3, #8]
 800666e:	2b05      	cmp	r3, #5
 8006670:	d10c      	bne.n	800668c <HAL_RCC_OscConfig+0x30c>
 8006672:	4b5f      	ldr	r3, [pc, #380]	@ (80067f0 <HAL_RCC_OscConfig+0x470>)
 8006674:	6f1b      	ldr	r3, [r3, #112]	@ 0x70
 8006676:	4a5e      	ldr	r2, [pc, #376]	@ (80067f0 <HAL_RCC_OscConfig+0x470>)
 8006678:	f043 0304 	orr.w	r3, r3, #4
 800667c:	6713      	str	r3, [r2, #112]	@ 0x70
 800667e:	4b5c      	ldr	r3, [pc, #368]	@ (80067f0 <HAL_RCC_OscConfig+0x470>)
 8006680:	6f1b      	ldr	r3, [r3, #112]	@ 0x70
 8006682:	4a5b      	ldr	r2, [pc, #364]	@ (80067f0 <HAL_RCC_OscConfig+0x470>)
 8006684:	f043 0301 	orr.w	r3, r3, #1
 8006688:	6713      	str	r3, [r2, #112]	@ 0x70
 800668a:	e00b      	b.n	80066a4 <HAL_RCC_OscConfig+0x324>
 800668c:	4b58      	ldr	r3, [pc, #352]	@ (80067f0 <HAL_RCC_OscConfig+0x470>)
 800668e:	6f1b      	ldr	r3, [r3, #112]	@ 0x70
 8006690:	4a57      	ldr	r2, [pc, #348]	@ (80067f0 <HAL_RCC_OscConfig+0x470>)
 8006692:	f023 0301 	bic.w	r3, r3, #1
 8006696:	6713      	str	r3, [r2, #112]	@ 0x70
 8006698:	4b55      	ldr	r3, [pc, #340]	@ (80067f0 <HAL_RCC_OscConfig+0x470>)
 800669a:	6f1b      	ldr	r3, [r3, #112]	@ 0x70
 800669c:	4a54      	ldr	r2, [pc, #336]	@ (80067f0 <HAL_RCC_OscConfig+0x470>)
 800669e:	f023 0304 	bic.w	r3, r3, #4
 80066a2:	6713      	str	r3, [r2, #112]	@ 0x70
    /* Check the LSE State */
    if ((RCC_OscInitStruct->LSEState) != RCC_LSE_OFF)
 80066a4:	687b      	ldr	r3, [r7, #4]
 80066a6:	689b      	ldr	r3, [r3, #8]
 80066a8:	2b00      	cmp	r3, #0
 80066aa:	d015      	beq.n	80066d8 <HAL_RCC_OscConfig+0x358>
    {
      /* Get Start Tick*/
      tickstart = HAL_GetTick();
 80066ac:	f7ff faae 	bl	8005c0c <HAL_GetTick>
 80066b0:	6138      	str	r0, [r7, #16]

      /* Wait till LSE is ready */
      while (__HAL_RCC_GET_FLAG(RCC_FLAG_LSERDY) == RESET)
 80066b2:	e00a      	b.n	80066ca <HAL_RCC_OscConfig+0x34a>
      {
        if ((HAL_GetTick() - tickstart) > RCC_LSE_TIMEOUT_VALUE)
 80066b4:	f7ff faaa 	bl	8005c0c <HAL_GetTick>
 80066b8:	4602      	mov	r2, r0
 80066ba:	693b      	ldr	r3, [r7, #16]
 80066bc:	1ad3      	subs	r3, r2, r3
 80066be:	f241 3288 	movw	r2, #5000	@ 0x1388
 80066c2:	4293      	cmp	r3, r2
 80066c4:	d901      	bls.n	80066ca <HAL_RCC_OscConfig+0x34a>
        {
          return HAL_TIMEOUT;
 80066c6:	2303      	movs	r3, #3
 80066c8:	e0cb      	b.n	8006862 <HAL_RCC_OscConfig+0x4e2>
      while (__HAL_RCC_GET_FLAG(RCC_FLAG_LSERDY) == RESET)
 80066ca:	4b49      	ldr	r3, [pc, #292]	@ (80067f0 <HAL_RCC_OscConfig+0x470>)
 80066cc:	6f1b      	ldr	r3, [r3, #112]	@ 0x70
 80066ce:	f003 0302 	and.w	r3, r3, #2
 80066d2:	2b00      	cmp	r3, #0
 80066d4:	d0ee      	beq.n	80066b4 <HAL_RCC_OscConfig+0x334>
 80066d6:	e014      	b.n	8006702 <HAL_RCC_OscConfig+0x382>
      }
    }
    else
    {
      /* Get Start Tick */
      tickstart = HAL_GetTick();
 80066d8:	f7ff fa98 	bl	8005c0c <HAL_GetTick>
 80066dc:	6138      	str	r0, [r7, #16]

      /* Wait till LSE is ready */
      while (__HAL_RCC_GET_FLAG(RCC_FLAG_LSERDY) != RESET)
 80066de:	e00a      	b.n	80066f6 <HAL_RCC_OscConfig+0x376>
      {
        if ((HAL_GetTick() - tickstart) > RCC_LSE_TIMEOUT_VALUE)
 80066e0:	f7ff fa94 	bl	8005c0c <HAL_GetTick>
 80066e4:	4602      	mov	r2, r0
 80066e6:	693b      	ldr	r3, [r7, #16]
 80066e8:	1ad3      	subs	r3, r2, r3
 80066ea:	f241 3288 	movw	r2, #5000	@ 0x1388
 80066ee:	4293      	cmp	r3, r2
 80066f0:	d901      	bls.n	80066f6 <HAL_RCC_OscConfig+0x376>
        {
          return HAL_TIMEOUT;
 80066f2:	2303      	movs	r3, #3
 80066f4:	e0b5      	b.n	8006862 <HAL_RCC_OscConfig+0x4e2>
      while (__HAL_RCC_GET_FLAG(RCC_FLAG_LSERDY) != RESET)
 80066f6:	4b3e      	ldr	r3, [pc, #248]	@ (80067f0 <HAL_RCC_OscConfig+0x470>)
 80066f8:	6f1b      	ldr	r3, [r3, #112]	@ 0x70
 80066fa:	f003 0302 	and.w	r3, r3, #2
 80066fe:	2b00      	cmp	r3, #0
 8006700:	d1ee      	bne.n	80066e0 <HAL_RCC_OscConfig+0x360>
        }
      }
    }

    /* Restore clock configuration if changed */
    if (pwrclkchanged == SET)
 8006702:	7dfb      	ldrb	r3, [r7, #23]
 8006704:	2b01      	cmp	r3, #1
 8006706:	d105      	bne.n	8006714 <HAL_RCC_OscConfig+0x394>
    {
      __HAL_RCC_PWR_CLK_DISABLE();
 8006708:	4b39      	ldr	r3, [pc, #228]	@ (80067f0 <HAL_RCC_OscConfig+0x470>)
 800670a:	6c1b      	ldr	r3, [r3, #64]	@ 0x40
 800670c:	4a38      	ldr	r2, [pc, #224]	@ (80067f0 <HAL_RCC_OscConfig+0x470>)
 800670e:	f023 5380 	bic.w	r3, r3, #268435456	@ 0x10000000
 8006712:	6413      	str	r3, [r2, #64]	@ 0x40
    }
  }
  /*-------------------------------- PLL Configuration -----------------------*/
  /* Check the parameters */
  assert_param(IS_RCC_PLL(RCC_OscInitStruct->PLL.PLLState));
  if ((RCC_OscInitStruct->PLL.PLLState) != RCC_PLL_NONE)
 8006714:	687b      	ldr	r3, [r7, #4]
 8006716:	699b      	ldr	r3, [r3, #24]
 8006718:	2b00      	cmp	r3, #0
 800671a:	f000 80a1 	beq.w	8006860 <HAL_RCC_OscConfig+0x4e0>
  {
    /* Check if the PLL is used as system clock or not */
    if (__HAL_RCC_GET_SYSCLK_SOURCE() != RCC_CFGR_SWS_PLL)
 800671e:	4b34      	ldr	r3, [pc, #208]	@ (80067f0 <HAL_RCC_OscConfig+0x470>)
 8006720:	689b      	ldr	r3, [r3, #8]
 8006722:	f003 030c 	and.w	r3, r3, #12
 8006726:	2b08      	cmp	r3, #8
 8006728:	d05c      	beq.n	80067e4 <HAL_RCC_OscConfig+0x464>
    {
      if ((RCC_OscInitStruct->PLL.PLLState) == RCC_PLL_ON)
 800672a:	687b      	ldr	r3, [r7, #4]
 800672c:	699b      	ldr	r3, [r3, #24]
 800672e:	2b02      	cmp	r3, #2
 8006730:	d141      	bne.n	80067b6 <HAL_RCC_OscConfig+0x436>
        assert_param(IS_RCC_PLLN_VALUE(RCC_OscInitStruct->PLL.PLLN));
        assert_param(IS_RCC_PLLP_VALUE(RCC_OscInitStruct->PLL.PLLP));
        assert_param(IS_RCC_PLLQ_VALUE(RCC_OscInitStruct->PLL.PLLQ));

        /* Disable the main PLL. */
        __HAL_RCC_PLL_DISABLE();
 8006732:	4b31      	ldr	r3, [pc, #196]	@ (80067f8 <HAL_RCC_OscConfig+0x478>)
 8006734:	2200      	movs	r2, #0
 8006736:	601a      	str	r2, [r3, #0]

        /* Get Start Tick */
        tickstart = HAL_GetTick();
 8006738:	f7ff fa68 	bl	8005c0c <HAL_GetTick>
 800673c:	6138      	str	r0, [r7, #16]

        /* Wait till PLL is disabled */
        while (__HAL_RCC_GET_FLAG(RCC_FLAG_PLLRDY) != RESET)
 800673e:	e008      	b.n	8006752 <HAL_RCC_OscConfig+0x3d2>
        {
          if ((HAL_GetTick() - tickstart) > PLL_TIMEOUT_VALUE)
 8006740:	f7ff fa64 	bl	8005c0c <HAL_GetTick>
 8006744:	4602      	mov	r2, r0
 8006746:	693b      	ldr	r3, [r7, #16]
 8006748:	1ad3      	subs	r3, r2, r3
 800674a:	2b02      	cmp	r3, #2
 800674c:	d901      	bls.n	8006752 <HAL_RCC_OscConfig+0x3d2>
          {
            return HAL_TIMEOUT;
 800674e:	2303      	movs	r3, #3
 8006750:	e087      	b.n	8006862 <HAL_RCC_OscConfig+0x4e2>
        while (__HAL_RCC_GET_FLAG(RCC_FLAG_PLLRDY) != RESET)
 8006752:	4b27      	ldr	r3, [pc, #156]	@ (80067f0 <HAL_RCC_OscConfig+0x470>)
 8006754:	681b      	ldr	r3, [r3, #0]
 8006756:	f003 7300 	and.w	r3, r3, #33554432	@ 0x2000000
 800675a:	2b00      	cmp	r3, #0
 800675c:	d1f0      	bne.n	8006740 <HAL_RCC_OscConfig+0x3c0>
          }
        }

        /* Configure the main PLL clock source, multiplication and division factors. */
        WRITE_REG(RCC->PLLCFGR, (RCC_OscInitStruct->PLL.PLLSource                                            | \
 800675e:	687b      	ldr	r3, [r7, #4]
 8006760:	69da      	ldr	r2, [r3, #28]
 8006762:	687b      	ldr	r3, [r7, #4]
 8006764:	6a1b      	ldr	r3, [r3, #32]
 8006766:	431a      	orrs	r2, r3
 8006768:	687b      	ldr	r3, [r7, #4]
 800676a:	6a5b      	ldr	r3, [r3, #36]	@ 0x24
 800676c:	019b      	lsls	r3, r3, #6
 800676e:	431a      	orrs	r2, r3
 8006770:	687b      	ldr	r3, [r7, #4]
 8006772:	6a9b      	ldr	r3, [r3, #40]	@ 0x28
 8006774:	085b      	lsrs	r3, r3, #1
 8006776:	3b01      	subs	r3, #1
 8006778:	041b      	lsls	r3, r3, #16
 800677a:	431a      	orrs	r2, r3
 800677c:	687b      	ldr	r3, [r7, #4]
 800677e:	6adb      	ldr	r3, [r3, #44]	@ 0x2c
 8006780:	061b      	lsls	r3, r3, #24
 8006782:	491b      	ldr	r1, [pc, #108]	@ (80067f0 <HAL_RCC_OscConfig+0x470>)
 8006784:	4313      	orrs	r3, r2
 8006786:	604b      	str	r3, [r1, #4]
                                 RCC_OscInitStruct->PLL.PLLM                                                 | \
                                 (RCC_OscInitStruct->PLL.PLLN << RCC_PLLCFGR_PLLN_Pos)             | \
                                 (((RCC_OscInitStruct->PLL.PLLP >> 1U) - 1U) << RCC_PLLCFGR_PLLP_Pos) | \
                                 (RCC_OscInitStruct->PLL.PLLQ << RCC_PLLCFGR_PLLQ_Pos)));
        /* Enable the main PLL. */
        __HAL_RCC_PLL_ENABLE();
 8006788:	4b1b      	ldr	r3, [pc, #108]	@ (80067f8 <HAL_RCC_OscConfig+0x478>)
 800678a:	2201      	movs	r2, #1
 800678c:	601a      	str	r2, [r3, #0]

        /* Get Start Tick */
        tickstart = HAL_GetTick();
 800678e:	f7ff fa3d 	bl	8005c0c <HAL_GetTick>
 8006792:	6138      	str	r0, [r7, #16]

        /* Wait till PLL is ready */
        while (__HAL_RCC_GET_FLAG(RCC_FLAG_PLLRDY) == RESET)
 8006794:	e008      	b.n	80067a8 <HAL_RCC_OscConfig+0x428>
        {
          if ((HAL_GetTick() - tickstart) > PLL_TIMEOUT_VALUE)
 8006796:	f7ff fa39 	bl	8005c0c <HAL_GetTick>
 800679a:	4602      	mov	r2, r0
 800679c:	693b      	ldr	r3, [r7, #16]
 800679e:	1ad3      	subs	r3, r2, r3
 80067a0:	2b02      	cmp	r3, #2
 80067a2:	d901      	bls.n	80067a8 <HAL_RCC_OscConfig+0x428>
          {
            return HAL_TIMEOUT;
 80067a4:	2303      	movs	r3, #3
 80067a6:	e05c      	b.n	8006862 <HAL_RCC_OscConfig+0x4e2>
        while (__HAL_RCC_GET_FLAG(RCC_FLAG_PLLRDY) == RESET)
 80067a8:	4b11      	ldr	r3, [pc, #68]	@ (80067f0 <HAL_RCC_OscConfig+0x470>)
 80067aa:	681b      	ldr	r3, [r3, #0]
 80067ac:	f003 7300 	and.w	r3, r3, #33554432	@ 0x2000000
 80067b0:	2b00      	cmp	r3, #0
 80067b2:	d0f0      	beq.n	8006796 <HAL_RCC_OscConfig+0x416>
 80067b4:	e054      	b.n	8006860 <HAL_RCC_OscConfig+0x4e0>
        }
      }
      else
      {
        /* Disable the main PLL. */
        __HAL_RCC_PLL_DISABLE();
 80067b6:	4b10      	ldr	r3, [pc, #64]	@ (80067f8 <HAL_RCC_OscConfig+0x478>)
 80067b8:	2200      	movs	r2, #0
 80067ba:	601a      	str	r2, [r3, #0]

        /* Get Start Tick */
        tickstart = HAL_GetTick();
 80067bc:	f7ff fa26 	bl	8005c0c <HAL_GetTick>
 80067c0:	6138      	str	r0, [r7, #16]

        /* Wait till PLL is disabled */
        while (__HAL_RCC_GET_FLAG(RCC_FLAG_PLLRDY) != RESET)
 80067c2:	e008      	b.n	80067d6 <HAL_RCC_OscConfig+0x456>
        {
          if ((HAL_GetTick() - tickstart) > PLL_TIMEOUT_VALUE)
 80067c4:	f7ff fa22 	bl	8005c0c <HAL_GetTick>
 80067c8:	4602      	mov	r2, r0
 80067ca:	693b      	ldr	r3, [r7, #16]
 80067cc:	1ad3      	subs	r3, r2, r3
 80067ce:	2b02      	cmp	r3, #2
 80067d0:	d901      	bls.n	80067d6 <HAL_RCC_OscConfig+0x456>
          {
            return HAL_TIMEOUT;
 80067d2:	2303      	movs	r3, #3
 80067d4:	e045      	b.n	8006862 <HAL_RCC_OscConfig+0x4e2>
        while (__HAL_RCC_GET_FLAG(RCC_FLAG_PLLRDY) != RESET)
 80067d6:	4b06      	ldr	r3, [pc, #24]	@ (80067f0 <HAL_RCC_OscConfig+0x470>)
 80067d8:	681b      	ldr	r3, [r3, #0]
 80067da:	f003 7300 	and.w	r3, r3, #33554432	@ 0x2000000
 80067de:	2b00      	cmp	r3, #0
 80067e0:	d1f0      	bne.n	80067c4 <HAL_RCC_OscConfig+0x444>
 80067e2:	e03d      	b.n	8006860 <HAL_RCC_OscConfig+0x4e0>
      }
    }
    else
    {
      /* Check if there is a request to disable the PLL used as System clock source */
      if ((RCC_OscInitStruct->PLL.PLLState) == RCC_PLL_OFF)
 80067e4:	687b      	ldr	r3, [r7, #4]
 80067e6:	699b      	ldr	r3, [r3, #24]
 80067e8:	2b01      	cmp	r3, #1
 80067ea:	d107      	bne.n	80067fc <HAL_RCC_OscConfig+0x47c>
      {
        return HAL_ERROR;
 80067ec:	2301      	movs	r3, #1
 80067ee:	e038      	b.n	8006862 <HAL_RCC_OscConfig+0x4e2>
 80067f0:	40023800 	.word	0x40023800
 80067f4:	40007000 	.word	0x40007000
 80067f8:	42470060 	.word	0x42470060
      }
      else
      {
        /* Do not return HAL_ERROR if request repeats the current configuration */
        pll_config = RCC->PLLCFGR;
 80067fc:	4b1b      	ldr	r3, [pc, #108]	@ (800686c <HAL_RCC_OscConfig+0x4ec>)
 80067fe:	685b      	ldr	r3, [r3, #4]
 8006800:	60fb      	str	r3, [r7, #12]
            (READ_BIT(pll_config, RCC_PLLCFGR_PLLN) != (RCC_OscInitStruct->PLL.PLLN) << RCC_PLLCFGR_PLLN_Pos) ||
            (READ_BIT(pll_config, RCC_PLLCFGR_PLLP) != (((RCC_OscInitStruct->PLL.PLLP >> 1U) - 1U)) << RCC_PLLCFGR_PLLP_Pos) ||
            (READ_BIT(pll_config, RCC_PLLCFGR_PLLQ) != (RCC_OscInitStruct->PLL.PLLQ << RCC_PLLCFGR_PLLQ_Pos)) ||
            (READ_BIT(pll_config, RCC_PLLCFGR_PLLR) != (RCC_OscInitStruct->PLL.PLLR << RCC_PLLCFGR_PLLR_Pos)))
#else
        if (((RCC_OscInitStruct->PLL.PLLState) == RCC_PLL_OFF) ||
 8006802:	687b      	ldr	r3, [r7, #4]
 8006804:	699b      	ldr	r3, [r3, #24]
 8006806:	2b01      	cmp	r3, #1
 8006808:	d028      	beq.n	800685c <HAL_RCC_OscConfig+0x4dc>
            (READ_BIT(pll_config, RCC_PLLCFGR_PLLSRC) != RCC_OscInitStruct->PLL.PLLSource) ||
 800680a:	68fb      	ldr	r3, [r7, #12]
 800680c:	f403 0280 	and.w	r2, r3, #4194304	@ 0x400000
 8006810:	687b      	ldr	r3, [r7, #4]
 8006812:	69db      	ldr	r3, [r3, #28]
        if (((RCC_OscInitStruct->PLL.PLLState) == RCC_PLL_OFF) ||
 8006814:	429a      	cmp	r2, r3
 8006816:	d121      	bne.n	800685c <HAL_RCC_OscConfig+0x4dc>
            (READ_BIT(pll_config, RCC_PLLCFGR_PLLM) != (RCC_OscInitStruct->PLL.PLLM) << RCC_PLLCFGR_PLLM_Pos) ||
 8006818:	68fb      	ldr	r3, [r7, #12]
 800681a:	f003 023f 	and.w	r2, r3, #63	@ 0x3f
 800681e:	687b      	ldr	r3, [r7, #4]
 8006820:	6a1b      	ldr	r3, [r3, #32]
            (READ_BIT(pll_config, RCC_PLLCFGR_PLLSRC) != RCC_OscInitStruct->PLL.PLLSource) ||
 8006822:	429a      	cmp	r2, r3
 8006824:	d11a      	bne.n	800685c <HAL_RCC_OscConfig+0x4dc>
            (READ_BIT(pll_config, RCC_PLLCFGR_PLLN) != (RCC_OscInitStruct->PLL.PLLN) << RCC_PLLCFGR_PLLN_Pos) ||
 8006826:	68fa      	ldr	r2, [r7, #12]
 8006828:	f647 73c0 	movw	r3, #32704	@ 0x7fc0
 800682c:	4013      	ands	r3, r2
 800682e:	687a      	ldr	r2, [r7, #4]
 8006830:	6a52      	ldr	r2, [r2, #36]	@ 0x24
 8006832:	0192      	lsls	r2, r2, #6
            (READ_BIT(pll_config, RCC_PLLCFGR_PLLM) != (RCC_OscInitStruct->PLL.PLLM) << RCC_PLLCFGR_PLLM_Pos) ||
 8006834:	4293      	cmp	r3, r2
 8006836:	d111      	bne.n	800685c <HAL_RCC_OscConfig+0x4dc>
            (READ_BIT(pll_config, RCC_PLLCFGR_PLLP) != (((RCC_OscInitStruct->PLL.PLLP >> 1U) - 1U)) << RCC_PLLCFGR_PLLP_Pos) ||
 8006838:	68fb      	ldr	r3, [r7, #12]
 800683a:	f403 3240 	and.w	r2, r3, #196608	@ 0x30000
 800683e:	687b      	ldr	r3, [r7, #4]
 8006840:	6a9b      	ldr	r3, [r3, #40]	@ 0x28
 8006842:	085b      	lsrs	r3, r3, #1
 8006844:	3b01      	subs	r3, #1
 8006846:	041b      	lsls	r3, r3, #16
            (READ_BIT(pll_config, RCC_PLLCFGR_PLLN) != (RCC_OscInitStruct->PLL.PLLN) << RCC_PLLCFGR_PLLN_Pos) ||
 8006848:	429a      	cmp	r2, r3
 800684a:	d107      	bne.n	800685c <HAL_RCC_OscConfig+0x4dc>
            (READ_BIT(pll_config, RCC_PLLCFGR_PLLQ) != (RCC_OscInitStruct->PLL.PLLQ << RCC_PLLCFGR_PLLQ_Pos)))
 800684c:	68fb      	ldr	r3, [r7, #12]
 800684e:	f003 6270 	and.w	r2, r3, #251658240	@ 0xf000000
 8006852:	687b      	ldr	r3, [r7, #4]
 8006854:	6adb      	ldr	r3, [r3, #44]	@ 0x2c
 8006856:	061b      	lsls	r3, r3, #24
            (READ_BIT(pll_config, RCC_PLLCFGR_PLLP) != (((RCC_OscInitStruct->PLL.PLLP >> 1U) - 1U)) << RCC_PLLCFGR_PLLP_Pos) ||
 8006858:	429a      	cmp	r2, r3
 800685a:	d001      	beq.n	8006860 <HAL_RCC_OscConfig+0x4e0>
#endif /* RCC_PLLCFGR_PLLR */
        {
          return HAL_ERROR;
 800685c:	2301      	movs	r3, #1
 800685e:	e000      	b.n	8006862 <HAL_RCC_OscConfig+0x4e2>
        }
      }
    }
  }
  return HAL_OK;
 8006860:	2300      	movs	r3, #0
}
 8006862:	4618      	mov	r0, r3
 8006864:	3718      	adds	r7, #24
 8006866:	46bd      	mov	sp, r7
 8006868:	bd80      	pop	{r7, pc}
 800686a:	bf00      	nop
 800686c:	40023800 	.word	0x40023800

08006870 <HAL_RCC_ClockConfig>:
  *         HPRE[3:0] bits to ensure that HCLK not exceed the maximum allowed frequency
  *         (for more details refer to section above "Initialization/de-initialization functions")
  * @retval None
  */
HAL_StatusTypeDef HAL_RCC_ClockConfig(RCC_ClkInitTypeDef  *RCC_ClkInitStruct, uint32_t FLatency)
{
 8006870:	b580      	push	{r7, lr}
 8006872:	b084      	sub	sp, #16
 8006874:	af00      	add	r7, sp, #0
 8006876:	6078      	str	r0, [r7, #4]
 8006878:	6039      	str	r1, [r7, #0]
  uint32_t tickstart;

  /* Check Null pointer */
  if (RCC_ClkInitStruct == NULL)
 800687a:	687b      	ldr	r3, [r7, #4]
 800687c:	2b00      	cmp	r3, #0
 800687e:	d101      	bne.n	8006884 <HAL_RCC_ClockConfig+0x14>
  {
    return HAL_ERROR;
 8006880:	2301      	movs	r3, #1
 8006882:	e0cc      	b.n	8006a1e <HAL_RCC_ClockConfig+0x1ae>
  /* To correctly read data from FLASH memory, the number of wait states (LATENCY)
    must be correctly programmed according to the frequency of the CPU clock
    (HCLK) and the supply voltage of the device. */

  /* Increasing the number of wait states because of higher CPU frequency */
  if (FLatency > __HAL_FLASH_GET_LATENCY())
 8006884:	4b68      	ldr	r3, [pc, #416]	@ (8006a28 <HAL_RCC_ClockConfig+0x1b8>)
 8006886:	681b      	ldr	r3, [r3, #0]
 8006888:	f003 0307 	and.w	r3, r3, #7
 800688c:	683a      	ldr	r2, [r7, #0]
 800688e:	429a      	cmp	r2, r3
 8006890:	d90c      	bls.n	80068ac <HAL_RCC_ClockConfig+0x3c>
  {
    /* Program the new number of wait states to the LATENCY bits in the FLASH_ACR register */
    __HAL_FLASH_SET_LATENCY(FLatency);
 8006892:	4b65      	ldr	r3, [pc, #404]	@ (8006a28 <HAL_RCC_ClockConfig+0x1b8>)
 8006894:	683a      	ldr	r2, [r7, #0]
 8006896:	b2d2      	uxtb	r2, r2
 8006898:	701a      	strb	r2, [r3, #0]

    /* Check that the new number of wait states is taken into account to access the Flash
    memory by reading the FLASH_ACR register */
    if (__HAL_FLASH_GET_LATENCY() != FLatency)
 800689a:	4b63      	ldr	r3, [pc, #396]	@ (8006a28 <HAL_RCC_ClockConfig+0x1b8>)
 800689c:	681b      	ldr	r3, [r3, #0]
 800689e:	f003 0307 	and.w	r3, r3, #7
 80068a2:	683a      	ldr	r2, [r7, #0]
 80068a4:	429a      	cmp	r2, r3
 80068a6:	d001      	beq.n	80068ac <HAL_RCC_ClockConfig+0x3c>
    {
      return HAL_ERROR;
 80068a8:	2301      	movs	r3, #1
 80068aa:	e0b8      	b.n	8006a1e <HAL_RCC_ClockConfig+0x1ae>
    }
  }

  /*-------------------------- HCLK Configuration --------------------------*/
  if (((RCC_ClkInitStruct->ClockType) & RCC_CLOCKTYPE_HCLK) == RCC_CLOCKTYPE_HCLK)
 80068ac:	687b      	ldr	r3, [r7, #4]
 80068ae:	681b      	ldr	r3, [r3, #0]
 80068b0:	f003 0302 	and.w	r3, r3, #2
 80068b4:	2b00      	cmp	r3, #0
 80068b6:	d020      	beq.n	80068fa <HAL_RCC_ClockConfig+0x8a>
  {
    /* Set the highest APBx dividers in order to ensure that we do not go through
       a non-spec phase whatever we decrease or increase HCLK. */
    if (((RCC_ClkInitStruct->ClockType) & RCC_CLOCKTYPE_PCLK1) == RCC_CLOCKTYPE_PCLK1)
 80068b8:	687b      	ldr	r3, [r7, #4]
 80068ba:	681b      	ldr	r3, [r3, #0]
 80068bc:	f003 0304 	and.w	r3, r3, #4
 80068c0:	2b00      	cmp	r3, #0
 80068c2:	d005      	beq.n	80068d0 <HAL_RCC_ClockConfig+0x60>
    {
      MODIFY_REG(RCC->CFGR, RCC_CFGR_PPRE1, RCC_HCLK_DIV16);
 80068c4:	4b59      	ldr	r3, [pc, #356]	@ (8006a2c <HAL_RCC_ClockConfig+0x1bc>)
 80068c6:	689b      	ldr	r3, [r3, #8]
 80068c8:	4a58      	ldr	r2, [pc, #352]	@ (8006a2c <HAL_RCC_ClockConfig+0x1bc>)
 80068ca:	f443 53e0 	orr.w	r3, r3, #7168	@ 0x1c00
 80068ce:	6093      	str	r3, [r2, #8]
    }

    if (((RCC_ClkInitStruct->ClockType) & RCC_CLOCKTYPE_PCLK2) == RCC_CLOCKTYPE_PCLK2)
 80068d0:	687b      	ldr	r3, [r7, #4]
 80068d2:	681b      	ldr	r3, [r3, #0]
 80068d4:	f003 0308 	and.w	r3, r3, #8
 80068d8:	2b00      	cmp	r3, #0
 80068da:	d005      	beq.n	80068e8 <HAL_RCC_ClockConfig+0x78>
    {
      MODIFY_REG(RCC->CFGR, RCC_CFGR_PPRE2, (RCC_HCLK_DIV16 << 3));
 80068dc:	4b53      	ldr	r3, [pc, #332]	@ (8006a2c <HAL_RCC_ClockConfig+0x1bc>)
 80068de:	689b      	ldr	r3, [r3, #8]
 80068e0:	4a52      	ldr	r2, [pc, #328]	@ (8006a2c <HAL_RCC_ClockConfig+0x1bc>)
 80068e2:	f443 4360 	orr.w	r3, r3, #57344	@ 0xe000
 80068e6:	6093      	str	r3, [r2, #8]
    }

    assert_param(IS_RCC_HCLK(RCC_ClkInitStruct->AHBCLKDivider));
    MODIFY_REG(RCC->CFGR, RCC_CFGR_HPRE, RCC_ClkInitStruct->AHBCLKDivider);
 80068e8:	4b50      	ldr	r3, [pc, #320]	@ (8006a2c <HAL_RCC_ClockConfig+0x1bc>)
 80068ea:	689b      	ldr	r3, [r3, #8]
 80068ec:	f023 02f0 	bic.w	r2, r3, #240	@ 0xf0
 80068f0:	687b      	ldr	r3, [r7, #4]
 80068f2:	689b      	ldr	r3, [r3, #8]
 80068f4:	494d      	ldr	r1, [pc, #308]	@ (8006a2c <HAL_RCC_ClockConfig+0x1bc>)
 80068f6:	4313      	orrs	r3, r2
 80068f8:	608b      	str	r3, [r1, #8]
  }

  /*------------------------- SYSCLK Configuration ---------------------------*/
  if (((RCC_ClkInitStruct->ClockType) & RCC_CLOCKTYPE_SYSCLK) == RCC_CLOCKTYPE_SYSCLK)
 80068fa:	687b      	ldr	r3, [r7, #4]
 80068fc:	681b      	ldr	r3, [r3, #0]
 80068fe:	f003 0301 	and.w	r3, r3, #1
 8006902:	2b00      	cmp	r3, #0
 8006904:	d044      	beq.n	8006990 <HAL_RCC_ClockConfig+0x120>
  {
    assert_param(IS_RCC_SYSCLKSOURCE(RCC_ClkInitStruct->SYSCLKSource));

    /* HSE is selected as System Clock Source */
    if (RCC_ClkInitStruct->SYSCLKSource == RCC_SYSCLKSOURCE_HSE)
 8006906:	687b      	ldr	r3, [r7, #4]
 8006908:	685b      	ldr	r3, [r3, #4]
 800690a:	2b01      	cmp	r3, #1
 800690c:	d107      	bne.n	800691e <HAL_RCC_ClockConfig+0xae>
    {
      /* Check the HSE ready flag */
      if (__HAL_RCC_GET_FLAG(RCC_FLAG_HSERDY) == RESET)
 800690e:	4b47      	ldr	r3, [pc, #284]	@ (8006a2c <HAL_RCC_ClockConfig+0x1bc>)
 8006910:	681b      	ldr	r3, [r3, #0]
 8006912:	f403 3300 	and.w	r3, r3, #131072	@ 0x20000
 8006916:	2b00      	cmp	r3, #0
 8006918:	d119      	bne.n	800694e <HAL_RCC_ClockConfig+0xde>
      {
        return HAL_ERROR;
 800691a:	2301      	movs	r3, #1
 800691c:	e07f      	b.n	8006a1e <HAL_RCC_ClockConfig+0x1ae>
      }
    }
    /* PLL is selected as System Clock Source */
    else if ((RCC_ClkInitStruct->SYSCLKSource == RCC_SYSCLKSOURCE_PLLCLK)   ||
 800691e:	687b      	ldr	r3, [r7, #4]
 8006920:	685b      	ldr	r3, [r3, #4]
 8006922:	2b02      	cmp	r3, #2
 8006924:	d003      	beq.n	800692e <HAL_RCC_ClockConfig+0xbe>
             (RCC_ClkInitStruct->SYSCLKSource == RCC_SYSCLKSOURCE_PLLRCLK))
 8006926:	687b      	ldr	r3, [r7, #4]
 8006928:	685b      	ldr	r3, [r3, #4]
    else if ((RCC_ClkInitStruct->SYSCLKSource == RCC_SYSCLKSOURCE_PLLCLK)   ||
 800692a:	2b03      	cmp	r3, #3
 800692c:	d107      	bne.n	800693e <HAL_RCC_ClockConfig+0xce>
    {
      /* Check the PLL ready flag */
      if (__HAL_RCC_GET_FLAG(RCC_FLAG_PLLRDY) == RESET)
 800692e:	4b3f      	ldr	r3, [pc, #252]	@ (8006a2c <HAL_RCC_ClockConfig+0x1bc>)
 8006930:	681b      	ldr	r3, [r3, #0]
 8006932:	f003 7300 	and.w	r3, r3, #33554432	@ 0x2000000
 8006936:	2b00      	cmp	r3, #0
 8006938:	d109      	bne.n	800694e <HAL_RCC_ClockConfig+0xde>
      {
        return HAL_ERROR;
 800693a:	2301      	movs	r3, #1
 800693c:	e06f      	b.n	8006a1e <HAL_RCC_ClockConfig+0x1ae>
    }
    /* HSI is selected as System Clock Source */
    else
    {
      /* Check the HSI ready flag */
      if (__HAL_RCC_GET_FLAG(RCC_FLAG_HSIRDY) == RESET)
 800693e:	4b3b      	ldr	r3, [pc, #236]	@ (8006a2c <HAL_RCC_ClockConfig+0x1bc>)
 8006940:	681b      	ldr	r3, [r3, #0]
 8006942:	f003 0302 	and.w	r3, r3, #2
 8006946:	2b00      	cmp	r3, #0
 8006948:	d101      	bne.n	800694e <HAL_RCC_ClockConfig+0xde>
      {
        return HAL_ERROR;
 800694a:	2301      	movs	r3, #1
 800694c:	e067      	b.n	8006a1e <HAL_RCC_ClockConfig+0x1ae>
      }
    }

    __HAL_RCC_SYSCLK_CONFIG(RCC_ClkInitStruct->SYSCLKSource);
 800694e:	4b37      	ldr	r3, [pc, #220]	@ (8006a2c <HAL_RCC_ClockConfig+0x1bc>)
 8006950:	689b      	ldr	r3, [r3, #8]
 8006952:	f023 0203 	bic.w	r2, r3, #3
 8006956:	687b      	ldr	r3, [r7, #4]
 8006958:	685b      	ldr	r3, [r3, #4]
 800695a:	4934      	ldr	r1, [pc, #208]	@ (8006a2c <HAL_RCC_ClockConfig+0x1bc>)
 800695c:	4313      	orrs	r3, r2
 800695e:	608b      	str	r3, [r1, #8]

    /* Get Start Tick */
    tickstart = HAL_GetTick();
 8006960:	f7ff f954 	bl	8005c0c <HAL_GetTick>
 8006964:	60f8      	str	r0, [r7, #12]

    while (__HAL_RCC_GET_SYSCLK_SOURCE() != (RCC_ClkInitStruct->SYSCLKSource << RCC_CFGR_SWS_Pos))
 8006966:	e00a      	b.n	800697e <HAL_RCC_ClockConfig+0x10e>
    {
      if ((HAL_GetTick() - tickstart) > CLOCKSWITCH_TIMEOUT_VALUE)
 8006968:	f7ff f950 	bl	8005c0c <HAL_GetTick>
 800696c:	4602      	mov	r2, r0
 800696e:	68fb      	ldr	r3, [r7, #12]
 8006970:	1ad3      	subs	r3, r2, r3
 8006972:	f241 3288 	movw	r2, #5000	@ 0x1388
 8006976:	4293      	cmp	r3, r2
 8006978:	d901      	bls.n	800697e <HAL_RCC_ClockConfig+0x10e>
      {
        return HAL_TIMEOUT;
 800697a:	2303      	movs	r3, #3
 800697c:	e04f      	b.n	8006a1e <HAL_RCC_ClockConfig+0x1ae>
    while (__HAL_RCC_GET_SYSCLK_SOURCE() != (RCC_ClkInitStruct->SYSCLKSource << RCC_CFGR_SWS_Pos))
 800697e:	4b2b      	ldr	r3, [pc, #172]	@ (8006a2c <HAL_RCC_ClockConfig+0x1bc>)
 8006980:	689b      	ldr	r3, [r3, #8]
 8006982:	f003 020c 	and.w	r2, r3, #12
 8006986:	687b      	ldr	r3, [r7, #4]
 8006988:	685b      	ldr	r3, [r3, #4]
 800698a:	009b      	lsls	r3, r3, #2
 800698c:	429a      	cmp	r2, r3
 800698e:	d1eb      	bne.n	8006968 <HAL_RCC_ClockConfig+0xf8>
      }
    }
  }

  /* Decreasing the number of wait states because of lower CPU frequency */
  if (FLatency < __HAL_FLASH_GET_LATENCY())
 8006990:	4b25      	ldr	r3, [pc, #148]	@ (8006a28 <HAL_RCC_ClockConfig+0x1b8>)
 8006992:	681b      	ldr	r3, [r3, #0]
 8006994:	f003 0307 	and.w	r3, r3, #7
 8006998:	683a      	ldr	r2, [r7, #0]
 800699a:	429a      	cmp	r2, r3
 800699c:	d20c      	bcs.n	80069b8 <HAL_RCC_ClockConfig+0x148>
  {
    /* Program the new number of wait states to the LATENCY bits in the FLASH_ACR register */
    __HAL_FLASH_SET_LATENCY(FLatency);
 800699e:	4b22      	ldr	r3, [pc, #136]	@ (8006a28 <HAL_RCC_ClockConfig+0x1b8>)
 80069a0:	683a      	ldr	r2, [r7, #0]
 80069a2:	b2d2      	uxtb	r2, r2
 80069a4:	701a      	strb	r2, [r3, #0]

    /* Check that the new number of wait states is taken into account to access the Flash
    memory by reading the FLASH_ACR register */
    if (__HAL_FLASH_GET_LATENCY() != FLatency)
 80069a6:	4b20      	ldr	r3, [pc, #128]	@ (8006a28 <HAL_RCC_ClockConfig+0x1b8>)
 80069a8:	681b      	ldr	r3, [r3, #0]
 80069aa:	f003 0307 	and.w	r3, r3, #7
 80069ae:	683a      	ldr	r2, [r7, #0]
 80069b0:	429a      	cmp	r2, r3
 80069b2:	d001      	beq.n	80069b8 <HAL_RCC_ClockConfig+0x148>
    {
      return HAL_ERROR;
 80069b4:	2301      	movs	r3, #1
 80069b6:	e032      	b.n	8006a1e <HAL_RCC_ClockConfig+0x1ae>
    }
  }

  /*-------------------------- PCLK1 Configuration ---------------------------*/
  if (((RCC_ClkInitStruct->ClockType) & RCC_CLOCKTYPE_PCLK1) == RCC_CLOCKTYPE_PCLK1)
 80069b8:	687b      	ldr	r3, [r7, #4]
 80069ba:	681b      	ldr	r3, [r3, #0]
 80069bc:	f003 0304 	and.w	r3, r3, #4
 80069c0:	2b00      	cmp	r3, #0
 80069c2:	d008      	beq.n	80069d6 <HAL_RCC_ClockConfig+0x166>
  {
    assert_param(IS_RCC_PCLK(RCC_ClkInitStruct->APB1CLKDivider));
    MODIFY_REG(RCC->CFGR, RCC_CFGR_PPRE1, RCC_ClkInitStruct->APB1CLKDivider);
 80069c4:	4b19      	ldr	r3, [pc, #100]	@ (8006a2c <HAL_RCC_ClockConfig+0x1bc>)
 80069c6:	689b      	ldr	r3, [r3, #8]
 80069c8:	f423 52e0 	bic.w	r2, r3, #7168	@ 0x1c00
 80069cc:	687b      	ldr	r3, [r7, #4]
 80069ce:	68db      	ldr	r3, [r3, #12]
 80069d0:	4916      	ldr	r1, [pc, #88]	@ (8006a2c <HAL_RCC_ClockConfig+0x1bc>)
 80069d2:	4313      	orrs	r3, r2
 80069d4:	608b      	str	r3, [r1, #8]
  }

  /*-------------------------- PCLK2 Configuration ---------------------------*/
  if (((RCC_ClkInitStruct->ClockType) & RCC_CLOCKTYPE_PCLK2) == RCC_CLOCKTYPE_PCLK2)
 80069d6:	687b      	ldr	r3, [r7, #4]
 80069d8:	681b      	ldr	r3, [r3, #0]
 80069da:	f003 0308 	and.w	r3, r3, #8
 80069de:	2b00      	cmp	r3, #0
 80069e0:	d009      	beq.n	80069f6 <HAL_RCC_ClockConfig+0x186>
  {
    assert_param(IS_RCC_PCLK(RCC_ClkInitStruct->APB2CLKDivider));
    MODIFY_REG(RCC->CFGR, RCC_CFGR_PPRE2, ((RCC_ClkInitStruct->APB2CLKDivider) << 3U));
 80069e2:	4b12      	ldr	r3, [pc, #72]	@ (8006a2c <HAL_RCC_ClockConfig+0x1bc>)
 80069e4:	689b      	ldr	r3, [r3, #8]
 80069e6:	f423 4260 	bic.w	r2, r3, #57344	@ 0xe000
 80069ea:	687b      	ldr	r3, [r7, #4]
 80069ec:	691b      	ldr	r3, [r3, #16]
 80069ee:	00db      	lsls	r3, r3, #3
 80069f0:	490e      	ldr	r1, [pc, #56]	@ (8006a2c <HAL_RCC_ClockConfig+0x1bc>)
 80069f2:	4313      	orrs	r3, r2
 80069f4:	608b      	str	r3, [r1, #8]
  }

  /* Update the SystemCoreClock global variable */
  SystemCoreClock = HAL_RCC_GetSysClockFreq() >> AHBPrescTable[(RCC->CFGR & RCC_CFGR_HPRE) >> RCC_CFGR_HPRE_Pos];
 80069f6:	f000 f821 	bl	8006a3c <HAL_RCC_GetSysClockFreq>
 80069fa:	4602      	mov	r2, r0
 80069fc:	4b0b      	ldr	r3, [pc, #44]	@ (8006a2c <HAL_RCC_ClockConfig+0x1bc>)
 80069fe:	689b      	ldr	r3, [r3, #8]
 8006a00:	091b      	lsrs	r3, r3, #4
 8006a02:	f003 030f 	and.w	r3, r3, #15
 8006a06:	490a      	ldr	r1, [pc, #40]	@ (8006a30 <HAL_RCC_ClockConfig+0x1c0>)
 8006a08:	5ccb      	ldrb	r3, [r1, r3]
 8006a0a:	fa22 f303 	lsr.w	r3, r2, r3
 8006a0e:	4a09      	ldr	r2, [pc, #36]	@ (8006a34 <HAL_RCC_ClockConfig+0x1c4>)
 8006a10:	6013      	str	r3, [r2, #0]

  /* Configure the source of time base considering new system clocks settings */
  HAL_InitTick(uwTickPrio);
 8006a12:	4b09      	ldr	r3, [pc, #36]	@ (8006a38 <HAL_RCC_ClockConfig+0x1c8>)
 8006a14:	681b      	ldr	r3, [r3, #0]
 8006a16:	4618      	mov	r0, r3
 8006a18:	f7ff f8b4 	bl	8005b84 <HAL_InitTick>

  return HAL_OK;
 8006a1c:	2300      	movs	r3, #0
}
 8006a1e:	4618      	mov	r0, r3
 8006a20:	3710      	adds	r7, #16
 8006a22:	46bd      	mov	sp, r7
 8006a24:	bd80      	pop	{r7, pc}
 8006a26:	bf00      	nop
 8006a28:	40023c00 	.word	0x40023c00
 8006a2c:	40023800 	.word	0x40023800
 8006a30:	0803366c 	.word	0x0803366c
 8006a34:	20000100 	.word	0x20000100
 8006a38:	20000104 	.word	0x20000104

08006a3c <HAL_RCC_GetSysClockFreq>:
  *
  *
  * @retval SYSCLK frequency
  */
__weak uint32_t HAL_RCC_GetSysClockFreq(void)
{
 8006a3c:	e92d 4fb0 	stmdb	sp!, {r4, r5, r7, r8, r9, sl, fp, lr}
 8006a40:	b094      	sub	sp, #80	@ 0x50
 8006a42:	af00      	add	r7, sp, #0
  uint32_t pllm = 0U;
 8006a44:	2300      	movs	r3, #0
 8006a46:	647b      	str	r3, [r7, #68]	@ 0x44
  uint32_t pllvco = 0U;
 8006a48:	2300      	movs	r3, #0
 8006a4a:	64fb      	str	r3, [r7, #76]	@ 0x4c
  uint32_t pllp = 0U;
 8006a4c:	2300      	movs	r3, #0
 8006a4e:	643b      	str	r3, [r7, #64]	@ 0x40
  uint32_t sysclockfreq = 0U;
 8006a50:	2300      	movs	r3, #0
 8006a52:	64bb      	str	r3, [r7, #72]	@ 0x48

  /* Get SYSCLK source -------------------------------------------------------*/
  switch (RCC->CFGR & RCC_CFGR_SWS)
 8006a54:	4b79      	ldr	r3, [pc, #484]	@ (8006c3c <HAL_RCC_GetSysClockFreq+0x200>)
 8006a56:	689b      	ldr	r3, [r3, #8]
 8006a58:	f003 030c 	and.w	r3, r3, #12
 8006a5c:	2b08      	cmp	r3, #8
 8006a5e:	d00d      	beq.n	8006a7c <HAL_RCC_GetSysClockFreq+0x40>
 8006a60:	2b08      	cmp	r3, #8
 8006a62:	f200 80e1 	bhi.w	8006c28 <HAL_RCC_GetSysClockFreq+0x1ec>
 8006a66:	2b00      	cmp	r3, #0
 8006a68:	d002      	beq.n	8006a70 <HAL_RCC_GetSysClockFreq+0x34>
 8006a6a:	2b04      	cmp	r3, #4
 8006a6c:	d003      	beq.n	8006a76 <HAL_RCC_GetSysClockFreq+0x3a>
 8006a6e:	e0db      	b.n	8006c28 <HAL_RCC_GetSysClockFreq+0x1ec>
  {
    case RCC_CFGR_SWS_HSI:  /* HSI used as system clock source */
    {
      sysclockfreq = HSI_VALUE;
 8006a70:	4b73      	ldr	r3, [pc, #460]	@ (8006c40 <HAL_RCC_GetSysClockFreq+0x204>)
 8006a72:	64bb      	str	r3, [r7, #72]	@ 0x48
      break;
 8006a74:	e0db      	b.n	8006c2e <HAL_RCC_GetSysClockFreq+0x1f2>
    }
    case RCC_CFGR_SWS_HSE:  /* HSE used as system clock  source */
    {
      sysclockfreq = HSE_VALUE;
 8006a76:	4b73      	ldr	r3, [pc, #460]	@ (8006c44 <HAL_RCC_GetSysClockFreq+0x208>)
 8006a78:	64bb      	str	r3, [r7, #72]	@ 0x48
      break;
 8006a7a:	e0d8      	b.n	8006c2e <HAL_RCC_GetSysClockFreq+0x1f2>
    }
    case RCC_CFGR_SWS_PLL:  /* PLL used as system clock  source */
    {
      /* PLL_VCO = (HSE_VALUE or HSI_VALUE / PLLM) * PLLN
      SYSCLK = PLL_VCO / PLLP */
      pllm = RCC->PLLCFGR & RCC_PLLCFGR_PLLM;
 8006a7c:	4b6f      	ldr	r3, [pc, #444]	@ (8006c3c <HAL_RCC_GetSysClockFreq+0x200>)
 8006a7e:	685b      	ldr	r3, [r3, #4]
 8006a80:	f003 033f 	and.w	r3, r3, #63	@ 0x3f
 8006a84:	647b      	str	r3, [r7, #68]	@ 0x44
      if (__HAL_RCC_GET_PLL_OSCSOURCE() != RCC_PLLSOURCE_HSI)
 8006a86:	4b6d      	ldr	r3, [pc, #436]	@ (8006c3c <HAL_RCC_GetSysClockFreq+0x200>)
 8006a88:	685b      	ldr	r3, [r3, #4]
 8006a8a:	f403 0380 	and.w	r3, r3, #4194304	@ 0x400000
 8006a8e:	2b00      	cmp	r3, #0
 8006a90:	d063      	beq.n	8006b5a <HAL_RCC_GetSysClockFreq+0x11e>
      {
        /* HSE used as PLL clock source */
        pllvco = (uint32_t)((((uint64_t) HSE_VALUE * ((uint64_t)((RCC->PLLCFGR & RCC_PLLCFGR_PLLN) >> RCC_PLLCFGR_PLLN_Pos)))) / (uint64_t)pllm);
 8006a92:	4b6a      	ldr	r3, [pc, #424]	@ (8006c3c <HAL_RCC_GetSysClockFreq+0x200>)
 8006a94:	685b      	ldr	r3, [r3, #4]
 8006a96:	099b      	lsrs	r3, r3, #6
 8006a98:	2200      	movs	r2, #0
 8006a9a:	63bb      	str	r3, [r7, #56]	@ 0x38
 8006a9c:	63fa      	str	r2, [r7, #60]	@ 0x3c
 8006a9e:	6bbb      	ldr	r3, [r7, #56]	@ 0x38
 8006aa0:	f3c3 0308 	ubfx	r3, r3, #0, #9
 8006aa4:	633b      	str	r3, [r7, #48]	@ 0x30
 8006aa6:	2300      	movs	r3, #0
 8006aa8:	637b      	str	r3, [r7, #52]	@ 0x34
 8006aaa:	e9d7 450c 	ldrd	r4, r5, [r7, #48]	@ 0x30
 8006aae:	4622      	mov	r2, r4
 8006ab0:	462b      	mov	r3, r5
 8006ab2:	f04f 0000 	mov.w	r0, #0
 8006ab6:	f04f 0100 	mov.w	r1, #0
 8006aba:	0159      	lsls	r1, r3, #5
 8006abc:	ea41 61d2 	orr.w	r1, r1, r2, lsr #27
 8006ac0:	0150      	lsls	r0, r2, #5
 8006ac2:	4602      	mov	r2, r0
 8006ac4:	460b      	mov	r3, r1
 8006ac6:	4621      	mov	r1, r4
 8006ac8:	1a51      	subs	r1, r2, r1
 8006aca:	6139      	str	r1, [r7, #16]
 8006acc:	4629      	mov	r1, r5
 8006ace:	eb63 0301 	sbc.w	r3, r3, r1
 8006ad2:	617b      	str	r3, [r7, #20]
 8006ad4:	f04f 0200 	mov.w	r2, #0
 8006ad8:	f04f 0300 	mov.w	r3, #0
 8006adc:	e9d7 ab04 	ldrd	sl, fp, [r7, #16]
 8006ae0:	4659      	mov	r1, fp
 8006ae2:	018b      	lsls	r3, r1, #6
 8006ae4:	4651      	mov	r1, sl
 8006ae6:	ea43 6391 	orr.w	r3, r3, r1, lsr #26
 8006aea:	4651      	mov	r1, sl
 8006aec:	018a      	lsls	r2, r1, #6
 8006aee:	4651      	mov	r1, sl
 8006af0:	ebb2 0801 	subs.w	r8, r2, r1
 8006af4:	4659      	mov	r1, fp
 8006af6:	eb63 0901 	sbc.w	r9, r3, r1
 8006afa:	f04f 0200 	mov.w	r2, #0
 8006afe:	f04f 0300 	mov.w	r3, #0
 8006b02:	ea4f 03c9 	mov.w	r3, r9, lsl #3
 8006b06:	ea43 7358 	orr.w	r3, r3, r8, lsr #29
 8006b0a:	ea4f 02c8 	mov.w	r2, r8, lsl #3
 8006b0e:	4690      	mov	r8, r2
 8006b10:	4699      	mov	r9, r3
 8006b12:	4623      	mov	r3, r4
 8006b14:	eb18 0303 	adds.w	r3, r8, r3
 8006b18:	60bb      	str	r3, [r7, #8]
 8006b1a:	462b      	mov	r3, r5
 8006b1c:	eb49 0303 	adc.w	r3, r9, r3
 8006b20:	60fb      	str	r3, [r7, #12]
 8006b22:	f04f 0200 	mov.w	r2, #0
 8006b26:	f04f 0300 	mov.w	r3, #0
 8006b2a:	e9d7 4502 	ldrd	r4, r5, [r7, #8]
 8006b2e:	4629      	mov	r1, r5
 8006b30:	024b      	lsls	r3, r1, #9
 8006b32:	4621      	mov	r1, r4
 8006b34:	ea43 53d1 	orr.w	r3, r3, r1, lsr #23
 8006b38:	4621      	mov	r1, r4
 8006b3a:	024a      	lsls	r2, r1, #9
 8006b3c:	4610      	mov	r0, r2
 8006b3e:	4619      	mov	r1, r3
 8006b40:	6c7b      	ldr	r3, [r7, #68]	@ 0x44
 8006b42:	2200      	movs	r2, #0
 8006b44:	62bb      	str	r3, [r7, #40]	@ 0x28
 8006b46:	62fa      	str	r2, [r7, #44]	@ 0x2c
 8006b48:	e9d7 230a 	ldrd	r2, r3, [r7, #40]	@ 0x28
 8006b4c:	f7fa f846 	bl	8000bdc <__aeabi_uldivmod>
 8006b50:	4602      	mov	r2, r0
 8006b52:	460b      	mov	r3, r1
 8006b54:	4613      	mov	r3, r2
 8006b56:	64fb      	str	r3, [r7, #76]	@ 0x4c
 8006b58:	e058      	b.n	8006c0c <HAL_RCC_GetSysClockFreq+0x1d0>
      }
      else
      {
        /* HSI used as PLL clock source */
        pllvco = (uint32_t)((((uint64_t) HSI_VALUE * ((uint64_t)((RCC->PLLCFGR & RCC_PLLCFGR_PLLN) >> RCC_PLLCFGR_PLLN_Pos)))) / (uint64_t)pllm);
 8006b5a:	4b38      	ldr	r3, [pc, #224]	@ (8006c3c <HAL_RCC_GetSysClockFreq+0x200>)
 8006b5c:	685b      	ldr	r3, [r3, #4]
 8006b5e:	099b      	lsrs	r3, r3, #6
 8006b60:	2200      	movs	r2, #0
 8006b62:	4618      	mov	r0, r3
 8006b64:	4611      	mov	r1, r2
 8006b66:	f3c0 0308 	ubfx	r3, r0, #0, #9
 8006b6a:	623b      	str	r3, [r7, #32]
 8006b6c:	2300      	movs	r3, #0
 8006b6e:	627b      	str	r3, [r7, #36]	@ 0x24
 8006b70:	e9d7 8908 	ldrd	r8, r9, [r7, #32]
 8006b74:	4642      	mov	r2, r8
 8006b76:	464b      	mov	r3, r9
 8006b78:	f04f 0000 	mov.w	r0, #0
 8006b7c:	f04f 0100 	mov.w	r1, #0
 8006b80:	0159      	lsls	r1, r3, #5
 8006b82:	ea41 61d2 	orr.w	r1, r1, r2, lsr #27
 8006b86:	0150      	lsls	r0, r2, #5
 8006b88:	4602      	mov	r2, r0
 8006b8a:	460b      	mov	r3, r1
 8006b8c:	4641      	mov	r1, r8
 8006b8e:	ebb2 0a01 	subs.w	sl, r2, r1
 8006b92:	4649      	mov	r1, r9
 8006b94:	eb63 0b01 	sbc.w	fp, r3, r1
 8006b98:	f04f 0200 	mov.w	r2, #0
 8006b9c:	f04f 0300 	mov.w	r3, #0
 8006ba0:	ea4f 138b 	mov.w	r3, fp, lsl #6
 8006ba4:	ea43 639a 	orr.w	r3, r3, sl, lsr #26
 8006ba8:	ea4f 128a 	mov.w	r2, sl, lsl #6
 8006bac:	ebb2 040a 	subs.w	r4, r2, sl
 8006bb0:	eb63 050b 	sbc.w	r5, r3, fp
 8006bb4:	f04f 0200 	mov.w	r2, #0
 8006bb8:	f04f 0300 	mov.w	r3, #0
 8006bbc:	00eb      	lsls	r3, r5, #3
 8006bbe:	ea43 7354 	orr.w	r3, r3, r4, lsr #29
 8006bc2:	00e2      	lsls	r2, r4, #3
 8006bc4:	4614      	mov	r4, r2
 8006bc6:	461d      	mov	r5, r3
 8006bc8:	4643      	mov	r3, r8
 8006bca:	18e3      	adds	r3, r4, r3
 8006bcc:	603b      	str	r3, [r7, #0]
 8006bce:	464b      	mov	r3, r9
 8006bd0:	eb45 0303 	adc.w	r3, r5, r3
 8006bd4:	607b      	str	r3, [r7, #4]
 8006bd6:	f04f 0200 	mov.w	r2, #0
 8006bda:	f04f 0300 	mov.w	r3, #0
 8006bde:	e9d7 4500 	ldrd	r4, r5, [r7]
 8006be2:	4629      	mov	r1, r5
 8006be4:	028b      	lsls	r3, r1, #10
 8006be6:	4621      	mov	r1, r4
 8006be8:	ea43 5391 	orr.w	r3, r3, r1, lsr #22
 8006bec:	4621      	mov	r1, r4
 8006bee:	028a      	lsls	r2, r1, #10
 8006bf0:	4610      	mov	r0, r2
 8006bf2:	4619      	mov	r1, r3
 8006bf4:	6c7b      	ldr	r3, [r7, #68]	@ 0x44
 8006bf6:	2200      	movs	r2, #0
 8006bf8:	61bb      	str	r3, [r7, #24]
 8006bfa:	61fa      	str	r2, [r7, #28]
 8006bfc:	e9d7 2306 	ldrd	r2, r3, [r7, #24]
 8006c00:	f7f9 ffec 	bl	8000bdc <__aeabi_uldivmod>
 8006c04:	4602      	mov	r2, r0
 8006c06:	460b      	mov	r3, r1
 8006c08:	4613      	mov	r3, r2
 8006c0a:	64fb      	str	r3, [r7, #76]	@ 0x4c
      }
      pllp = ((((RCC->PLLCFGR & RCC_PLLCFGR_PLLP) >> RCC_PLLCFGR_PLLP_Pos) + 1U) * 2U);
 8006c0c:	4b0b      	ldr	r3, [pc, #44]	@ (8006c3c <HAL_RCC_GetSysClockFreq+0x200>)
 8006c0e:	685b      	ldr	r3, [r3, #4]
 8006c10:	0c1b      	lsrs	r3, r3, #16
 8006c12:	f003 0303 	and.w	r3, r3, #3
 8006c16:	3301      	adds	r3, #1
 8006c18:	005b      	lsls	r3, r3, #1
 8006c1a:	643b      	str	r3, [r7, #64]	@ 0x40

      sysclockfreq = pllvco / pllp;
 8006c1c:	6cfa      	ldr	r2, [r7, #76]	@ 0x4c
 8006c1e:	6c3b      	ldr	r3, [r7, #64]	@ 0x40
 8006c20:	fbb2 f3f3 	udiv	r3, r2, r3
 8006c24:	64bb      	str	r3, [r7, #72]	@ 0x48
      break;
 8006c26:	e002      	b.n	8006c2e <HAL_RCC_GetSysClockFreq+0x1f2>
    }
    default:
    {
      sysclockfreq = HSI_VALUE;
 8006c28:	4b05      	ldr	r3, [pc, #20]	@ (8006c40 <HAL_RCC_GetSysClockFreq+0x204>)
 8006c2a:	64bb      	str	r3, [r7, #72]	@ 0x48
      break;
 8006c2c:	bf00      	nop
    }
  }
  return sysclockfreq;
 8006c2e:	6cbb      	ldr	r3, [r7, #72]	@ 0x48
}
 8006c30:	4618      	mov	r0, r3
 8006c32:	3750      	adds	r7, #80	@ 0x50
 8006c34:	46bd      	mov	sp, r7
 8006c36:	e8bd 8fb0 	ldmia.w	sp!, {r4, r5, r7, r8, r9, sl, fp, pc}
 8006c3a:	bf00      	nop
 8006c3c:	40023800 	.word	0x40023800
 8006c40:	00f42400 	.word	0x00f42400
 8006c44:	007a1200 	.word	0x007a1200

08006c48 <HAL_RCC_GetHCLKFreq>:
  * @note   The SystemCoreClock CMSIS variable is used to store System Clock Frequency
  *         and updated within this function
  * @retval HCLK frequency
  */
uint32_t HAL_RCC_GetHCLKFreq(void)
{
 8006c48:	b480      	push	{r7}
 8006c4a:	af00      	add	r7, sp, #0
  return SystemCoreClock;
 8006c4c:	4b03      	ldr	r3, [pc, #12]	@ (8006c5c <HAL_RCC_GetHCLKFreq+0x14>)
 8006c4e:	681b      	ldr	r3, [r3, #0]
}
 8006c50:	4618      	mov	r0, r3
 8006c52:	46bd      	mov	sp, r7
 8006c54:	f85d 7b04 	ldr.w	r7, [sp], #4
 8006c58:	4770      	bx	lr
 8006c5a:	bf00      	nop
 8006c5c:	20000100 	.word	0x20000100

08006c60 <HAL_RCC_GetPCLK1Freq>:
  * @note   Each time PCLK1 changes, this function must be called to update the
  *         right PCLK1 value. Otherwise, any configuration based on this function will be incorrect.
  * @retval PCLK1 frequency
  */
uint32_t HAL_RCC_GetPCLK1Freq(void)
{
 8006c60:	b580      	push	{r7, lr}
 8006c62:	af00      	add	r7, sp, #0
  /* Get HCLK source and Compute PCLK1 frequency ---------------------------*/
  return (HAL_RCC_GetHCLKFreq() >> APBPrescTable[(RCC->CFGR & RCC_CFGR_PPRE1) >> RCC_CFGR_PPRE1_Pos]);
 8006c64:	f7ff fff0 	bl	8006c48 <HAL_RCC_GetHCLKFreq>
 8006c68:	4602      	mov	r2, r0
 8006c6a:	4b05      	ldr	r3, [pc, #20]	@ (8006c80 <HAL_RCC_GetPCLK1Freq+0x20>)
 8006c6c:	689b      	ldr	r3, [r3, #8]
 8006c6e:	0a9b      	lsrs	r3, r3, #10
 8006c70:	f003 0307 	and.w	r3, r3, #7
 8006c74:	4903      	ldr	r1, [pc, #12]	@ (8006c84 <HAL_RCC_GetPCLK1Freq+0x24>)
 8006c76:	5ccb      	ldrb	r3, [r1, r3]
 8006c78:	fa22 f303 	lsr.w	r3, r2, r3
}
 8006c7c:	4618      	mov	r0, r3
 8006c7e:	bd80      	pop	{r7, pc}
 8006c80:	40023800 	.word	0x40023800
 8006c84:	0803367c 	.word	0x0803367c

08006c88 <HAL_RCC_GetPCLK2Freq>:
  * @note   Each time PCLK2 changes, this function must be called to update the
  *         right PCLK2 value. Otherwise, any configuration based on this function will be incorrect.
  * @retval PCLK2 frequency
  */
uint32_t HAL_RCC_GetPCLK2Freq(void)
{
 8006c88:	b580      	push	{r7, lr}
 8006c8a:	af00      	add	r7, sp, #0
  /* Get HCLK source and Compute PCLK2 frequency ---------------------------*/
  return (HAL_RCC_GetHCLKFreq() >> APBPrescTable[(RCC->CFGR & RCC_CFGR_PPRE2) >> RCC_CFGR_PPRE2_Pos]);
 8006c8c:	f7ff ffdc 	bl	8006c48 <HAL_RCC_GetHCLKFreq>
 8006c90:	4602      	mov	r2, r0
 8006c92:	4b05      	ldr	r3, [pc, #20]	@ (8006ca8 <HAL_RCC_GetPCLK2Freq+0x20>)
 8006c94:	689b      	ldr	r3, [r3, #8]
 8006c96:	0b5b      	lsrs	r3, r3, #13
 8006c98:	f003 0307 	and.w	r3, r3, #7
 8006c9c:	4903      	ldr	r1, [pc, #12]	@ (8006cac <HAL_RCC_GetPCLK2Freq+0x24>)
 8006c9e:	5ccb      	ldrb	r3, [r1, r3]
 8006ca0:	fa22 f303 	lsr.w	r3, r2, r3
}
 8006ca4:	4618      	mov	r0, r3
 8006ca6:	bd80      	pop	{r7, pc}
 8006ca8:	40023800 	.word	0x40023800
 8006cac:	0803367c 	.word	0x0803367c

08006cb0 <HAL_SPI_Init>:
  * @param  hspi pointer to a SPI_HandleTypeDef structure that contains
  *               the configuration information for SPI module.
  * @retval HAL status
  */
HAL_StatusTypeDef HAL_SPI_Init(SPI_HandleTypeDef *hspi)
{
 8006cb0:	b580      	push	{r7, lr}
 8006cb2:	b082      	sub	sp, #8
 8006cb4:	af00      	add	r7, sp, #0
 8006cb6:	6078      	str	r0, [r7, #4]
  /* Check the SPI handle allocation */
  if (hspi == NULL)
 8006cb8:	687b      	ldr	r3, [r7, #4]
 8006cba:	2b00      	cmp	r3, #0
 8006cbc:	d101      	bne.n	8006cc2 <HAL_SPI_Init+0x12>
  {
    return HAL_ERROR;
 8006cbe:	2301      	movs	r3, #1
 8006cc0:	e07b      	b.n	8006dba <HAL_SPI_Init+0x10a>
  assert_param(IS_SPI_DATASIZE(hspi->Init.DataSize));
  assert_param(IS_SPI_NSS(hspi->Init.NSS));
  assert_param(IS_SPI_BAUDRATE_PRESCALER(hspi->Init.BaudRatePrescaler));
  assert_param(IS_SPI_FIRST_BIT(hspi->Init.FirstBit));
  assert_param(IS_SPI_TIMODE(hspi->Init.TIMode));
  if (hspi->Init.TIMode == SPI_TIMODE_DISABLE)
 8006cc2:	687b      	ldr	r3, [r7, #4]
 8006cc4:	6a5b      	ldr	r3, [r3, #36]	@ 0x24
 8006cc6:	2b00      	cmp	r3, #0
 8006cc8:	d108      	bne.n	8006cdc <HAL_SPI_Init+0x2c>
  {
    assert_param(IS_SPI_CPOL(hspi->Init.CLKPolarity));
    assert_param(IS_SPI_CPHA(hspi->Init.CLKPhase));

    if (hspi->Init.Mode == SPI_MODE_MASTER)
 8006cca:	687b      	ldr	r3, [r7, #4]
 8006ccc:	685b      	ldr	r3, [r3, #4]
 8006cce:	f5b3 7f82 	cmp.w	r3, #260	@ 0x104
 8006cd2:	d009      	beq.n	8006ce8 <HAL_SPI_Init+0x38>
      assert_param(IS_SPI_BAUDRATE_PRESCALER(hspi->Init.BaudRatePrescaler));
    }
    else
    {
      /* Baudrate prescaler not use in Motoraola Slave mode. force to default value */
      hspi->Init.BaudRatePrescaler = SPI_BAUDRATEPRESCALER_2;
 8006cd4:	687b      	ldr	r3, [r7, #4]
 8006cd6:	2200      	movs	r2, #0
 8006cd8:	61da      	str	r2, [r3, #28]
 8006cda:	e005      	b.n	8006ce8 <HAL_SPI_Init+0x38>
  else
  {
    assert_param(IS_SPI_BAUDRATE_PRESCALER(hspi->Init.BaudRatePrescaler));

    /* Force polarity and phase to TI protocaol requirements */
    hspi->Init.CLKPolarity = SPI_POLARITY_LOW;
 8006cdc:	687b      	ldr	r3, [r7, #4]
 8006cde:	2200      	movs	r2, #0
 8006ce0:	611a      	str	r2, [r3, #16]
    hspi->Init.CLKPhase    = SPI_PHASE_1EDGE;
 8006ce2:	687b      	ldr	r3, [r7, #4]
 8006ce4:	2200      	movs	r2, #0
 8006ce6:	615a      	str	r2, [r3, #20]
  if (hspi->Init.CRCCalculation == SPI_CRCCALCULATION_ENABLE)
  {
    assert_param(IS_SPI_CRC_POLYNOMIAL(hspi->Init.CRCPolynomial));
  }
#else
  hspi->Init.CRCCalculation = SPI_CRCCALCULATION_DISABLE;
 8006ce8:	687b      	ldr	r3, [r7, #4]
 8006cea:	2200      	movs	r2, #0
 8006cec:	629a      	str	r2, [r3, #40]	@ 0x28
#endif /* USE_SPI_CRC */

  if (hspi->State == HAL_SPI_STATE_RESET)
 8006cee:	687b      	ldr	r3, [r7, #4]
 8006cf0:	f893 3051 	ldrb.w	r3, [r3, #81]	@ 0x51
 8006cf4:	b2db      	uxtb	r3, r3
 8006cf6:	2b00      	cmp	r3, #0
 8006cf8:	d106      	bne.n	8006d08 <HAL_SPI_Init+0x58>
  {
    /* Allocate lock resource and initialize it */
    hspi->Lock = HAL_UNLOCKED;
 8006cfa:	687b      	ldr	r3, [r7, #4]
 8006cfc:	2200      	movs	r2, #0
 8006cfe:	f883 2050 	strb.w	r2, [r3, #80]	@ 0x50

    /* Init the low level hardware : GPIO, CLOCK, NVIC... */
    hspi->MspInitCallback(hspi);
#else
    /* Init the low level hardware : GPIO, CLOCK, NVIC... */
    HAL_SPI_MspInit(hspi);
 8006d02:	6878      	ldr	r0, [r7, #4]
 8006d04:	f7fe fcec 	bl	80056e0 <HAL_SPI_MspInit>
#endif /* USE_HAL_SPI_REGISTER_CALLBACKS */
  }

  hspi->State = HAL_SPI_STATE_BUSY;
 8006d08:	687b      	ldr	r3, [r7, #4]
 8006d0a:	2202      	movs	r2, #2
 8006d0c:	f883 2051 	strb.w	r2, [r3, #81]	@ 0x51

  /* Disable the selected SPI peripheral */
  __HAL_SPI_DISABLE(hspi);
 8006d10:	687b      	ldr	r3, [r7, #4]
 8006d12:	681b      	ldr	r3, [r3, #0]
 8006d14:	681a      	ldr	r2, [r3, #0]
 8006d16:	687b      	ldr	r3, [r7, #4]
 8006d18:	681b      	ldr	r3, [r3, #0]
 8006d1a:	f022 0240 	bic.w	r2, r2, #64	@ 0x40
 8006d1e:	601a      	str	r2, [r3, #0]

  /*----------------------- SPIx CR1 & CR2 Configuration ---------------------*/
  /* Configure : SPI Mode, Communication Mode, Data size, Clock polarity and phase, NSS management,
  Communication speed, First bit and CRC calculation state */
  WRITE_REG(hspi->Instance->CR1, ((hspi->Init.Mode & (SPI_CR1_MSTR | SPI_CR1_SSI)) |
 8006d20:	687b      	ldr	r3, [r7, #4]
 8006d22:	685b      	ldr	r3, [r3, #4]
 8006d24:	f403 7282 	and.w	r2, r3, #260	@ 0x104
 8006d28:	687b      	ldr	r3, [r7, #4]
 8006d2a:	689b      	ldr	r3, [r3, #8]
 8006d2c:	f403 4304 	and.w	r3, r3, #33792	@ 0x8400
 8006d30:	431a      	orrs	r2, r3
 8006d32:	687b      	ldr	r3, [r7, #4]
 8006d34:	68db      	ldr	r3, [r3, #12]
 8006d36:	f403 6300 	and.w	r3, r3, #2048	@ 0x800
 8006d3a:	431a      	orrs	r2, r3
 8006d3c:	687b      	ldr	r3, [r7, #4]
 8006d3e:	691b      	ldr	r3, [r3, #16]
 8006d40:	f003 0302 	and.w	r3, r3, #2
 8006d44:	431a      	orrs	r2, r3
 8006d46:	687b      	ldr	r3, [r7, #4]
 8006d48:	695b      	ldr	r3, [r3, #20]
 8006d4a:	f003 0301 	and.w	r3, r3, #1
 8006d4e:	431a      	orrs	r2, r3
 8006d50:	687b      	ldr	r3, [r7, #4]
 8006d52:	699b      	ldr	r3, [r3, #24]
 8006d54:	f403 7300 	and.w	r3, r3, #512	@ 0x200
 8006d58:	431a      	orrs	r2, r3
 8006d5a:	687b      	ldr	r3, [r7, #4]
 8006d5c:	69db      	ldr	r3, [r3, #28]
 8006d5e:	f003 0338 	and.w	r3, r3, #56	@ 0x38
 8006d62:	431a      	orrs	r2, r3
 8006d64:	687b      	ldr	r3, [r7, #4]
 8006d66:	6a1b      	ldr	r3, [r3, #32]
 8006d68:	f003 0380 	and.w	r3, r3, #128	@ 0x80
 8006d6c:	ea42 0103 	orr.w	r1, r2, r3
 8006d70:	687b      	ldr	r3, [r7, #4]
 8006d72:	6a9b      	ldr	r3, [r3, #40]	@ 0x28
 8006d74:	f403 5200 	and.w	r2, r3, #8192	@ 0x2000
 8006d78:	687b      	ldr	r3, [r7, #4]
 8006d7a:	681b      	ldr	r3, [r3, #0]
 8006d7c:	430a      	orrs	r2, r1
 8006d7e:	601a      	str	r2, [r3, #0]
                                  (hspi->Init.BaudRatePrescaler & SPI_CR1_BR_Msk) |
                                  (hspi->Init.FirstBit  & SPI_CR1_LSBFIRST) |
                                  (hspi->Init.CRCCalculation & SPI_CR1_CRCEN)));

  /* Configure : NSS management, TI Mode */
  WRITE_REG(hspi->Instance->CR2, (((hspi->Init.NSS >> 16U) & SPI_CR2_SSOE) | (hspi->Init.TIMode & SPI_CR2_FRF)));
 8006d80:	687b      	ldr	r3, [r7, #4]
 8006d82:	699b      	ldr	r3, [r3, #24]
 8006d84:	0c1b      	lsrs	r3, r3, #16
 8006d86:	f003 0104 	and.w	r1, r3, #4
 8006d8a:	687b      	ldr	r3, [r7, #4]
 8006d8c:	6a5b      	ldr	r3, [r3, #36]	@ 0x24
 8006d8e:	f003 0210 	and.w	r2, r3, #16
 8006d92:	687b      	ldr	r3, [r7, #4]
 8006d94:	681b      	ldr	r3, [r3, #0]
 8006d96:	430a      	orrs	r2, r1
 8006d98:	605a      	str	r2, [r3, #4]
  }
#endif /* USE_SPI_CRC */

#if defined(SPI_I2SCFGR_I2SMOD)
  /* Activate the SPI mode (Make sure that I2SMOD bit in I2SCFGR register is reset) */
  CLEAR_BIT(hspi->Instance->I2SCFGR, SPI_I2SCFGR_I2SMOD);
 8006d9a:	687b      	ldr	r3, [r7, #4]
 8006d9c:	681b      	ldr	r3, [r3, #0]
 8006d9e:	69da      	ldr	r2, [r3, #28]
 8006da0:	687b      	ldr	r3, [r7, #4]
 8006da2:	681b      	ldr	r3, [r3, #0]
 8006da4:	f422 6200 	bic.w	r2, r2, #2048	@ 0x800
 8006da8:	61da      	str	r2, [r3, #28]
#endif /* SPI_I2SCFGR_I2SMOD */

  hspi->ErrorCode = HAL_SPI_ERROR_NONE;
 8006daa:	687b      	ldr	r3, [r7, #4]
 8006dac:	2200      	movs	r2, #0
 8006dae:	655a      	str	r2, [r3, #84]	@ 0x54
  hspi->State     = HAL_SPI_STATE_READY;
 8006db0:	687b      	ldr	r3, [r7, #4]
 8006db2:	2201      	movs	r2, #1
 8006db4:	f883 2051 	strb.w	r2, [r3, #81]	@ 0x51

  return HAL_OK;
 8006db8:	2300      	movs	r3, #0
}
 8006dba:	4618      	mov	r0, r3
 8006dbc:	3708      	adds	r7, #8
 8006dbe:	46bd      	mov	sp, r7
 8006dc0:	bd80      	pop	{r7, pc}

08006dc2 <HAL_SPI_Transmit>:
  * @param  Size amount of data to be sent
  * @param  Timeout Timeout duration
  * @retval HAL status
  */
HAL_StatusTypeDef HAL_SPI_Transmit(SPI_HandleTypeDef *hspi, const uint8_t *pData, uint16_t Size, uint32_t Timeout)
{
 8006dc2:	b580      	push	{r7, lr}
 8006dc4:	b088      	sub	sp, #32
 8006dc6:	af00      	add	r7, sp, #0
 8006dc8:	60f8      	str	r0, [r7, #12]
 8006dca:	60b9      	str	r1, [r7, #8]
 8006dcc:	603b      	str	r3, [r7, #0]
 8006dce:	4613      	mov	r3, r2
 8006dd0:	80fb      	strh	r3, [r7, #6]

  /* Check Direction parameter */
  assert_param(IS_SPI_DIRECTION_2LINES_OR_1LINE(hspi->Init.Direction));

  /* Init tickstart for timeout management*/
  tickstart = HAL_GetTick();
 8006dd2:	f7fe ff1b 	bl	8005c0c <HAL_GetTick>
 8006dd6:	61f8      	str	r0, [r7, #28]
  initial_TxXferCount = Size;
 8006dd8:	88fb      	ldrh	r3, [r7, #6]
 8006dda:	837b      	strh	r3, [r7, #26]

  if (hspi->State != HAL_SPI_STATE_READY)
 8006ddc:	68fb      	ldr	r3, [r7, #12]
 8006dde:	f893 3051 	ldrb.w	r3, [r3, #81]	@ 0x51
 8006de2:	b2db      	uxtb	r3, r3
 8006de4:	2b01      	cmp	r3, #1
 8006de6:	d001      	beq.n	8006dec <HAL_SPI_Transmit+0x2a>
  {
    return HAL_BUSY;
 8006de8:	2302      	movs	r3, #2
 8006dea:	e12a      	b.n	8007042 <HAL_SPI_Transmit+0x280>
  }

  if ((pData == NULL) || (Size == 0U))
 8006dec:	68bb      	ldr	r3, [r7, #8]
 8006dee:	2b00      	cmp	r3, #0
 8006df0:	d002      	beq.n	8006df8 <HAL_SPI_Transmit+0x36>
 8006df2:	88fb      	ldrh	r3, [r7, #6]
 8006df4:	2b00      	cmp	r3, #0
 8006df6:	d101      	bne.n	8006dfc <HAL_SPI_Transmit+0x3a>
  {
    return HAL_ERROR;
 8006df8:	2301      	movs	r3, #1
 8006dfa:	e122      	b.n	8007042 <HAL_SPI_Transmit+0x280>
  }

  /* Process Locked */
  __HAL_LOCK(hspi);
 8006dfc:	68fb      	ldr	r3, [r7, #12]
 8006dfe:	f893 3050 	ldrb.w	r3, [r3, #80]	@ 0x50
 8006e02:	2b01      	cmp	r3, #1
 8006e04:	d101      	bne.n	8006e0a <HAL_SPI_Transmit+0x48>
 8006e06:	2302      	movs	r3, #2
 8006e08:	e11b      	b.n	8007042 <HAL_SPI_Transmit+0x280>
 8006e0a:	68fb      	ldr	r3, [r7, #12]
 8006e0c:	2201      	movs	r2, #1
 8006e0e:	f883 2050 	strb.w	r2, [r3, #80]	@ 0x50

  /* Set the transaction information */
  hspi->State       = HAL_SPI_STATE_BUSY_TX;
 8006e12:	68fb      	ldr	r3, [r7, #12]
 8006e14:	2203      	movs	r2, #3
 8006e16:	f883 2051 	strb.w	r2, [r3, #81]	@ 0x51
  hspi->ErrorCode   = HAL_SPI_ERROR_NONE;
 8006e1a:	68fb      	ldr	r3, [r7, #12]
 8006e1c:	2200      	movs	r2, #0
 8006e1e:	655a      	str	r2, [r3, #84]	@ 0x54
  hspi->pTxBuffPtr  = (const uint8_t *)pData;
 8006e20:	68fb      	ldr	r3, [r7, #12]
 8006e22:	68ba      	ldr	r2, [r7, #8]
 8006e24:	631a      	str	r2, [r3, #48]	@ 0x30
  hspi->TxXferSize  = Size;
 8006e26:	68fb      	ldr	r3, [r7, #12]
 8006e28:	88fa      	ldrh	r2, [r7, #6]
 8006e2a:	869a      	strh	r2, [r3, #52]	@ 0x34
  hspi->TxXferCount = Size;
 8006e2c:	68fb      	ldr	r3, [r7, #12]
 8006e2e:	88fa      	ldrh	r2, [r7, #6]
 8006e30:	86da      	strh	r2, [r3, #54]	@ 0x36

  /*Init field not used in handle to zero */
  hspi->pRxBuffPtr  = (uint8_t *)NULL;
 8006e32:	68fb      	ldr	r3, [r7, #12]
 8006e34:	2200      	movs	r2, #0
 8006e36:	639a      	str	r2, [r3, #56]	@ 0x38
  hspi->RxXferSize  = 0U;
 8006e38:	68fb      	ldr	r3, [r7, #12]
 8006e3a:	2200      	movs	r2, #0
 8006e3c:	879a      	strh	r2, [r3, #60]	@ 0x3c
  hspi->RxXferCount = 0U;
 8006e3e:	68fb      	ldr	r3, [r7, #12]
 8006e40:	2200      	movs	r2, #0
 8006e42:	87da      	strh	r2, [r3, #62]	@ 0x3e
  hspi->TxISR       = NULL;
 8006e44:	68fb      	ldr	r3, [r7, #12]
 8006e46:	2200      	movs	r2, #0
 8006e48:	645a      	str	r2, [r3, #68]	@ 0x44
  hspi->RxISR       = NULL;
 8006e4a:	68fb      	ldr	r3, [r7, #12]
 8006e4c:	2200      	movs	r2, #0
 8006e4e:	641a      	str	r2, [r3, #64]	@ 0x40

  /* Configure communication direction : 1Line */
  if (hspi->Init.Direction == SPI_DIRECTION_1LINE)
 8006e50:	68fb      	ldr	r3, [r7, #12]
 8006e52:	689b      	ldr	r3, [r3, #8]
 8006e54:	f5b3 4f00 	cmp.w	r3, #32768	@ 0x8000
 8006e58:	d10f      	bne.n	8006e7a <HAL_SPI_Transmit+0xb8>
  {
    /* Disable SPI Peripheral before set 1Line direction (BIDIOE bit) */
    __HAL_SPI_DISABLE(hspi);
 8006e5a:	68fb      	ldr	r3, [r7, #12]
 8006e5c:	681b      	ldr	r3, [r3, #0]
 8006e5e:	681a      	ldr	r2, [r3, #0]
 8006e60:	68fb      	ldr	r3, [r7, #12]
 8006e62:	681b      	ldr	r3, [r3, #0]
 8006e64:	f022 0240 	bic.w	r2, r2, #64	@ 0x40
 8006e68:	601a      	str	r2, [r3, #0]
    SPI_1LINE_TX(hspi);
 8006e6a:	68fb      	ldr	r3, [r7, #12]
 8006e6c:	681b      	ldr	r3, [r3, #0]
 8006e6e:	681a      	ldr	r2, [r3, #0]
 8006e70:	68fb      	ldr	r3, [r7, #12]
 8006e72:	681b      	ldr	r3, [r3, #0]
 8006e74:	f442 4280 	orr.w	r2, r2, #16384	@ 0x4000
 8006e78:	601a      	str	r2, [r3, #0]
    SPI_RESET_CRC(hspi);
  }
#endif /* USE_SPI_CRC */

  /* Check if the SPI is already enabled */
  if ((hspi->Instance->CR1 & SPI_CR1_SPE) != SPI_CR1_SPE)
 8006e7a:	68fb      	ldr	r3, [r7, #12]
 8006e7c:	681b      	ldr	r3, [r3, #0]
 8006e7e:	681b      	ldr	r3, [r3, #0]
 8006e80:	f003 0340 	and.w	r3, r3, #64	@ 0x40
 8006e84:	2b40      	cmp	r3, #64	@ 0x40
 8006e86:	d007      	beq.n	8006e98 <HAL_SPI_Transmit+0xd6>
  {
    /* Enable SPI peripheral */
    __HAL_SPI_ENABLE(hspi);
 8006e88:	68fb      	ldr	r3, [r7, #12]
 8006e8a:	681b      	ldr	r3, [r3, #0]
 8006e8c:	681a      	ldr	r2, [r3, #0]
 8006e8e:	68fb      	ldr	r3, [r7, #12]
 8006e90:	681b      	ldr	r3, [r3, #0]
 8006e92:	f042 0240 	orr.w	r2, r2, #64	@ 0x40
 8006e96:	601a      	str	r2, [r3, #0]
  }

  /* Transmit data in 16 Bit mode */
  if (hspi->Init.DataSize == SPI_DATASIZE_16BIT)
 8006e98:	68fb      	ldr	r3, [r7, #12]
 8006e9a:	68db      	ldr	r3, [r3, #12]
 8006e9c:	f5b3 6f00 	cmp.w	r3, #2048	@ 0x800
 8006ea0:	d152      	bne.n	8006f48 <HAL_SPI_Transmit+0x186>
  {
    if ((hspi->Init.Mode == SPI_MODE_SLAVE) || (initial_TxXferCount == 0x01U))
 8006ea2:	68fb      	ldr	r3, [r7, #12]
 8006ea4:	685b      	ldr	r3, [r3, #4]
 8006ea6:	2b00      	cmp	r3, #0
 8006ea8:	d002      	beq.n	8006eb0 <HAL_SPI_Transmit+0xee>
 8006eaa:	8b7b      	ldrh	r3, [r7, #26]
 8006eac:	2b01      	cmp	r3, #1
 8006eae:	d145      	bne.n	8006f3c <HAL_SPI_Transmit+0x17a>
    {
      hspi->Instance->DR = *((const uint16_t *)hspi->pTxBuffPtr);
 8006eb0:	68fb      	ldr	r3, [r7, #12]
 8006eb2:	6b1b      	ldr	r3, [r3, #48]	@ 0x30
 8006eb4:	881a      	ldrh	r2, [r3, #0]
 8006eb6:	68fb      	ldr	r3, [r7, #12]
 8006eb8:	681b      	ldr	r3, [r3, #0]
 8006eba:	60da      	str	r2, [r3, #12]
      hspi->pTxBuffPtr += sizeof(uint16_t);
 8006ebc:	68fb      	ldr	r3, [r7, #12]
 8006ebe:	6b1b      	ldr	r3, [r3, #48]	@ 0x30
 8006ec0:	1c9a      	adds	r2, r3, #2
 8006ec2:	68fb      	ldr	r3, [r7, #12]
 8006ec4:	631a      	str	r2, [r3, #48]	@ 0x30
      hspi->TxXferCount--;
 8006ec6:	68fb      	ldr	r3, [r7, #12]
 8006ec8:	8edb      	ldrh	r3, [r3, #54]	@ 0x36
 8006eca:	b29b      	uxth	r3, r3
 8006ecc:	3b01      	subs	r3, #1
 8006ece:	b29a      	uxth	r2, r3
 8006ed0:	68fb      	ldr	r3, [r7, #12]
 8006ed2:	86da      	strh	r2, [r3, #54]	@ 0x36
    }
    /* Transmit data in 16 Bit mode */
    while (hspi->TxXferCount > 0U)
 8006ed4:	e032      	b.n	8006f3c <HAL_SPI_Transmit+0x17a>
    {
      /* Wait until TXE flag is set to send data */
      if (__HAL_SPI_GET_FLAG(hspi, SPI_FLAG_TXE))
 8006ed6:	68fb      	ldr	r3, [r7, #12]
 8006ed8:	681b      	ldr	r3, [r3, #0]
 8006eda:	689b      	ldr	r3, [r3, #8]
 8006edc:	f003 0302 	and.w	r3, r3, #2
 8006ee0:	2b02      	cmp	r3, #2
 8006ee2:	d112      	bne.n	8006f0a <HAL_SPI_Transmit+0x148>
      {
        hspi->Instance->DR = *((const uint16_t *)hspi->pTxBuffPtr);
 8006ee4:	68fb      	ldr	r3, [r7, #12]
 8006ee6:	6b1b      	ldr	r3, [r3, #48]	@ 0x30
 8006ee8:	881a      	ldrh	r2, [r3, #0]
 8006eea:	68fb      	ldr	r3, [r7, #12]
 8006eec:	681b      	ldr	r3, [r3, #0]
 8006eee:	60da      	str	r2, [r3, #12]
        hspi->pTxBuffPtr += sizeof(uint16_t);
 8006ef0:	68fb      	ldr	r3, [r7, #12]
 8006ef2:	6b1b      	ldr	r3, [r3, #48]	@ 0x30
 8006ef4:	1c9a      	adds	r2, r3, #2
 8006ef6:	68fb      	ldr	r3, [r7, #12]
 8006ef8:	631a      	str	r2, [r3, #48]	@ 0x30
        hspi->TxXferCount--;
 8006efa:	68fb      	ldr	r3, [r7, #12]
 8006efc:	8edb      	ldrh	r3, [r3, #54]	@ 0x36
 8006efe:	b29b      	uxth	r3, r3
 8006f00:	3b01      	subs	r3, #1
 8006f02:	b29a      	uxth	r2, r3
 8006f04:	68fb      	ldr	r3, [r7, #12]
 8006f06:	86da      	strh	r2, [r3, #54]	@ 0x36
 8006f08:	e018      	b.n	8006f3c <HAL_SPI_Transmit+0x17a>
      }
      else
      {
        /* Timeout management */
        if ((((HAL_GetTick() - tickstart) >=  Timeout) && (Timeout != HAL_MAX_DELAY)) || (Timeout == 0U))
 8006f0a:	f7fe fe7f 	bl	8005c0c <HAL_GetTick>
 8006f0e:	4602      	mov	r2, r0
 8006f10:	69fb      	ldr	r3, [r7, #28]
 8006f12:	1ad3      	subs	r3, r2, r3
 8006f14:	683a      	ldr	r2, [r7, #0]
 8006f16:	429a      	cmp	r2, r3
 8006f18:	d803      	bhi.n	8006f22 <HAL_SPI_Transmit+0x160>
 8006f1a:	683b      	ldr	r3, [r7, #0]
 8006f1c:	f1b3 3fff 	cmp.w	r3, #4294967295
 8006f20:	d102      	bne.n	8006f28 <HAL_SPI_Transmit+0x166>
 8006f22:	683b      	ldr	r3, [r7, #0]
 8006f24:	2b00      	cmp	r3, #0
 8006f26:	d109      	bne.n	8006f3c <HAL_SPI_Transmit+0x17a>
        {
          hspi->State = HAL_SPI_STATE_READY;
 8006f28:	68fb      	ldr	r3, [r7, #12]
 8006f2a:	2201      	movs	r2, #1
 8006f2c:	f883 2051 	strb.w	r2, [r3, #81]	@ 0x51
          __HAL_UNLOCK(hspi);
 8006f30:	68fb      	ldr	r3, [r7, #12]
 8006f32:	2200      	movs	r2, #0
 8006f34:	f883 2050 	strb.w	r2, [r3, #80]	@ 0x50
          return HAL_TIMEOUT;
 8006f38:	2303      	movs	r3, #3
 8006f3a:	e082      	b.n	8007042 <HAL_SPI_Transmit+0x280>
    while (hspi->TxXferCount > 0U)
 8006f3c:	68fb      	ldr	r3, [r7, #12]
 8006f3e:	8edb      	ldrh	r3, [r3, #54]	@ 0x36
 8006f40:	b29b      	uxth	r3, r3
 8006f42:	2b00      	cmp	r3, #0
 8006f44:	d1c7      	bne.n	8006ed6 <HAL_SPI_Transmit+0x114>
 8006f46:	e053      	b.n	8006ff0 <HAL_SPI_Transmit+0x22e>
    }
  }
  /* Transmit data in 8 Bit mode */
  else
  {
    if ((hspi->Init.Mode == SPI_MODE_SLAVE) || (initial_TxXferCount == 0x01U))
 8006f48:	68fb      	ldr	r3, [r7, #12]
 8006f4a:	685b      	ldr	r3, [r3, #4]
 8006f4c:	2b00      	cmp	r3, #0
 8006f4e:	d002      	beq.n	8006f56 <HAL_SPI_Transmit+0x194>
 8006f50:	8b7b      	ldrh	r3, [r7, #26]
 8006f52:	2b01      	cmp	r3, #1
 8006f54:	d147      	bne.n	8006fe6 <HAL_SPI_Transmit+0x224>
    {
      *((__IO uint8_t *)&hspi->Instance->DR) = *((const uint8_t *)hspi->pTxBuffPtr);
 8006f56:	68fb      	ldr	r3, [r7, #12]
 8006f58:	6b1a      	ldr	r2, [r3, #48]	@ 0x30
 8006f5a:	68fb      	ldr	r3, [r7, #12]
 8006f5c:	681b      	ldr	r3, [r3, #0]
 8006f5e:	330c      	adds	r3, #12
 8006f60:	7812      	ldrb	r2, [r2, #0]
 8006f62:	701a      	strb	r2, [r3, #0]
      hspi->pTxBuffPtr += sizeof(uint8_t);
 8006f64:	68fb      	ldr	r3, [r7, #12]
 8006f66:	6b1b      	ldr	r3, [r3, #48]	@ 0x30
 8006f68:	1c5a      	adds	r2, r3, #1
 8006f6a:	68fb      	ldr	r3, [r7, #12]
 8006f6c:	631a      	str	r2, [r3, #48]	@ 0x30
      hspi->TxXferCount--;
 8006f6e:	68fb      	ldr	r3, [r7, #12]
 8006f70:	8edb      	ldrh	r3, [r3, #54]	@ 0x36
 8006f72:	b29b      	uxth	r3, r3
 8006f74:	3b01      	subs	r3, #1
 8006f76:	b29a      	uxth	r2, r3
 8006f78:	68fb      	ldr	r3, [r7, #12]
 8006f7a:	86da      	strh	r2, [r3, #54]	@ 0x36
    }
    while (hspi->TxXferCount > 0U)
 8006f7c:	e033      	b.n	8006fe6 <HAL_SPI_Transmit+0x224>
    {
      /* Wait until TXE flag is set to send data */
      if (__HAL_SPI_GET_FLAG(hspi, SPI_FLAG_TXE))
 8006f7e:	68fb      	ldr	r3, [r7, #12]
 8006f80:	681b      	ldr	r3, [r3, #0]
 8006f82:	689b      	ldr	r3, [r3, #8]
 8006f84:	f003 0302 	and.w	r3, r3, #2
 8006f88:	2b02      	cmp	r3, #2
 8006f8a:	d113      	bne.n	8006fb4 <HAL_SPI_Transmit+0x1f2>
      {
        *((__IO uint8_t *)&hspi->Instance->DR) = *((const uint8_t *)hspi->pTxBuffPtr);
 8006f8c:	68fb      	ldr	r3, [r7, #12]
 8006f8e:	6b1a      	ldr	r2, [r3, #48]	@ 0x30
 8006f90:	68fb      	ldr	r3, [r7, #12]
 8006f92:	681b      	ldr	r3, [r3, #0]
 8006f94:	330c      	adds	r3, #12
 8006f96:	7812      	ldrb	r2, [r2, #0]
 8006f98:	701a      	strb	r2, [r3, #0]
        hspi->pTxBuffPtr += sizeof(uint8_t);
 8006f9a:	68fb      	ldr	r3, [r7, #12]
 8006f9c:	6b1b      	ldr	r3, [r3, #48]	@ 0x30
 8006f9e:	1c5a      	adds	r2, r3, #1
 8006fa0:	68fb      	ldr	r3, [r7, #12]
 8006fa2:	631a      	str	r2, [r3, #48]	@ 0x30
        hspi->TxXferCount--;
 8006fa4:	68fb      	ldr	r3, [r7, #12]
 8006fa6:	8edb      	ldrh	r3, [r3, #54]	@ 0x36
 8006fa8:	b29b      	uxth	r3, r3
 8006faa:	3b01      	subs	r3, #1
 8006fac:	b29a      	uxth	r2, r3
 8006fae:	68fb      	ldr	r3, [r7, #12]
 8006fb0:	86da      	strh	r2, [r3, #54]	@ 0x36
 8006fb2:	e018      	b.n	8006fe6 <HAL_SPI_Transmit+0x224>
      }
      else
      {
        /* Timeout management */
        if ((((HAL_GetTick() - tickstart) >=  Timeout) && (Timeout != HAL_MAX_DELAY)) || (Timeout == 0U))
 8006fb4:	f7fe fe2a 	bl	8005c0c <HAL_GetTick>
 8006fb8:	4602      	mov	r2, r0
 8006fba:	69fb      	ldr	r3, [r7, #28]
 8006fbc:	1ad3      	subs	r3, r2, r3
 8006fbe:	683a      	ldr	r2, [r7, #0]
 8006fc0:	429a      	cmp	r2, r3
 8006fc2:	d803      	bhi.n	8006fcc <HAL_SPI_Transmit+0x20a>
 8006fc4:	683b      	ldr	r3, [r7, #0]
 8006fc6:	f1b3 3fff 	cmp.w	r3, #4294967295
 8006fca:	d102      	bne.n	8006fd2 <HAL_SPI_Transmit+0x210>
 8006fcc:	683b      	ldr	r3, [r7, #0]
 8006fce:	2b00      	cmp	r3, #0
 8006fd0:	d109      	bne.n	8006fe6 <HAL_SPI_Transmit+0x224>
        {
          hspi->State = HAL_SPI_STATE_READY;
 8006fd2:	68fb      	ldr	r3, [r7, #12]
 8006fd4:	2201      	movs	r2, #1
 8006fd6:	f883 2051 	strb.w	r2, [r3, #81]	@ 0x51
          __HAL_UNLOCK(hspi);
 8006fda:	68fb      	ldr	r3, [r7, #12]
 8006fdc:	2200      	movs	r2, #0
 8006fde:	f883 2050 	strb.w	r2, [r3, #80]	@ 0x50
          return HAL_TIMEOUT;
 8006fe2:	2303      	movs	r3, #3
 8006fe4:	e02d      	b.n	8007042 <HAL_SPI_Transmit+0x280>
    while (hspi->TxXferCount > 0U)
 8006fe6:	68fb      	ldr	r3, [r7, #12]
 8006fe8:	8edb      	ldrh	r3, [r3, #54]	@ 0x36
 8006fea:	b29b      	uxth	r3, r3
 8006fec:	2b00      	cmp	r3, #0
 8006fee:	d1c6      	bne.n	8006f7e <HAL_SPI_Transmit+0x1bc>
    SET_BIT(hspi->Instance->CR1, SPI_CR1_CRCNEXT);
  }
#endif /* USE_SPI_CRC */

  /* Check the end of the transaction */
  if (SPI_EndRxTxTransaction(hspi, Timeout, tickstart) != HAL_OK)
 8006ff0:	69fa      	ldr	r2, [r7, #28]
 8006ff2:	6839      	ldr	r1, [r7, #0]
 8006ff4:	68f8      	ldr	r0, [r7, #12]
 8006ff6:	f000 fa59 	bl	80074ac <SPI_EndRxTxTransaction>
 8006ffa:	4603      	mov	r3, r0
 8006ffc:	2b00      	cmp	r3, #0
 8006ffe:	d002      	beq.n	8007006 <HAL_SPI_Transmit+0x244>
  {
    hspi->ErrorCode = HAL_SPI_ERROR_FLAG;
 8007000:	68fb      	ldr	r3, [r7, #12]
 8007002:	2220      	movs	r2, #32
 8007004:	655a      	str	r2, [r3, #84]	@ 0x54
  }

  /* Clear overrun flag in 2 Lines communication mode because received is not read */
  if (hspi->Init.Direction == SPI_DIRECTION_2LINES)
 8007006:	68fb      	ldr	r3, [r7, #12]
 8007008:	689b      	ldr	r3, [r3, #8]
 800700a:	2b00      	cmp	r3, #0
 800700c:	d10a      	bne.n	8007024 <HAL_SPI_Transmit+0x262>
  {
    __HAL_SPI_CLEAR_OVRFLAG(hspi);
 800700e:	2300      	movs	r3, #0
 8007010:	617b      	str	r3, [r7, #20]
 8007012:	68fb      	ldr	r3, [r7, #12]
 8007014:	681b      	ldr	r3, [r3, #0]
 8007016:	68db      	ldr	r3, [r3, #12]
 8007018:	617b      	str	r3, [r7, #20]
 800701a:	68fb      	ldr	r3, [r7, #12]
 800701c:	681b      	ldr	r3, [r3, #0]
 800701e:	689b      	ldr	r3, [r3, #8]
 8007020:	617b      	str	r3, [r7, #20]
 8007022:	697b      	ldr	r3, [r7, #20]
  }

  hspi->State = HAL_SPI_STATE_READY;
 8007024:	68fb      	ldr	r3, [r7, #12]
 8007026:	2201      	movs	r2, #1
 8007028:	f883 2051 	strb.w	r2, [r3, #81]	@ 0x51
  /* Process Unlocked */
  __HAL_UNLOCK(hspi);
 800702c:	68fb      	ldr	r3, [r7, #12]
 800702e:	2200      	movs	r2, #0
 8007030:	f883 2050 	strb.w	r2, [r3, #80]	@ 0x50

  if (hspi->ErrorCode != HAL_SPI_ERROR_NONE)
 8007034:	68fb      	ldr	r3, [r7, #12]
 8007036:	6d5b      	ldr	r3, [r3, #84]	@ 0x54
 8007038:	2b00      	cmp	r3, #0
 800703a:	d001      	beq.n	8007040 <HAL_SPI_Transmit+0x27e>
  {
    return HAL_ERROR;
 800703c:	2301      	movs	r3, #1
 800703e:	e000      	b.n	8007042 <HAL_SPI_Transmit+0x280>
  }
  else
  {
    return HAL_OK;
 8007040:	2300      	movs	r3, #0
  }
}
 8007042:	4618      	mov	r0, r3
 8007044:	3720      	adds	r7, #32
 8007046:	46bd      	mov	sp, r7
 8007048:	bd80      	pop	{r7, pc}

0800704a <HAL_SPI_TransmitReceive>:
  * @param  Timeout Timeout duration
  * @retval HAL status
  */
HAL_StatusTypeDef HAL_SPI_TransmitReceive(SPI_HandleTypeDef *hspi, const uint8_t *pTxData, uint8_t *pRxData,
                                          uint16_t Size, uint32_t Timeout)
{
 800704a:	b580      	push	{r7, lr}
 800704c:	b08a      	sub	sp, #40	@ 0x28
 800704e:	af00      	add	r7, sp, #0
 8007050:	60f8      	str	r0, [r7, #12]
 8007052:	60b9      	str	r1, [r7, #8]
 8007054:	607a      	str	r2, [r7, #4]
 8007056:	807b      	strh	r3, [r7, #2]
#if (USE_SPI_CRC != 0U)
  __IO uint32_t tmpreg = 0U;
#endif /* USE_SPI_CRC */

  /* Variable used to alternate Rx and Tx during transfer */
  uint32_t             txallowed = 1U;
 8007058:	2301      	movs	r3, #1
 800705a:	627b      	str	r3, [r7, #36]	@ 0x24

  /* Check Direction parameter */
  assert_param(IS_SPI_DIRECTION_2LINES(hspi->Init.Direction));

  /* Init tickstart for timeout management*/
  tickstart = HAL_GetTick();
 800705c:	f7fe fdd6 	bl	8005c0c <HAL_GetTick>
 8007060:	6238      	str	r0, [r7, #32]

  /* Init temporary variables */
  tmp_state           = hspi->State;
 8007062:	68fb      	ldr	r3, [r7, #12]
 8007064:	f893 3051 	ldrb.w	r3, [r3, #81]	@ 0x51
 8007068:	77fb      	strb	r3, [r7, #31]
  tmp_mode            = hspi->Init.Mode;
 800706a:	68fb      	ldr	r3, [r7, #12]
 800706c:	685b      	ldr	r3, [r3, #4]
 800706e:	61bb      	str	r3, [r7, #24]
  initial_TxXferCount = Size;
 8007070:	887b      	ldrh	r3, [r7, #2]
 8007072:	82fb      	strh	r3, [r7, #22]

  if (!((tmp_state == HAL_SPI_STATE_READY) || \
 8007074:	7ffb      	ldrb	r3, [r7, #31]
 8007076:	2b01      	cmp	r3, #1
 8007078:	d00c      	beq.n	8007094 <HAL_SPI_TransmitReceive+0x4a>
 800707a:	69bb      	ldr	r3, [r7, #24]
 800707c:	f5b3 7f82 	cmp.w	r3, #260	@ 0x104
 8007080:	d106      	bne.n	8007090 <HAL_SPI_TransmitReceive+0x46>
        ((tmp_mode == SPI_MODE_MASTER) && (hspi->Init.Direction == SPI_DIRECTION_2LINES) && (tmp_state == HAL_SPI_STATE_BUSY_RX))))
 8007082:	68fb      	ldr	r3, [r7, #12]
 8007084:	689b      	ldr	r3, [r3, #8]
 8007086:	2b00      	cmp	r3, #0
 8007088:	d102      	bne.n	8007090 <HAL_SPI_TransmitReceive+0x46>
 800708a:	7ffb      	ldrb	r3, [r7, #31]
 800708c:	2b04      	cmp	r3, #4
 800708e:	d001      	beq.n	8007094 <HAL_SPI_TransmitReceive+0x4a>
  {
    return HAL_BUSY;
 8007090:	2302      	movs	r3, #2
 8007092:	e17f      	b.n	8007394 <HAL_SPI_TransmitReceive+0x34a>
  }

  if ((pTxData == NULL) || (pRxData == NULL) || (Size == 0U))
 8007094:	68bb      	ldr	r3, [r7, #8]
 8007096:	2b00      	cmp	r3, #0
 8007098:	d005      	beq.n	80070a6 <HAL_SPI_TransmitReceive+0x5c>
 800709a:	687b      	ldr	r3, [r7, #4]
 800709c:	2b00      	cmp	r3, #0
 800709e:	d002      	beq.n	80070a6 <HAL_SPI_TransmitReceive+0x5c>
 80070a0:	887b      	ldrh	r3, [r7, #2]
 80070a2:	2b00      	cmp	r3, #0
 80070a4:	d101      	bne.n	80070aa <HAL_SPI_TransmitReceive+0x60>
  {
    return HAL_ERROR;
 80070a6:	2301      	movs	r3, #1
 80070a8:	e174      	b.n	8007394 <HAL_SPI_TransmitReceive+0x34a>
  }

  /* Process Locked */
  __HAL_LOCK(hspi);
 80070aa:	68fb      	ldr	r3, [r7, #12]
 80070ac:	f893 3050 	ldrb.w	r3, [r3, #80]	@ 0x50
 80070b0:	2b01      	cmp	r3, #1
 80070b2:	d101      	bne.n	80070b8 <HAL_SPI_TransmitReceive+0x6e>
 80070b4:	2302      	movs	r3, #2
 80070b6:	e16d      	b.n	8007394 <HAL_SPI_TransmitReceive+0x34a>
 80070b8:	68fb      	ldr	r3, [r7, #12]
 80070ba:	2201      	movs	r2, #1
 80070bc:	f883 2050 	strb.w	r2, [r3, #80]	@ 0x50

  /* Don't overwrite in case of HAL_SPI_STATE_BUSY_RX */
  if (hspi->State != HAL_SPI_STATE_BUSY_RX)
 80070c0:	68fb      	ldr	r3, [r7, #12]
 80070c2:	f893 3051 	ldrb.w	r3, [r3, #81]	@ 0x51
 80070c6:	b2db      	uxtb	r3, r3
 80070c8:	2b04      	cmp	r3, #4
 80070ca:	d003      	beq.n	80070d4 <HAL_SPI_TransmitReceive+0x8a>
  {
    hspi->State = HAL_SPI_STATE_BUSY_TX_RX;
 80070cc:	68fb      	ldr	r3, [r7, #12]
 80070ce:	2205      	movs	r2, #5
 80070d0:	f883 2051 	strb.w	r2, [r3, #81]	@ 0x51
  }

  /* Set the transaction information */
  hspi->ErrorCode   = HAL_SPI_ERROR_NONE;
 80070d4:	68fb      	ldr	r3, [r7, #12]
 80070d6:	2200      	movs	r2, #0
 80070d8:	655a      	str	r2, [r3, #84]	@ 0x54
  hspi->pRxBuffPtr  = (uint8_t *)pRxData;
 80070da:	68fb      	ldr	r3, [r7, #12]
 80070dc:	687a      	ldr	r2, [r7, #4]
 80070de:	639a      	str	r2, [r3, #56]	@ 0x38
  hspi->RxXferCount = Size;
 80070e0:	68fb      	ldr	r3, [r7, #12]
 80070e2:	887a      	ldrh	r2, [r7, #2]
 80070e4:	87da      	strh	r2, [r3, #62]	@ 0x3e
  hspi->RxXferSize  = Size;
 80070e6:	68fb      	ldr	r3, [r7, #12]
 80070e8:	887a      	ldrh	r2, [r7, #2]
 80070ea:	879a      	strh	r2, [r3, #60]	@ 0x3c
  hspi->pTxBuffPtr  = (const uint8_t *)pTxData;
 80070ec:	68fb      	ldr	r3, [r7, #12]
 80070ee:	68ba      	ldr	r2, [r7, #8]
 80070f0:	631a      	str	r2, [r3, #48]	@ 0x30
  hspi->TxXferCount = Size;
 80070f2:	68fb      	ldr	r3, [r7, #12]
 80070f4:	887a      	ldrh	r2, [r7, #2]
 80070f6:	86da      	strh	r2, [r3, #54]	@ 0x36
  hspi->TxXferSize  = Size;
 80070f8:	68fb      	ldr	r3, [r7, #12]
 80070fa:	887a      	ldrh	r2, [r7, #2]
 80070fc:	869a      	strh	r2, [r3, #52]	@ 0x34

  /*Init field not used in handle to zero */
  hspi->RxISR       = NULL;
 80070fe:	68fb      	ldr	r3, [r7, #12]
 8007100:	2200      	movs	r2, #0
 8007102:	641a      	str	r2, [r3, #64]	@ 0x40
  hspi->TxISR       = NULL;
 8007104:	68fb      	ldr	r3, [r7, #12]
 8007106:	2200      	movs	r2, #0
 8007108:	645a      	str	r2, [r3, #68]	@ 0x44
    SPI_RESET_CRC(hspi);
  }
#endif /* USE_SPI_CRC */

  /* Check if the SPI is already enabled */
  if ((hspi->Instance->CR1 & SPI_CR1_SPE) != SPI_CR1_SPE)
 800710a:	68fb      	ldr	r3, [r7, #12]
 800710c:	681b      	ldr	r3, [r3, #0]
 800710e:	681b      	ldr	r3, [r3, #0]
 8007110:	f003 0340 	and.w	r3, r3, #64	@ 0x40
 8007114:	2b40      	cmp	r3, #64	@ 0x40
 8007116:	d007      	beq.n	8007128 <HAL_SPI_TransmitReceive+0xde>
  {
    /* Enable SPI peripheral */
    __HAL_SPI_ENABLE(hspi);
 8007118:	68fb      	ldr	r3, [r7, #12]
 800711a:	681b      	ldr	r3, [r3, #0]
 800711c:	681a      	ldr	r2, [r3, #0]
 800711e:	68fb      	ldr	r3, [r7, #12]
 8007120:	681b      	ldr	r3, [r3, #0]
 8007122:	f042 0240 	orr.w	r2, r2, #64	@ 0x40
 8007126:	601a      	str	r2, [r3, #0]
  }

  /* Transmit and Receive data in 16 Bit mode */
  if (hspi->Init.DataSize == SPI_DATASIZE_16BIT)
 8007128:	68fb      	ldr	r3, [r7, #12]
 800712a:	68db      	ldr	r3, [r3, #12]
 800712c:	f5b3 6f00 	cmp.w	r3, #2048	@ 0x800
 8007130:	d17e      	bne.n	8007230 <HAL_SPI_TransmitReceive+0x1e6>
  {
    if ((hspi->Init.Mode == SPI_MODE_SLAVE) || (initial_TxXferCount == 0x01U))
 8007132:	68fb      	ldr	r3, [r7, #12]
 8007134:	685b      	ldr	r3, [r3, #4]
 8007136:	2b00      	cmp	r3, #0
 8007138:	d002      	beq.n	8007140 <HAL_SPI_TransmitReceive+0xf6>
 800713a:	8afb      	ldrh	r3, [r7, #22]
 800713c:	2b01      	cmp	r3, #1
 800713e:	d16c      	bne.n	800721a <HAL_SPI_TransmitReceive+0x1d0>
    {
      hspi->Instance->DR = *((const uint16_t *)hspi->pTxBuffPtr);
 8007140:	68fb      	ldr	r3, [r7, #12]
 8007142:	6b1b      	ldr	r3, [r3, #48]	@ 0x30
 8007144:	881a      	ldrh	r2, [r3, #0]
 8007146:	68fb      	ldr	r3, [r7, #12]
 8007148:	681b      	ldr	r3, [r3, #0]
 800714a:	60da      	str	r2, [r3, #12]
      hspi->pTxBuffPtr += sizeof(uint16_t);
 800714c:	68fb      	ldr	r3, [r7, #12]
 800714e:	6b1b      	ldr	r3, [r3, #48]	@ 0x30
 8007150:	1c9a      	adds	r2, r3, #2
 8007152:	68fb      	ldr	r3, [r7, #12]
 8007154:	631a      	str	r2, [r3, #48]	@ 0x30
      hspi->TxXferCount--;
 8007156:	68fb      	ldr	r3, [r7, #12]
 8007158:	8edb      	ldrh	r3, [r3, #54]	@ 0x36
 800715a:	b29b      	uxth	r3, r3
 800715c:	3b01      	subs	r3, #1
 800715e:	b29a      	uxth	r2, r3
 8007160:	68fb      	ldr	r3, [r7, #12]
 8007162:	86da      	strh	r2, [r3, #54]	@ 0x36
        SET_BIT(hspi->Instance->CR1, SPI_CR1_CRCNEXT);
      }
#endif /* USE_SPI_CRC */

    }
    while ((hspi->TxXferCount > 0U) || (hspi->RxXferCount > 0U))
 8007164:	e059      	b.n	800721a <HAL_SPI_TransmitReceive+0x1d0>
    {
      /* Check TXE flag */
      if ((__HAL_SPI_GET_FLAG(hspi, SPI_FLAG_TXE)) && (hspi->TxXferCount > 0U) && (txallowed == 1U))
 8007166:	68fb      	ldr	r3, [r7, #12]
 8007168:	681b      	ldr	r3, [r3, #0]
 800716a:	689b      	ldr	r3, [r3, #8]
 800716c:	f003 0302 	and.w	r3, r3, #2
 8007170:	2b02      	cmp	r3, #2
 8007172:	d11b      	bne.n	80071ac <HAL_SPI_TransmitReceive+0x162>
 8007174:	68fb      	ldr	r3, [r7, #12]
 8007176:	8edb      	ldrh	r3, [r3, #54]	@ 0x36
 8007178:	b29b      	uxth	r3, r3
 800717a:	2b00      	cmp	r3, #0
 800717c:	d016      	beq.n	80071ac <HAL_SPI_TransmitReceive+0x162>
 800717e:	6a7b      	ldr	r3, [r7, #36]	@ 0x24
 8007180:	2b01      	cmp	r3, #1
 8007182:	d113      	bne.n	80071ac <HAL_SPI_TransmitReceive+0x162>
      {
        hspi->Instance->DR = *((const uint16_t *)hspi->pTxBuffPtr);
 8007184:	68fb      	ldr	r3, [r7, #12]
 8007186:	6b1b      	ldr	r3, [r3, #48]	@ 0x30
 8007188:	881a      	ldrh	r2, [r3, #0]
 800718a:	68fb      	ldr	r3, [r7, #12]
 800718c:	681b      	ldr	r3, [r3, #0]
 800718e:	60da      	str	r2, [r3, #12]
        hspi->pTxBuffPtr += sizeof(uint16_t);
 8007190:	68fb      	ldr	r3, [r7, #12]
 8007192:	6b1b      	ldr	r3, [r3, #48]	@ 0x30
 8007194:	1c9a      	adds	r2, r3, #2
 8007196:	68fb      	ldr	r3, [r7, #12]
 8007198:	631a      	str	r2, [r3, #48]	@ 0x30
        hspi->TxXferCount--;
 800719a:	68fb      	ldr	r3, [r7, #12]
 800719c:	8edb      	ldrh	r3, [r3, #54]	@ 0x36
 800719e:	b29b      	uxth	r3, r3
 80071a0:	3b01      	subs	r3, #1
 80071a2:	b29a      	uxth	r2, r3
 80071a4:	68fb      	ldr	r3, [r7, #12]
 80071a6:	86da      	strh	r2, [r3, #54]	@ 0x36
        /* Next Data is a reception (Rx). Tx not allowed */
        txallowed = 0U;
 80071a8:	2300      	movs	r3, #0
 80071aa:	627b      	str	r3, [r7, #36]	@ 0x24
        }
#endif /* USE_SPI_CRC */
      }

      /* Check RXNE flag */
      if ((__HAL_SPI_GET_FLAG(hspi, SPI_FLAG_RXNE)) && (hspi->RxXferCount > 0U))
 80071ac:	68fb      	ldr	r3, [r7, #12]
 80071ae:	681b      	ldr	r3, [r3, #0]
 80071b0:	689b      	ldr	r3, [r3, #8]
 80071b2:	f003 0301 	and.w	r3, r3, #1
 80071b6:	2b01      	cmp	r3, #1
 80071b8:	d119      	bne.n	80071ee <HAL_SPI_TransmitReceive+0x1a4>
 80071ba:	68fb      	ldr	r3, [r7, #12]
 80071bc:	8fdb      	ldrh	r3, [r3, #62]	@ 0x3e
 80071be:	b29b      	uxth	r3, r3
 80071c0:	2b00      	cmp	r3, #0
 80071c2:	d014      	beq.n	80071ee <HAL_SPI_TransmitReceive+0x1a4>
      {
        *((uint16_t *)hspi->pRxBuffPtr) = (uint16_t)hspi->Instance->DR;
 80071c4:	68fb      	ldr	r3, [r7, #12]
 80071c6:	681b      	ldr	r3, [r3, #0]
 80071c8:	68da      	ldr	r2, [r3, #12]
 80071ca:	68fb      	ldr	r3, [r7, #12]
 80071cc:	6b9b      	ldr	r3, [r3, #56]	@ 0x38
 80071ce:	b292      	uxth	r2, r2
 80071d0:	801a      	strh	r2, [r3, #0]
        hspi->pRxBuffPtr += sizeof(uint16_t);
 80071d2:	68fb      	ldr	r3, [r7, #12]
 80071d4:	6b9b      	ldr	r3, [r3, #56]	@ 0x38
 80071d6:	1c9a      	adds	r2, r3, #2
 80071d8:	68fb      	ldr	r3, [r7, #12]
 80071da:	639a      	str	r2, [r3, #56]	@ 0x38
        hspi->RxXferCount--;
 80071dc:	68fb      	ldr	r3, [r7, #12]
 80071de:	8fdb      	ldrh	r3, [r3, #62]	@ 0x3e
 80071e0:	b29b      	uxth	r3, r3
 80071e2:	3b01      	subs	r3, #1
 80071e4:	b29a      	uxth	r2, r3
 80071e6:	68fb      	ldr	r3, [r7, #12]
 80071e8:	87da      	strh	r2, [r3, #62]	@ 0x3e
        /* Next Data is a Transmission (Tx). Tx is allowed */
        txallowed = 1U;
 80071ea:	2301      	movs	r3, #1
 80071ec:	627b      	str	r3, [r7, #36]	@ 0x24
      }
      if (((HAL_GetTick() - tickstart) >=  Timeout) && (Timeout != HAL_MAX_DELAY))
 80071ee:	f7fe fd0d 	bl	8005c0c <HAL_GetTick>
 80071f2:	4602      	mov	r2, r0
 80071f4:	6a3b      	ldr	r3, [r7, #32]
 80071f6:	1ad3      	subs	r3, r2, r3
 80071f8:	6b3a      	ldr	r2, [r7, #48]	@ 0x30
 80071fa:	429a      	cmp	r2, r3
 80071fc:	d80d      	bhi.n	800721a <HAL_SPI_TransmitReceive+0x1d0>
 80071fe:	6b3b      	ldr	r3, [r7, #48]	@ 0x30
 8007200:	f1b3 3fff 	cmp.w	r3, #4294967295
 8007204:	d009      	beq.n	800721a <HAL_SPI_TransmitReceive+0x1d0>
      {
        hspi->State = HAL_SPI_STATE_READY;
 8007206:	68fb      	ldr	r3, [r7, #12]
 8007208:	2201      	movs	r2, #1
 800720a:	f883 2051 	strb.w	r2, [r3, #81]	@ 0x51
        __HAL_UNLOCK(hspi);
 800720e:	68fb      	ldr	r3, [r7, #12]
 8007210:	2200      	movs	r2, #0
 8007212:	f883 2050 	strb.w	r2, [r3, #80]	@ 0x50
        return HAL_TIMEOUT;
 8007216:	2303      	movs	r3, #3
 8007218:	e0bc      	b.n	8007394 <HAL_SPI_TransmitReceive+0x34a>
    while ((hspi->TxXferCount > 0U) || (hspi->RxXferCount > 0U))
 800721a:	68fb      	ldr	r3, [r7, #12]
 800721c:	8edb      	ldrh	r3, [r3, #54]	@ 0x36
 800721e:	b29b      	uxth	r3, r3
 8007220:	2b00      	cmp	r3, #0
 8007222:	d1a0      	bne.n	8007166 <HAL_SPI_TransmitReceive+0x11c>
 8007224:	68fb      	ldr	r3, [r7, #12]
 8007226:	8fdb      	ldrh	r3, [r3, #62]	@ 0x3e
 8007228:	b29b      	uxth	r3, r3
 800722a:	2b00      	cmp	r3, #0
 800722c:	d19b      	bne.n	8007166 <HAL_SPI_TransmitReceive+0x11c>
 800722e:	e082      	b.n	8007336 <HAL_SPI_TransmitReceive+0x2ec>
    }
  }
  /* Transmit and Receive data in 8 Bit mode */
  else
  {
    if ((hspi->Init.Mode == SPI_MODE_SLAVE) || (initial_TxXferCount == 0x01U))
 8007230:	68fb      	ldr	r3, [r7, #12]
 8007232:	685b      	ldr	r3, [r3, #4]
 8007234:	2b00      	cmp	r3, #0
 8007236:	d002      	beq.n	800723e <HAL_SPI_TransmitReceive+0x1f4>
 8007238:	8afb      	ldrh	r3, [r7, #22]
 800723a:	2b01      	cmp	r3, #1
 800723c:	d171      	bne.n	8007322 <HAL_SPI_TransmitReceive+0x2d8>
    {
      *((__IO uint8_t *)&hspi->Instance->DR) = *((const uint8_t *)hspi->pTxBuffPtr);
 800723e:	68fb      	ldr	r3, [r7, #12]
 8007240:	6b1a      	ldr	r2, [r3, #48]	@ 0x30
 8007242:	68fb      	ldr	r3, [r7, #12]
 8007244:	681b      	ldr	r3, [r3, #0]
 8007246:	330c      	adds	r3, #12
 8007248:	7812      	ldrb	r2, [r2, #0]
 800724a:	701a      	strb	r2, [r3, #0]
      hspi->pTxBuffPtr += sizeof(uint8_t);
 800724c:	68fb      	ldr	r3, [r7, #12]
 800724e:	6b1b      	ldr	r3, [r3, #48]	@ 0x30
 8007250:	1c5a      	adds	r2, r3, #1
 8007252:	68fb      	ldr	r3, [r7, #12]
 8007254:	631a      	str	r2, [r3, #48]	@ 0x30
      hspi->TxXferCount--;
 8007256:	68fb      	ldr	r3, [r7, #12]
 8007258:	8edb      	ldrh	r3, [r3, #54]	@ 0x36
 800725a:	b29b      	uxth	r3, r3
 800725c:	3b01      	subs	r3, #1
 800725e:	b29a      	uxth	r2, r3
 8007260:	68fb      	ldr	r3, [r7, #12]
 8007262:	86da      	strh	r2, [r3, #54]	@ 0x36
      {
        SET_BIT(hspi->Instance->CR1, SPI_CR1_CRCNEXT);
      }
#endif /* USE_SPI_CRC */
    }
    while ((hspi->TxXferCount > 0U) || (hspi->RxXferCount > 0U))
 8007264:	e05d      	b.n	8007322 <HAL_SPI_TransmitReceive+0x2d8>
    {
      /* Check TXE flag */
      if ((__HAL_SPI_GET_FLAG(hspi, SPI_FLAG_TXE)) && (hspi->TxXferCount > 0U) && (txallowed == 1U))
 8007266:	68fb      	ldr	r3, [r7, #12]
 8007268:	681b      	ldr	r3, [r3, #0]
 800726a:	689b      	ldr	r3, [r3, #8]
 800726c:	f003 0302 	and.w	r3, r3, #2
 8007270:	2b02      	cmp	r3, #2
 8007272:	d11c      	bne.n	80072ae <HAL_SPI_TransmitReceive+0x264>
 8007274:	68fb      	ldr	r3, [r7, #12]
 8007276:	8edb      	ldrh	r3, [r3, #54]	@ 0x36
 8007278:	b29b      	uxth	r3, r3
 800727a:	2b00      	cmp	r3, #0
 800727c:	d017      	beq.n	80072ae <HAL_SPI_TransmitReceive+0x264>
 800727e:	6a7b      	ldr	r3, [r7, #36]	@ 0x24
 8007280:	2b01      	cmp	r3, #1
 8007282:	d114      	bne.n	80072ae <HAL_SPI_TransmitReceive+0x264>
      {
        *(__IO uint8_t *)&hspi->Instance->DR = *((const uint8_t *)hspi->pTxBuffPtr);
 8007284:	68fb      	ldr	r3, [r7, #12]
 8007286:	6b1a      	ldr	r2, [r3, #48]	@ 0x30
 8007288:	68fb      	ldr	r3, [r7, #12]
 800728a:	681b      	ldr	r3, [r3, #0]
 800728c:	330c      	adds	r3, #12
 800728e:	7812      	ldrb	r2, [r2, #0]
 8007290:	701a      	strb	r2, [r3, #0]
        hspi->pTxBuffPtr++;
 8007292:	68fb      	ldr	r3, [r7, #12]
 8007294:	6b1b      	ldr	r3, [r3, #48]	@ 0x30
 8007296:	1c5a      	adds	r2, r3, #1
 8007298:	68fb      	ldr	r3, [r7, #12]
 800729a:	631a      	str	r2, [r3, #48]	@ 0x30
        hspi->TxXferCount--;
 800729c:	68fb      	ldr	r3, [r7, #12]
 800729e:	8edb      	ldrh	r3, [r3, #54]	@ 0x36
 80072a0:	b29b      	uxth	r3, r3
 80072a2:	3b01      	subs	r3, #1
 80072a4:	b29a      	uxth	r2, r3
 80072a6:	68fb      	ldr	r3, [r7, #12]
 80072a8:	86da      	strh	r2, [r3, #54]	@ 0x36
        /* Next Data is a reception (Rx). Tx not allowed */
        txallowed = 0U;
 80072aa:	2300      	movs	r3, #0
 80072ac:	627b      	str	r3, [r7, #36]	@ 0x24
        }
#endif /* USE_SPI_CRC */
      }

      /* Wait until RXNE flag is reset */
      if ((__HAL_SPI_GET_FLAG(hspi, SPI_FLAG_RXNE)) && (hspi->RxXferCount > 0U))
 80072ae:	68fb      	ldr	r3, [r7, #12]
 80072b0:	681b      	ldr	r3, [r3, #0]
 80072b2:	689b      	ldr	r3, [r3, #8]
 80072b4:	f003 0301 	and.w	r3, r3, #1
 80072b8:	2b01      	cmp	r3, #1
 80072ba:	d119      	bne.n	80072f0 <HAL_SPI_TransmitReceive+0x2a6>
 80072bc:	68fb      	ldr	r3, [r7, #12]
 80072be:	8fdb      	ldrh	r3, [r3, #62]	@ 0x3e
 80072c0:	b29b      	uxth	r3, r3
 80072c2:	2b00      	cmp	r3, #0
 80072c4:	d014      	beq.n	80072f0 <HAL_SPI_TransmitReceive+0x2a6>
      {
        (*(uint8_t *)hspi->pRxBuffPtr) = hspi->Instance->DR;
 80072c6:	68fb      	ldr	r3, [r7, #12]
 80072c8:	681b      	ldr	r3, [r3, #0]
 80072ca:	68da      	ldr	r2, [r3, #12]
 80072cc:	68fb      	ldr	r3, [r7, #12]
 80072ce:	6b9b      	ldr	r3, [r3, #56]	@ 0x38
 80072d0:	b2d2      	uxtb	r2, r2
 80072d2:	701a      	strb	r2, [r3, #0]
        hspi->pRxBuffPtr++;
 80072d4:	68fb      	ldr	r3, [r7, #12]
 80072d6:	6b9b      	ldr	r3, [r3, #56]	@ 0x38
 80072d8:	1c5a      	adds	r2, r3, #1
 80072da:	68fb      	ldr	r3, [r7, #12]
 80072dc:	639a      	str	r2, [r3, #56]	@ 0x38
        hspi->RxXferCount--;
 80072de:	68fb      	ldr	r3, [r7, #12]
 80072e0:	8fdb      	ldrh	r3, [r3, #62]	@ 0x3e
 80072e2:	b29b      	uxth	r3, r3
 80072e4:	3b01      	subs	r3, #1
 80072e6:	b29a      	uxth	r2, r3
 80072e8:	68fb      	ldr	r3, [r7, #12]
 80072ea:	87da      	strh	r2, [r3, #62]	@ 0x3e
        /* Next Data is a Transmission (Tx). Tx is allowed */
        txallowed = 1U;
 80072ec:	2301      	movs	r3, #1
 80072ee:	627b      	str	r3, [r7, #36]	@ 0x24
      }
      if ((((HAL_GetTick() - tickstart) >=  Timeout) && ((Timeout != HAL_MAX_DELAY))) || (Timeout == 0U))
 80072f0:	f7fe fc8c 	bl	8005c0c <HAL_GetTick>
 80072f4:	4602      	mov	r2, r0
 80072f6:	6a3b      	ldr	r3, [r7, #32]
 80072f8:	1ad3      	subs	r3, r2, r3
 80072fa:	6b3a      	ldr	r2, [r7, #48]	@ 0x30
 80072fc:	429a      	cmp	r2, r3
 80072fe:	d803      	bhi.n	8007308 <HAL_SPI_TransmitReceive+0x2be>
 8007300:	6b3b      	ldr	r3, [r7, #48]	@ 0x30
 8007302:	f1b3 3fff 	cmp.w	r3, #4294967295
 8007306:	d102      	bne.n	800730e <HAL_SPI_TransmitReceive+0x2c4>
 8007308:	6b3b      	ldr	r3, [r7, #48]	@ 0x30
 800730a:	2b00      	cmp	r3, #0
 800730c:	d109      	bne.n	8007322 <HAL_SPI_TransmitReceive+0x2d8>
      {
        hspi->State = HAL_SPI_STATE_READY;
 800730e:	68fb      	ldr	r3, [r7, #12]
 8007310:	2201      	movs	r2, #1
 8007312:	f883 2051 	strb.w	r2, [r3, #81]	@ 0x51
        __HAL_UNLOCK(hspi);
 8007316:	68fb      	ldr	r3, [r7, #12]
 8007318:	2200      	movs	r2, #0
 800731a:	f883 2050 	strb.w	r2, [r3, #80]	@ 0x50
        return HAL_TIMEOUT;
 800731e:	2303      	movs	r3, #3
 8007320:	e038      	b.n	8007394 <HAL_SPI_TransmitReceive+0x34a>
    while ((hspi->TxXferCount > 0U) || (hspi->RxXferCount > 0U))
 8007322:	68fb      	ldr	r3, [r7, #12]
 8007324:	8edb      	ldrh	r3, [r3, #54]	@ 0x36
 8007326:	b29b      	uxth	r3, r3
 8007328:	2b00      	cmp	r3, #0
 800732a:	d19c      	bne.n	8007266 <HAL_SPI_TransmitReceive+0x21c>
 800732c:	68fb      	ldr	r3, [r7, #12]
 800732e:	8fdb      	ldrh	r3, [r3, #62]	@ 0x3e
 8007330:	b29b      	uxth	r3, r3
 8007332:	2b00      	cmp	r3, #0
 8007334:	d197      	bne.n	8007266 <HAL_SPI_TransmitReceive+0x21c>
    return HAL_ERROR;
  }
#endif /* USE_SPI_CRC */

  /* Check the end of the transaction */
  if (SPI_EndRxTxTransaction(hspi, Timeout, tickstart) != HAL_OK)
 8007336:	6a3a      	ldr	r2, [r7, #32]
 8007338:	6b39      	ldr	r1, [r7, #48]	@ 0x30
 800733a:	68f8      	ldr	r0, [r7, #12]
 800733c:	f000 f8b6 	bl	80074ac <SPI_EndRxTxTransaction>
 8007340:	4603      	mov	r3, r0
 8007342:	2b00      	cmp	r3, #0
 8007344:	d008      	beq.n	8007358 <HAL_SPI_TransmitReceive+0x30e>
  {
    hspi->ErrorCode = HAL_SPI_ERROR_FLAG;
 8007346:	68fb      	ldr	r3, [r7, #12]
 8007348:	2220      	movs	r2, #32
 800734a:	655a      	str	r2, [r3, #84]	@ 0x54
    __HAL_UNLOCK(hspi);
 800734c:	68fb      	ldr	r3, [r7, #12]
 800734e:	2200      	movs	r2, #0
 8007350:	f883 2050 	strb.w	r2, [r3, #80]	@ 0x50
    return HAL_ERROR;
 8007354:	2301      	movs	r3, #1
 8007356:	e01d      	b.n	8007394 <HAL_SPI_TransmitReceive+0x34a>
  }

  /* Clear overrun flag in 2 Lines communication mode because received is not read */
  if (hspi->Init.Direction == SPI_DIRECTION_2LINES)
 8007358:	68fb      	ldr	r3, [r7, #12]
 800735a:	689b      	ldr	r3, [r3, #8]
 800735c:	2b00      	cmp	r3, #0
 800735e:	d10a      	bne.n	8007376 <HAL_SPI_TransmitReceive+0x32c>
  {
    __HAL_SPI_CLEAR_OVRFLAG(hspi);
 8007360:	2300      	movs	r3, #0
 8007362:	613b      	str	r3, [r7, #16]
 8007364:	68fb      	ldr	r3, [r7, #12]
 8007366:	681b      	ldr	r3, [r3, #0]
 8007368:	68db      	ldr	r3, [r3, #12]
 800736a:	613b      	str	r3, [r7, #16]
 800736c:	68fb      	ldr	r3, [r7, #12]
 800736e:	681b      	ldr	r3, [r3, #0]
 8007370:	689b      	ldr	r3, [r3, #8]
 8007372:	613b      	str	r3, [r7, #16]
 8007374:	693b      	ldr	r3, [r7, #16]
  }


  hspi->State = HAL_SPI_STATE_READY;
 8007376:	68fb      	ldr	r3, [r7, #12]
 8007378:	2201      	movs	r2, #1
 800737a:	f883 2051 	strb.w	r2, [r3, #81]	@ 0x51
  /* Unlock the process */
  __HAL_UNLOCK(hspi);
 800737e:	68fb      	ldr	r3, [r7, #12]
 8007380:	2200      	movs	r2, #0
 8007382:	f883 2050 	strb.w	r2, [r3, #80]	@ 0x50

  if (hspi->ErrorCode != HAL_SPI_ERROR_NONE)
 8007386:	68fb      	ldr	r3, [r7, #12]
 8007388:	6d5b      	ldr	r3, [r3, #84]	@ 0x54
 800738a:	2b00      	cmp	r3, #0
 800738c:	d001      	beq.n	8007392 <HAL_SPI_TransmitReceive+0x348>
  {
    return HAL_ERROR;
 800738e:	2301      	movs	r3, #1
 8007390:	e000      	b.n	8007394 <HAL_SPI_TransmitReceive+0x34a>
  }
  else
  {
    return HAL_OK;
 8007392:	2300      	movs	r3, #0
  }
}
 8007394:	4618      	mov	r0, r3
 8007396:	3728      	adds	r7, #40	@ 0x28
 8007398:	46bd      	mov	sp, r7
 800739a:	bd80      	pop	{r7, pc}

0800739c <SPI_WaitFlagStateUntilTimeout>:
  * @param  Tickstart tick start value
  * @retval HAL status
  */
static HAL_StatusTypeDef SPI_WaitFlagStateUntilTimeout(SPI_HandleTypeDef *hspi, uint32_t Flag, FlagStatus State,
                                                       uint32_t Timeout, uint32_t Tickstart)
{
 800739c:	b580      	push	{r7, lr}
 800739e:	b088      	sub	sp, #32
 80073a0:	af00      	add	r7, sp, #0
 80073a2:	60f8      	str	r0, [r7, #12]
 80073a4:	60b9      	str	r1, [r7, #8]
 80073a6:	603b      	str	r3, [r7, #0]
 80073a8:	4613      	mov	r3, r2
 80073aa:	71fb      	strb	r3, [r7, #7]
  __IO uint32_t count;
  uint32_t tmp_timeout;
  uint32_t tmp_tickstart;

  /* Adjust Timeout value  in case of end of transfer */
  tmp_timeout   = Timeout - (HAL_GetTick() - Tickstart);
 80073ac:	f7fe fc2e 	bl	8005c0c <HAL_GetTick>
 80073b0:	4602      	mov	r2, r0
 80073b2:	6abb      	ldr	r3, [r7, #40]	@ 0x28
 80073b4:	1a9b      	subs	r3, r3, r2
 80073b6:	683a      	ldr	r2, [r7, #0]
 80073b8:	4413      	add	r3, r2
 80073ba:	61fb      	str	r3, [r7, #28]
  tmp_tickstart = HAL_GetTick();
 80073bc:	f7fe fc26 	bl	8005c0c <HAL_GetTick>
 80073c0:	61b8      	str	r0, [r7, #24]

  /* Calculate Timeout based on a software loop to avoid blocking issue if Systick is disabled */
  count = tmp_timeout * ((SystemCoreClock * 32U) >> 20U);
 80073c2:	4b39      	ldr	r3, [pc, #228]	@ (80074a8 <SPI_WaitFlagStateUntilTimeout+0x10c>)
 80073c4:	681b      	ldr	r3, [r3, #0]
 80073c6:	015b      	lsls	r3, r3, #5
 80073c8:	0d1b      	lsrs	r3, r3, #20
 80073ca:	69fa      	ldr	r2, [r7, #28]
 80073cc:	fb02 f303 	mul.w	r3, r2, r3
 80073d0:	617b      	str	r3, [r7, #20]

  while ((__HAL_SPI_GET_FLAG(hspi, Flag) ? SET : RESET) != State)
 80073d2:	e054      	b.n	800747e <SPI_WaitFlagStateUntilTimeout+0xe2>
  {
    if (Timeout != HAL_MAX_DELAY)
 80073d4:	683b      	ldr	r3, [r7, #0]
 80073d6:	f1b3 3fff 	cmp.w	r3, #4294967295
 80073da:	d050      	beq.n	800747e <SPI_WaitFlagStateUntilTimeout+0xe2>
    {
      if (((HAL_GetTick() - tmp_tickstart) >= tmp_timeout) || (tmp_timeout == 0U))
 80073dc:	f7fe fc16 	bl	8005c0c <HAL_GetTick>
 80073e0:	4602      	mov	r2, r0
 80073e2:	69bb      	ldr	r3, [r7, #24]
 80073e4:	1ad3      	subs	r3, r2, r3
 80073e6:	69fa      	ldr	r2, [r7, #28]
 80073e8:	429a      	cmp	r2, r3
 80073ea:	d902      	bls.n	80073f2 <SPI_WaitFlagStateUntilTimeout+0x56>
 80073ec:	69fb      	ldr	r3, [r7, #28]
 80073ee:	2b00      	cmp	r3, #0
 80073f0:	d13d      	bne.n	800746e <SPI_WaitFlagStateUntilTimeout+0xd2>
        /* Disable the SPI and reset the CRC: the CRC value should be cleared
           on both master and slave sides in order to resynchronize the master
           and slave for their respective CRC calculation */

        /* Disable TXE, RXNE and ERR interrupts for the interrupt process */
        __HAL_SPI_DISABLE_IT(hspi, (SPI_IT_TXE | SPI_IT_RXNE | SPI_IT_ERR));
 80073f2:	68fb      	ldr	r3, [r7, #12]
 80073f4:	681b      	ldr	r3, [r3, #0]
 80073f6:	685a      	ldr	r2, [r3, #4]
 80073f8:	68fb      	ldr	r3, [r7, #12]
 80073fa:	681b      	ldr	r3, [r3, #0]
 80073fc:	f022 02e0 	bic.w	r2, r2, #224	@ 0xe0
 8007400:	605a      	str	r2, [r3, #4]

        if ((hspi->Init.Mode == SPI_MODE_MASTER) && ((hspi->Init.Direction == SPI_DIRECTION_1LINE)
 8007402:	68fb      	ldr	r3, [r7, #12]
 8007404:	685b      	ldr	r3, [r3, #4]
 8007406:	f5b3 7f82 	cmp.w	r3, #260	@ 0x104
 800740a:	d111      	bne.n	8007430 <SPI_WaitFlagStateUntilTimeout+0x94>
 800740c:	68fb      	ldr	r3, [r7, #12]
 800740e:	689b      	ldr	r3, [r3, #8]
 8007410:	f5b3 4f00 	cmp.w	r3, #32768	@ 0x8000
 8007414:	d004      	beq.n	8007420 <SPI_WaitFlagStateUntilTimeout+0x84>
                                                     || (hspi->Init.Direction == SPI_DIRECTION_2LINES_RXONLY)))
 8007416:	68fb      	ldr	r3, [r7, #12]
 8007418:	689b      	ldr	r3, [r3, #8]
 800741a:	f5b3 6f80 	cmp.w	r3, #1024	@ 0x400
 800741e:	d107      	bne.n	8007430 <SPI_WaitFlagStateUntilTimeout+0x94>
        {
          /* Disable SPI peripheral */
          __HAL_SPI_DISABLE(hspi);
 8007420:	68fb      	ldr	r3, [r7, #12]
 8007422:	681b      	ldr	r3, [r3, #0]
 8007424:	681a      	ldr	r2, [r3, #0]
 8007426:	68fb      	ldr	r3, [r7, #12]
 8007428:	681b      	ldr	r3, [r3, #0]
 800742a:	f022 0240 	bic.w	r2, r2, #64	@ 0x40
 800742e:	601a      	str	r2, [r3, #0]
        }

        /* Reset CRC Calculation */
        if (hspi->Init.CRCCalculation == SPI_CRCCALCULATION_ENABLE)
 8007430:	68fb      	ldr	r3, [r7, #12]
 8007432:	6a9b      	ldr	r3, [r3, #40]	@ 0x28
 8007434:	f5b3 5f00 	cmp.w	r3, #8192	@ 0x2000
 8007438:	d10f      	bne.n	800745a <SPI_WaitFlagStateUntilTimeout+0xbe>
        {
          SPI_RESET_CRC(hspi);
 800743a:	68fb      	ldr	r3, [r7, #12]
 800743c:	681b      	ldr	r3, [r3, #0]
 800743e:	681a      	ldr	r2, [r3, #0]
 8007440:	68fb      	ldr	r3, [r7, #12]
 8007442:	681b      	ldr	r3, [r3, #0]
 8007444:	f422 5200 	bic.w	r2, r2, #8192	@ 0x2000
 8007448:	601a      	str	r2, [r3, #0]
 800744a:	68fb      	ldr	r3, [r7, #12]
 800744c:	681b      	ldr	r3, [r3, #0]
 800744e:	681a      	ldr	r2, [r3, #0]
 8007450:	68fb      	ldr	r3, [r7, #12]
 8007452:	681b      	ldr	r3, [r3, #0]
 8007454:	f442 5200 	orr.w	r2, r2, #8192	@ 0x2000
 8007458:	601a      	str	r2, [r3, #0]
        }

        hspi->State = HAL_SPI_STATE_READY;
 800745a:	68fb      	ldr	r3, [r7, #12]
 800745c:	2201      	movs	r2, #1
 800745e:	f883 2051 	strb.w	r2, [r3, #81]	@ 0x51

        /* Process Unlocked */
        __HAL_UNLOCK(hspi);
 8007462:	68fb      	ldr	r3, [r7, #12]
 8007464:	2200      	movs	r2, #0
 8007466:	f883 2050 	strb.w	r2, [r3, #80]	@ 0x50

        return HAL_TIMEOUT;
 800746a:	2303      	movs	r3, #3
 800746c:	e017      	b.n	800749e <SPI_WaitFlagStateUntilTimeout+0x102>
      }
      /* If Systick is disabled or not incremented, deactivate timeout to go in disable loop procedure */
      if (count == 0U)
 800746e:	697b      	ldr	r3, [r7, #20]
 8007470:	2b00      	cmp	r3, #0
 8007472:	d101      	bne.n	8007478 <SPI_WaitFlagStateUntilTimeout+0xdc>
      {
        tmp_timeout = 0U;
 8007474:	2300      	movs	r3, #0
 8007476:	61fb      	str	r3, [r7, #28]
      }
      count--;
 8007478:	697b      	ldr	r3, [r7, #20]
 800747a:	3b01      	subs	r3, #1
 800747c:	617b      	str	r3, [r7, #20]
  while ((__HAL_SPI_GET_FLAG(hspi, Flag) ? SET : RESET) != State)
 800747e:	68fb      	ldr	r3, [r7, #12]
 8007480:	681b      	ldr	r3, [r3, #0]
 8007482:	689a      	ldr	r2, [r3, #8]
 8007484:	68bb      	ldr	r3, [r7, #8]
 8007486:	4013      	ands	r3, r2
 8007488:	68ba      	ldr	r2, [r7, #8]
 800748a:	429a      	cmp	r2, r3
 800748c:	bf0c      	ite	eq
 800748e:	2301      	moveq	r3, #1
 8007490:	2300      	movne	r3, #0
 8007492:	b2db      	uxtb	r3, r3
 8007494:	461a      	mov	r2, r3
 8007496:	79fb      	ldrb	r3, [r7, #7]
 8007498:	429a      	cmp	r2, r3
 800749a:	d19b      	bne.n	80073d4 <SPI_WaitFlagStateUntilTimeout+0x38>
    }
  }

  return HAL_OK;
 800749c:	2300      	movs	r3, #0
}
 800749e:	4618      	mov	r0, r3
 80074a0:	3720      	adds	r7, #32
 80074a2:	46bd      	mov	sp, r7
 80074a4:	bd80      	pop	{r7, pc}
 80074a6:	bf00      	nop
 80074a8:	20000100 	.word	0x20000100

080074ac <SPI_EndRxTxTransaction>:
  * @param  Timeout Timeout duration
  * @param  Tickstart tick start value
  * @retval HAL status
  */
static HAL_StatusTypeDef SPI_EndRxTxTransaction(SPI_HandleTypeDef *hspi, uint32_t Timeout, uint32_t Tickstart)
{
 80074ac:	b580      	push	{r7, lr}
 80074ae:	b088      	sub	sp, #32
 80074b0:	af02      	add	r7, sp, #8
 80074b2:	60f8      	str	r0, [r7, #12]
 80074b4:	60b9      	str	r1, [r7, #8]
 80074b6:	607a      	str	r2, [r7, #4]
  /* Wait until TXE flag */
  if(SPI_WaitFlagStateUntilTimeout(hspi, SPI_FLAG_TXE, SET, Timeout, Tickstart) != HAL_OK)
 80074b8:	687b      	ldr	r3, [r7, #4]
 80074ba:	9300      	str	r3, [sp, #0]
 80074bc:	68bb      	ldr	r3, [r7, #8]
 80074be:	2201      	movs	r2, #1
 80074c0:	2102      	movs	r1, #2
 80074c2:	68f8      	ldr	r0, [r7, #12]
 80074c4:	f7ff ff6a 	bl	800739c <SPI_WaitFlagStateUntilTimeout>
 80074c8:	4603      	mov	r3, r0
 80074ca:	2b00      	cmp	r3, #0
 80074cc:	d007      	beq.n	80074de <SPI_EndRxTxTransaction+0x32>
  {
    SET_BIT(hspi->ErrorCode, HAL_SPI_ERROR_FLAG);
 80074ce:	68fb      	ldr	r3, [r7, #12]
 80074d0:	6d5b      	ldr	r3, [r3, #84]	@ 0x54
 80074d2:	f043 0220 	orr.w	r2, r3, #32
 80074d6:	68fb      	ldr	r3, [r7, #12]
 80074d8:	655a      	str	r2, [r3, #84]	@ 0x54
    return HAL_TIMEOUT;
 80074da:	2303      	movs	r3, #3
 80074dc:	e032      	b.n	8007544 <SPI_EndRxTxTransaction+0x98>
  }

  /* Timeout in s */
  __IO uint32_t count = SPI_BSY_FLAG_WORKAROUND_TIMEOUT * (SystemCoreClock / 24U / 1000000U);
 80074de:	4b1b      	ldr	r3, [pc, #108]	@ (800754c <SPI_EndRxTxTransaction+0xa0>)
 80074e0:	681b      	ldr	r3, [r3, #0]
 80074e2:	4a1b      	ldr	r2, [pc, #108]	@ (8007550 <SPI_EndRxTxTransaction+0xa4>)
 80074e4:	fba2 2303 	umull	r2, r3, r2, r3
 80074e8:	0d5b      	lsrs	r3, r3, #21
 80074ea:	f44f 727a 	mov.w	r2, #1000	@ 0x3e8
 80074ee:	fb02 f303 	mul.w	r3, r2, r3
 80074f2:	617b      	str	r3, [r7, #20]
  /* Erratasheet: BSY bit may stay high at the end of a data transfer in Slave mode */
  if (hspi->Init.Mode == SPI_MODE_MASTER)
 80074f4:	68fb      	ldr	r3, [r7, #12]
 80074f6:	685b      	ldr	r3, [r3, #4]
 80074f8:	f5b3 7f82 	cmp.w	r3, #260	@ 0x104
 80074fc:	d112      	bne.n	8007524 <SPI_EndRxTxTransaction+0x78>
  {
    /* Control the BSY flag */
    if (SPI_WaitFlagStateUntilTimeout(hspi, SPI_FLAG_BSY, RESET, Timeout, Tickstart) != HAL_OK)
 80074fe:	687b      	ldr	r3, [r7, #4]
 8007500:	9300      	str	r3, [sp, #0]
 8007502:	68bb      	ldr	r3, [r7, #8]
 8007504:	2200      	movs	r2, #0
 8007506:	2180      	movs	r1, #128	@ 0x80
 8007508:	68f8      	ldr	r0, [r7, #12]
 800750a:	f7ff ff47 	bl	800739c <SPI_WaitFlagStateUntilTimeout>
 800750e:	4603      	mov	r3, r0
 8007510:	2b00      	cmp	r3, #0
 8007512:	d016      	beq.n	8007542 <SPI_EndRxTxTransaction+0x96>
    {
      SET_BIT(hspi->ErrorCode, HAL_SPI_ERROR_FLAG);
 8007514:	68fb      	ldr	r3, [r7, #12]
 8007516:	6d5b      	ldr	r3, [r3, #84]	@ 0x54
 8007518:	f043 0220 	orr.w	r2, r3, #32
 800751c:	68fb      	ldr	r3, [r7, #12]
 800751e:	655a      	str	r2, [r3, #84]	@ 0x54
      return HAL_TIMEOUT;
 8007520:	2303      	movs	r3, #3
 8007522:	e00f      	b.n	8007544 <SPI_EndRxTxTransaction+0x98>
    * User have to calculate the timeout value to fit with the time of 1 byte transfer.
    * This time is directly link with the SPI clock from Master device.
    */
    do
    {
      if (count == 0U)
 8007524:	697b      	ldr	r3, [r7, #20]
 8007526:	2b00      	cmp	r3, #0
 8007528:	d00a      	beq.n	8007540 <SPI_EndRxTxTransaction+0x94>
      {
        break;
      }
      count--;
 800752a:	697b      	ldr	r3, [r7, #20]
 800752c:	3b01      	subs	r3, #1
 800752e:	617b      	str	r3, [r7, #20]
    } while (__HAL_SPI_GET_FLAG(hspi, SPI_FLAG_BSY) != RESET);
 8007530:	68fb      	ldr	r3, [r7, #12]
 8007532:	681b      	ldr	r3, [r3, #0]
 8007534:	689b      	ldr	r3, [r3, #8]
 8007536:	f003 0380 	and.w	r3, r3, #128	@ 0x80
 800753a:	2b80      	cmp	r3, #128	@ 0x80
 800753c:	d0f2      	beq.n	8007524 <SPI_EndRxTxTransaction+0x78>
 800753e:	e000      	b.n	8007542 <SPI_EndRxTxTransaction+0x96>
        break;
 8007540:	bf00      	nop
  }

  return HAL_OK;
 8007542:	2300      	movs	r3, #0
}
 8007544:	4618      	mov	r0, r3
 8007546:	3718      	adds	r7, #24
 8007548:	46bd      	mov	sp, r7
 800754a:	bd80      	pop	{r7, pc}
 800754c:	20000100 	.word	0x20000100
 8007550:	165e9f81 	.word	0x165e9f81

08007554 <HAL_SRAM_Init>:
  * @param  ExtTiming Pointer to SRAM extended mode timing structure
  * @retval HAL status
  */
HAL_StatusTypeDef HAL_SRAM_Init(SRAM_HandleTypeDef *hsram, FMC_NORSRAM_TimingTypeDef *Timing,
                                FMC_NORSRAM_TimingTypeDef *ExtTiming)
{
 8007554:	b580      	push	{r7, lr}
 8007556:	b084      	sub	sp, #16
 8007558:	af00      	add	r7, sp, #0
 800755a:	60f8      	str	r0, [r7, #12]
 800755c:	60b9      	str	r1, [r7, #8]
 800755e:	607a      	str	r2, [r7, #4]
  /* Check the SRAM handle parameter */
  if (hsram == NULL)
 8007560:	68fb      	ldr	r3, [r7, #12]
 8007562:	2b00      	cmp	r3, #0
 8007564:	d101      	bne.n	800756a <HAL_SRAM_Init+0x16>
  {
    return HAL_ERROR;
 8007566:	2301      	movs	r3, #1
 8007568:	e038      	b.n	80075dc <HAL_SRAM_Init+0x88>
  }

  if (hsram->State == HAL_SRAM_STATE_RESET)
 800756a:	68fb      	ldr	r3, [r7, #12]
 800756c:	f893 3049 	ldrb.w	r3, [r3, #73]	@ 0x49
 8007570:	b2db      	uxtb	r3, r3
 8007572:	2b00      	cmp	r3, #0
 8007574:	d106      	bne.n	8007584 <HAL_SRAM_Init+0x30>
  {
    /* Allocate lock resource and initialize it */
    hsram->Lock = HAL_UNLOCKED;
 8007576:	68fb      	ldr	r3, [r7, #12]
 8007578:	2200      	movs	r2, #0
 800757a:	f883 2048 	strb.w	r2, [r3, #72]	@ 0x48

    /* Init the low level hardware */
    hsram->MspInitCallback(hsram);
#else
    /* Initialize the low level hardware (MSP) */
    HAL_SRAM_MspInit(hsram);
 800757e:	68f8      	ldr	r0, [r7, #12]
 8007580:	f7fe f992 	bl	80058a8 <HAL_SRAM_MspInit>
#endif /* USE_HAL_SRAM_REGISTER_CALLBACKS */
  }

  /* Initialize SRAM control Interface */
  (void)FMC_NORSRAM_Init(hsram->Instance, &(hsram->Init));
 8007584:	68fb      	ldr	r3, [r7, #12]
 8007586:	681a      	ldr	r2, [r3, #0]
 8007588:	68fb      	ldr	r3, [r7, #12]
 800758a:	3308      	adds	r3, #8
 800758c:	4619      	mov	r1, r3
 800758e:	4610      	mov	r0, r2
 8007590:	f001 f87e 	bl	8008690 <FSMC_NORSRAM_Init>

  /* Initialize SRAM timing Interface */
  (void)FMC_NORSRAM_Timing_Init(hsram->Instance, Timing, hsram->Init.NSBank);
 8007594:	68fb      	ldr	r3, [r7, #12]
 8007596:	6818      	ldr	r0, [r3, #0]
 8007598:	68fb      	ldr	r3, [r7, #12]
 800759a:	689b      	ldr	r3, [r3, #8]
 800759c:	461a      	mov	r2, r3
 800759e:	68b9      	ldr	r1, [r7, #8]
 80075a0:	f001 f8e0 	bl	8008764 <FSMC_NORSRAM_Timing_Init>

  /* Initialize SRAM extended mode timing Interface */
  (void)FMC_NORSRAM_Extended_Timing_Init(hsram->Extended, ExtTiming, hsram->Init.NSBank,
 80075a4:	68fb      	ldr	r3, [r7, #12]
 80075a6:	6858      	ldr	r0, [r3, #4]
 80075a8:	68fb      	ldr	r3, [r7, #12]
 80075aa:	689a      	ldr	r2, [r3, #8]
 80075ac:	68fb      	ldr	r3, [r7, #12]
 80075ae:	6b1b      	ldr	r3, [r3, #48]	@ 0x30
 80075b0:	6879      	ldr	r1, [r7, #4]
 80075b2:	f001 f90d 	bl	80087d0 <FSMC_NORSRAM_Extended_Timing_Init>
                                         hsram->Init.ExtendedMode);

  /* Enable the NORSRAM device */
  __FMC_NORSRAM_ENABLE(hsram->Instance, hsram->Init.NSBank);
 80075b6:	68fb      	ldr	r3, [r7, #12]
 80075b8:	681b      	ldr	r3, [r3, #0]
 80075ba:	68fa      	ldr	r2, [r7, #12]
 80075bc:	6892      	ldr	r2, [r2, #8]
 80075be:	f853 1022 	ldr.w	r1, [r3, r2, lsl #2]
 80075c2:	68fb      	ldr	r3, [r7, #12]
 80075c4:	681b      	ldr	r3, [r3, #0]
 80075c6:	68fa      	ldr	r2, [r7, #12]
 80075c8:	6892      	ldr	r2, [r2, #8]
 80075ca:	f041 0101 	orr.w	r1, r1, #1
 80075ce:	f843 1022 	str.w	r1, [r3, r2, lsl #2]

  /* Initialize the SRAM controller state */
  hsram->State = HAL_SRAM_STATE_READY;
 80075d2:	68fb      	ldr	r3, [r7, #12]
 80075d4:	2201      	movs	r2, #1
 80075d6:	f883 2049 	strb.w	r2, [r3, #73]	@ 0x49

  return HAL_OK;
 80075da:	2300      	movs	r3, #0
}
 80075dc:	4618      	mov	r0, r3
 80075de:	3710      	adds	r7, #16
 80075e0:	46bd      	mov	sp, r7
 80075e2:	bd80      	pop	{r7, pc}

080075e4 <HAL_UART_Init>:
  * @param  huart  Pointer to a UART_HandleTypeDef structure that contains
  *                the configuration information for the specified UART module.
  * @retval HAL status
  */
HAL_StatusTypeDef HAL_UART_Init(UART_HandleTypeDef *huart)
{
 80075e4:	b580      	push	{r7, lr}
 80075e6:	b082      	sub	sp, #8
 80075e8:	af00      	add	r7, sp, #0
 80075ea:	6078      	str	r0, [r7, #4]
  /* Check the UART handle allocation */
  if (huart == NULL)
 80075ec:	687b      	ldr	r3, [r7, #4]
 80075ee:	2b00      	cmp	r3, #0
 80075f0:	d101      	bne.n	80075f6 <HAL_UART_Init+0x12>
  {
    return HAL_ERROR;
 80075f2:	2301      	movs	r3, #1
 80075f4:	e042      	b.n	800767c <HAL_UART_Init+0x98>
    assert_param(IS_UART_INSTANCE(huart->Instance));
  }
  assert_param(IS_UART_WORD_LENGTH(huart->Init.WordLength));
  assert_param(IS_UART_OVERSAMPLING(huart->Init.OverSampling));

  if (huart->gState == HAL_UART_STATE_RESET)
 80075f6:	687b      	ldr	r3, [r7, #4]
 80075f8:	f893 3041 	ldrb.w	r3, [r3, #65]	@ 0x41
 80075fc:	b2db      	uxtb	r3, r3
 80075fe:	2b00      	cmp	r3, #0
 8007600:	d106      	bne.n	8007610 <HAL_UART_Init+0x2c>
  {
    /* Allocate lock resource and initialize it */
    huart->Lock = HAL_UNLOCKED;
 8007602:	687b      	ldr	r3, [r7, #4]
 8007604:	2200      	movs	r2, #0
 8007606:	f883 2040 	strb.w	r2, [r3, #64]	@ 0x40

    /* Init the low level hardware */
    huart->MspInitCallback(huart);
#else
    /* Init the low level hardware : GPIO, CLOCK */
    HAL_UART_MspInit(huart);
 800760a:	6878      	ldr	r0, [r7, #4]
 800760c:	f7fe f8b0 	bl	8005770 <HAL_UART_MspInit>
#endif /* (USE_HAL_UART_REGISTER_CALLBACKS) */
  }

  huart->gState = HAL_UART_STATE_BUSY;
 8007610:	687b      	ldr	r3, [r7, #4]
 8007612:	2224      	movs	r2, #36	@ 0x24
 8007614:	f883 2041 	strb.w	r2, [r3, #65]	@ 0x41

  /* Disable the peripheral */
  __HAL_UART_DISABLE(huart);
 8007618:	687b      	ldr	r3, [r7, #4]
 800761a:	681b      	ldr	r3, [r3, #0]
 800761c:	68da      	ldr	r2, [r3, #12]
 800761e:	687b      	ldr	r3, [r7, #4]
 8007620:	681b      	ldr	r3, [r3, #0]
 8007622:	f422 5200 	bic.w	r2, r2, #8192	@ 0x2000
 8007626:	60da      	str	r2, [r3, #12]

  /* Set the UART Communication parameters */
  UART_SetConfig(huart);
 8007628:	6878      	ldr	r0, [r7, #4]
 800762a:	f000 fdbd 	bl	80081a8 <UART_SetConfig>

  /* In asynchronous mode, the following bits must be kept cleared:
     - LINEN and CLKEN bits in the USART_CR2 register,
     - SCEN, HDSEL and IREN  bits in the USART_CR3 register.*/
  CLEAR_BIT(huart->Instance->CR2, (USART_CR2_LINEN | USART_CR2_CLKEN));
 800762e:	687b      	ldr	r3, [r7, #4]
 8007630:	681b      	ldr	r3, [r3, #0]
 8007632:	691a      	ldr	r2, [r3, #16]
 8007634:	687b      	ldr	r3, [r7, #4]
 8007636:	681b      	ldr	r3, [r3, #0]
 8007638:	f422 4290 	bic.w	r2, r2, #18432	@ 0x4800
 800763c:	611a      	str	r2, [r3, #16]
  CLEAR_BIT(huart->Instance->CR3, (USART_CR3_SCEN | USART_CR3_HDSEL | USART_CR3_IREN));
 800763e:	687b      	ldr	r3, [r7, #4]
 8007640:	681b      	ldr	r3, [r3, #0]
 8007642:	695a      	ldr	r2, [r3, #20]
 8007644:	687b      	ldr	r3, [r7, #4]
 8007646:	681b      	ldr	r3, [r3, #0]
 8007648:	f022 022a 	bic.w	r2, r2, #42	@ 0x2a
 800764c:	615a      	str	r2, [r3, #20]

  /* Enable the peripheral */
  __HAL_UART_ENABLE(huart);
 800764e:	687b      	ldr	r3, [r7, #4]
 8007650:	681b      	ldr	r3, [r3, #0]
 8007652:	68da      	ldr	r2, [r3, #12]
 8007654:	687b      	ldr	r3, [r7, #4]
 8007656:	681b      	ldr	r3, [r3, #0]
 8007658:	f442 5200 	orr.w	r2, r2, #8192	@ 0x2000
 800765c:	60da      	str	r2, [r3, #12]

  /* Initialize the UART state */
  huart->ErrorCode = HAL_UART_ERROR_NONE;
 800765e:	687b      	ldr	r3, [r7, #4]
 8007660:	2200      	movs	r2, #0
 8007662:	645a      	str	r2, [r3, #68]	@ 0x44
  huart->gState = HAL_UART_STATE_READY;
 8007664:	687b      	ldr	r3, [r7, #4]
 8007666:	2220      	movs	r2, #32
 8007668:	f883 2041 	strb.w	r2, [r3, #65]	@ 0x41
  huart->RxState = HAL_UART_STATE_READY;
 800766c:	687b      	ldr	r3, [r7, #4]
 800766e:	2220      	movs	r2, #32
 8007670:	f883 2042 	strb.w	r2, [r3, #66]	@ 0x42
  huart->RxEventType = HAL_UART_RXEVENT_TC;
 8007674:	687b      	ldr	r3, [r7, #4]
 8007676:	2200      	movs	r2, #0
 8007678:	635a      	str	r2, [r3, #52]	@ 0x34

  return HAL_OK;
 800767a:	2300      	movs	r3, #0
}
 800767c:	4618      	mov	r0, r3
 800767e:	3708      	adds	r7, #8
 8007680:	46bd      	mov	sp, r7
 8007682:	bd80      	pop	{r7, pc}

08007684 <HAL_UART_Transmit>:
  * @param  Size  Amount of data elements (u8 or u16) to be sent
  * @param  Timeout Timeout duration
  * @retval HAL status
  */
HAL_StatusTypeDef HAL_UART_Transmit(UART_HandleTypeDef *huart, const uint8_t *pData, uint16_t Size, uint32_t Timeout)
{
 8007684:	b580      	push	{r7, lr}
 8007686:	b08a      	sub	sp, #40	@ 0x28
 8007688:	af02      	add	r7, sp, #8
 800768a:	60f8      	str	r0, [r7, #12]
 800768c:	60b9      	str	r1, [r7, #8]
 800768e:	603b      	str	r3, [r7, #0]
 8007690:	4613      	mov	r3, r2
 8007692:	80fb      	strh	r3, [r7, #6]
  const uint8_t  *pdata8bits;
  const uint16_t *pdata16bits;
  uint32_t tickstart = 0U;
 8007694:	2300      	movs	r3, #0
 8007696:	617b      	str	r3, [r7, #20]

  /* Check that a Tx process is not already ongoing */
  if (huart->gState == HAL_UART_STATE_READY)
 8007698:	68fb      	ldr	r3, [r7, #12]
 800769a:	f893 3041 	ldrb.w	r3, [r3, #65]	@ 0x41
 800769e:	b2db      	uxtb	r3, r3
 80076a0:	2b20      	cmp	r3, #32
 80076a2:	d175      	bne.n	8007790 <HAL_UART_Transmit+0x10c>
  {
    if ((pData == NULL) || (Size == 0U))
 80076a4:	68bb      	ldr	r3, [r7, #8]
 80076a6:	2b00      	cmp	r3, #0
 80076a8:	d002      	beq.n	80076b0 <HAL_UART_Transmit+0x2c>
 80076aa:	88fb      	ldrh	r3, [r7, #6]
 80076ac:	2b00      	cmp	r3, #0
 80076ae:	d101      	bne.n	80076b4 <HAL_UART_Transmit+0x30>
    {
      return  HAL_ERROR;
 80076b0:	2301      	movs	r3, #1
 80076b2:	e06e      	b.n	8007792 <HAL_UART_Transmit+0x10e>
    }

    huart->ErrorCode = HAL_UART_ERROR_NONE;
 80076b4:	68fb      	ldr	r3, [r7, #12]
 80076b6:	2200      	movs	r2, #0
 80076b8:	645a      	str	r2, [r3, #68]	@ 0x44
    huart->gState = HAL_UART_STATE_BUSY_TX;
 80076ba:	68fb      	ldr	r3, [r7, #12]
 80076bc:	2221      	movs	r2, #33	@ 0x21
 80076be:	f883 2041 	strb.w	r2, [r3, #65]	@ 0x41

    /* Init tickstart for timeout management */
    tickstart = HAL_GetTick();
 80076c2:	f7fe faa3 	bl	8005c0c <HAL_GetTick>
 80076c6:	6178      	str	r0, [r7, #20]

    huart->TxXferSize = Size;
 80076c8:	68fb      	ldr	r3, [r7, #12]
 80076ca:	88fa      	ldrh	r2, [r7, #6]
 80076cc:	849a      	strh	r2, [r3, #36]	@ 0x24
    huart->TxXferCount = Size;
 80076ce:	68fb      	ldr	r3, [r7, #12]
 80076d0:	88fa      	ldrh	r2, [r7, #6]
 80076d2:	84da      	strh	r2, [r3, #38]	@ 0x26

    /* In case of 9bits/No Parity transfer, pData needs to be handled as a uint16_t pointer */
    if ((huart->Init.WordLength == UART_WORDLENGTH_9B) && (huart->Init.Parity == UART_PARITY_NONE))
 80076d4:	68fb      	ldr	r3, [r7, #12]
 80076d6:	689b      	ldr	r3, [r3, #8]
 80076d8:	f5b3 5f80 	cmp.w	r3, #4096	@ 0x1000
 80076dc:	d108      	bne.n	80076f0 <HAL_UART_Transmit+0x6c>
 80076de:	68fb      	ldr	r3, [r7, #12]
 80076e0:	691b      	ldr	r3, [r3, #16]
 80076e2:	2b00      	cmp	r3, #0
 80076e4:	d104      	bne.n	80076f0 <HAL_UART_Transmit+0x6c>
    {
      pdata8bits  = NULL;
 80076e6:	2300      	movs	r3, #0
 80076e8:	61fb      	str	r3, [r7, #28]
      pdata16bits = (const uint16_t *) pData;
 80076ea:	68bb      	ldr	r3, [r7, #8]
 80076ec:	61bb      	str	r3, [r7, #24]
 80076ee:	e003      	b.n	80076f8 <HAL_UART_Transmit+0x74>
    }
    else
    {
      pdata8bits  = pData;
 80076f0:	68bb      	ldr	r3, [r7, #8]
 80076f2:	61fb      	str	r3, [r7, #28]
      pdata16bits = NULL;
 80076f4:	2300      	movs	r3, #0
 80076f6:	61bb      	str	r3, [r7, #24]
    }

    while (huart->TxXferCount > 0U)
 80076f8:	e02e      	b.n	8007758 <HAL_UART_Transmit+0xd4>
    {
      if (UART_WaitOnFlagUntilTimeout(huart, UART_FLAG_TXE, RESET, tickstart, Timeout) != HAL_OK)
 80076fa:	683b      	ldr	r3, [r7, #0]
 80076fc:	9300      	str	r3, [sp, #0]
 80076fe:	697b      	ldr	r3, [r7, #20]
 8007700:	2200      	movs	r2, #0
 8007702:	2180      	movs	r1, #128	@ 0x80
 8007704:	68f8      	ldr	r0, [r7, #12]
 8007706:	f000 fb1f 	bl	8007d48 <UART_WaitOnFlagUntilTimeout>
 800770a:	4603      	mov	r3, r0
 800770c:	2b00      	cmp	r3, #0
 800770e:	d005      	beq.n	800771c <HAL_UART_Transmit+0x98>
      {
        huart->gState = HAL_UART_STATE_READY;
 8007710:	68fb      	ldr	r3, [r7, #12]
 8007712:	2220      	movs	r2, #32
 8007714:	f883 2041 	strb.w	r2, [r3, #65]	@ 0x41

        return HAL_TIMEOUT;
 8007718:	2303      	movs	r3, #3
 800771a:	e03a      	b.n	8007792 <HAL_UART_Transmit+0x10e>
      }
      if (pdata8bits == NULL)
 800771c:	69fb      	ldr	r3, [r7, #28]
 800771e:	2b00      	cmp	r3, #0
 8007720:	d10b      	bne.n	800773a <HAL_UART_Transmit+0xb6>
      {
        huart->Instance->DR = (uint16_t)(*pdata16bits & 0x01FFU);
 8007722:	69bb      	ldr	r3, [r7, #24]
 8007724:	881b      	ldrh	r3, [r3, #0]
 8007726:	461a      	mov	r2, r3
 8007728:	68fb      	ldr	r3, [r7, #12]
 800772a:	681b      	ldr	r3, [r3, #0]
 800772c:	f3c2 0208 	ubfx	r2, r2, #0, #9
 8007730:	605a      	str	r2, [r3, #4]
        pdata16bits++;
 8007732:	69bb      	ldr	r3, [r7, #24]
 8007734:	3302      	adds	r3, #2
 8007736:	61bb      	str	r3, [r7, #24]
 8007738:	e007      	b.n	800774a <HAL_UART_Transmit+0xc6>
      }
      else
      {
        huart->Instance->DR = (uint8_t)(*pdata8bits & 0xFFU);
 800773a:	69fb      	ldr	r3, [r7, #28]
 800773c:	781a      	ldrb	r2, [r3, #0]
 800773e:	68fb      	ldr	r3, [r7, #12]
 8007740:	681b      	ldr	r3, [r3, #0]
 8007742:	605a      	str	r2, [r3, #4]
        pdata8bits++;
 8007744:	69fb      	ldr	r3, [r7, #28]
 8007746:	3301      	adds	r3, #1
 8007748:	61fb      	str	r3, [r7, #28]
      }
      huart->TxXferCount--;
 800774a:	68fb      	ldr	r3, [r7, #12]
 800774c:	8cdb      	ldrh	r3, [r3, #38]	@ 0x26
 800774e:	b29b      	uxth	r3, r3
 8007750:	3b01      	subs	r3, #1
 8007752:	b29a      	uxth	r2, r3
 8007754:	68fb      	ldr	r3, [r7, #12]
 8007756:	84da      	strh	r2, [r3, #38]	@ 0x26
    while (huart->TxXferCount > 0U)
 8007758:	68fb      	ldr	r3, [r7, #12]
 800775a:	8cdb      	ldrh	r3, [r3, #38]	@ 0x26
 800775c:	b29b      	uxth	r3, r3
 800775e:	2b00      	cmp	r3, #0
 8007760:	d1cb      	bne.n	80076fa <HAL_UART_Transmit+0x76>
    }

    if (UART_WaitOnFlagUntilTimeout(huart, UART_FLAG_TC, RESET, tickstart, Timeout) != HAL_OK)
 8007762:	683b      	ldr	r3, [r7, #0]
 8007764:	9300      	str	r3, [sp, #0]
 8007766:	697b      	ldr	r3, [r7, #20]
 8007768:	2200      	movs	r2, #0
 800776a:	2140      	movs	r1, #64	@ 0x40
 800776c:	68f8      	ldr	r0, [r7, #12]
 800776e:	f000 faeb 	bl	8007d48 <UART_WaitOnFlagUntilTimeout>
 8007772:	4603      	mov	r3, r0
 8007774:	2b00      	cmp	r3, #0
 8007776:	d005      	beq.n	8007784 <HAL_UART_Transmit+0x100>
    {
      huart->gState = HAL_UART_STATE_READY;
 8007778:	68fb      	ldr	r3, [r7, #12]
 800777a:	2220      	movs	r2, #32
 800777c:	f883 2041 	strb.w	r2, [r3, #65]	@ 0x41

      return HAL_TIMEOUT;
 8007780:	2303      	movs	r3, #3
 8007782:	e006      	b.n	8007792 <HAL_UART_Transmit+0x10e>
    }

    /* At end of Tx process, restore huart->gState to Ready */
    huart->gState = HAL_UART_STATE_READY;
 8007784:	68fb      	ldr	r3, [r7, #12]
 8007786:	2220      	movs	r2, #32
 8007788:	f883 2041 	strb.w	r2, [r3, #65]	@ 0x41

    return HAL_OK;
 800778c:	2300      	movs	r3, #0
 800778e:	e000      	b.n	8007792 <HAL_UART_Transmit+0x10e>
  }
  else
  {
    return HAL_BUSY;
 8007790:	2302      	movs	r3, #2
  }
}
 8007792:	4618      	mov	r0, r3
 8007794:	3720      	adds	r7, #32
 8007796:	46bd      	mov	sp, r7
 8007798:	bd80      	pop	{r7, pc}

0800779a <HAL_UART_Receive_IT>:
  * @param  pData Pointer to data buffer (u8 or u16 data elements).
  * @param  Size  Amount of data elements (u8 or u16) to be received.
  * @retval HAL status
  */
HAL_StatusTypeDef HAL_UART_Receive_IT(UART_HandleTypeDef *huart, uint8_t *pData, uint16_t Size)
{
 800779a:	b580      	push	{r7, lr}
 800779c:	b084      	sub	sp, #16
 800779e:	af00      	add	r7, sp, #0
 80077a0:	60f8      	str	r0, [r7, #12]
 80077a2:	60b9      	str	r1, [r7, #8]
 80077a4:	4613      	mov	r3, r2
 80077a6:	80fb      	strh	r3, [r7, #6]
  /* Check that a Rx process is not already ongoing */
  if (huart->RxState == HAL_UART_STATE_READY)
 80077a8:	68fb      	ldr	r3, [r7, #12]
 80077aa:	f893 3042 	ldrb.w	r3, [r3, #66]	@ 0x42
 80077ae:	b2db      	uxtb	r3, r3
 80077b0:	2b20      	cmp	r3, #32
 80077b2:	d112      	bne.n	80077da <HAL_UART_Receive_IT+0x40>
  {
    if ((pData == NULL) || (Size == 0U))
 80077b4:	68bb      	ldr	r3, [r7, #8]
 80077b6:	2b00      	cmp	r3, #0
 80077b8:	d002      	beq.n	80077c0 <HAL_UART_Receive_IT+0x26>
 80077ba:	88fb      	ldrh	r3, [r7, #6]
 80077bc:	2b00      	cmp	r3, #0
 80077be:	d101      	bne.n	80077c4 <HAL_UART_Receive_IT+0x2a>
    {
      return HAL_ERROR;
 80077c0:	2301      	movs	r3, #1
 80077c2:	e00b      	b.n	80077dc <HAL_UART_Receive_IT+0x42>
    }

    /* Set Reception type to Standard reception */
    huart->ReceptionType = HAL_UART_RECEPTION_STANDARD;
 80077c4:	68fb      	ldr	r3, [r7, #12]
 80077c6:	2200      	movs	r2, #0
 80077c8:	631a      	str	r2, [r3, #48]	@ 0x30

    return (UART_Start_Receive_IT(huart, pData, Size));
 80077ca:	88fb      	ldrh	r3, [r7, #6]
 80077cc:	461a      	mov	r2, r3
 80077ce:	68b9      	ldr	r1, [r7, #8]
 80077d0:	68f8      	ldr	r0, [r7, #12]
 80077d2:	f000 fb12 	bl	8007dfa <UART_Start_Receive_IT>
 80077d6:	4603      	mov	r3, r0
 80077d8:	e000      	b.n	80077dc <HAL_UART_Receive_IT+0x42>
  }
  else
  {
    return HAL_BUSY;
 80077da:	2302      	movs	r3, #2
  }
}
 80077dc:	4618      	mov	r0, r3
 80077de:	3710      	adds	r7, #16
 80077e0:	46bd      	mov	sp, r7
 80077e2:	bd80      	pop	{r7, pc}

080077e4 <HAL_UART_IRQHandler>:
  * @param  huart  Pointer to a UART_HandleTypeDef structure that contains
  *                the configuration information for the specified UART module.
  * @retval None
  */
void HAL_UART_IRQHandler(UART_HandleTypeDef *huart)
{
 80077e4:	b580      	push	{r7, lr}
 80077e6:	b0ba      	sub	sp, #232	@ 0xe8
 80077e8:	af00      	add	r7, sp, #0
 80077ea:	6078      	str	r0, [r7, #4]
  uint32_t isrflags   = READ_REG(huart->Instance->SR);
 80077ec:	687b      	ldr	r3, [r7, #4]
 80077ee:	681b      	ldr	r3, [r3, #0]
 80077f0:	681b      	ldr	r3, [r3, #0]
 80077f2:	f8c7 30e4 	str.w	r3, [r7, #228]	@ 0xe4
  uint32_t cr1its     = READ_REG(huart->Instance->CR1);
 80077f6:	687b      	ldr	r3, [r7, #4]
 80077f8:	681b      	ldr	r3, [r3, #0]
 80077fa:	68db      	ldr	r3, [r3, #12]
 80077fc:	f8c7 30e0 	str.w	r3, [r7, #224]	@ 0xe0
  uint32_t cr3its     = READ_REG(huart->Instance->CR3);
 8007800:	687b      	ldr	r3, [r7, #4]
 8007802:	681b      	ldr	r3, [r3, #0]
 8007804:	695b      	ldr	r3, [r3, #20]
 8007806:	f8c7 30dc 	str.w	r3, [r7, #220]	@ 0xdc
  uint32_t errorflags = 0x00U;
 800780a:	2300      	movs	r3, #0
 800780c:	f8c7 30d8 	str.w	r3, [r7, #216]	@ 0xd8
  uint32_t dmarequest = 0x00U;
 8007810:	2300      	movs	r3, #0
 8007812:	f8c7 30d4 	str.w	r3, [r7, #212]	@ 0xd4

  /* If no error occurs */
  errorflags = (isrflags & (uint32_t)(USART_SR_PE | USART_SR_FE | USART_SR_ORE | USART_SR_NE));
 8007816:	f8d7 30e4 	ldr.w	r3, [r7, #228]	@ 0xe4
 800781a:	f003 030f 	and.w	r3, r3, #15
 800781e:	f8c7 30d8 	str.w	r3, [r7, #216]	@ 0xd8
  if (errorflags == RESET)
 8007822:	f8d7 30d8 	ldr.w	r3, [r7, #216]	@ 0xd8
 8007826:	2b00      	cmp	r3, #0
 8007828:	d10f      	bne.n	800784a <HAL_UART_IRQHandler+0x66>
  {
    /* UART in mode Receiver -------------------------------------------------*/
    if (((isrflags & USART_SR_RXNE) != RESET) && ((cr1its & USART_CR1_RXNEIE) != RESET))
 800782a:	f8d7 30e4 	ldr.w	r3, [r7, #228]	@ 0xe4
 800782e:	f003 0320 	and.w	r3, r3, #32
 8007832:	2b00      	cmp	r3, #0
 8007834:	d009      	beq.n	800784a <HAL_UART_IRQHandler+0x66>
 8007836:	f8d7 30e0 	ldr.w	r3, [r7, #224]	@ 0xe0
 800783a:	f003 0320 	and.w	r3, r3, #32
 800783e:	2b00      	cmp	r3, #0
 8007840:	d003      	beq.n	800784a <HAL_UART_IRQHandler+0x66>
    {
      UART_Receive_IT(huart);
 8007842:	6878      	ldr	r0, [r7, #4]
 8007844:	f000 fbf2 	bl	800802c <UART_Receive_IT>
      return;
 8007848:	e25b      	b.n	8007d02 <HAL_UART_IRQHandler+0x51e>
    }
  }

  /* If some errors occur */
  if ((errorflags != RESET) && (((cr3its & USART_CR3_EIE) != RESET)
 800784a:	f8d7 30d8 	ldr.w	r3, [r7, #216]	@ 0xd8
 800784e:	2b00      	cmp	r3, #0
 8007850:	f000 80de 	beq.w	8007a10 <HAL_UART_IRQHandler+0x22c>
 8007854:	f8d7 30dc 	ldr.w	r3, [r7, #220]	@ 0xdc
 8007858:	f003 0301 	and.w	r3, r3, #1
 800785c:	2b00      	cmp	r3, #0
 800785e:	d106      	bne.n	800786e <HAL_UART_IRQHandler+0x8a>
                                || ((cr1its & (USART_CR1_RXNEIE | USART_CR1_PEIE)) != RESET)))
 8007860:	f8d7 30e0 	ldr.w	r3, [r7, #224]	@ 0xe0
 8007864:	f403 7390 	and.w	r3, r3, #288	@ 0x120
 8007868:	2b00      	cmp	r3, #0
 800786a:	f000 80d1 	beq.w	8007a10 <HAL_UART_IRQHandler+0x22c>
  {
    /* UART parity error interrupt occurred ----------------------------------*/
    if (((isrflags & USART_SR_PE) != RESET) && ((cr1its & USART_CR1_PEIE) != RESET))
 800786e:	f8d7 30e4 	ldr.w	r3, [r7, #228]	@ 0xe4
 8007872:	f003 0301 	and.w	r3, r3, #1
 8007876:	2b00      	cmp	r3, #0
 8007878:	d00b      	beq.n	8007892 <HAL_UART_IRQHandler+0xae>
 800787a:	f8d7 30e0 	ldr.w	r3, [r7, #224]	@ 0xe0
 800787e:	f403 7380 	and.w	r3, r3, #256	@ 0x100
 8007882:	2b00      	cmp	r3, #0
 8007884:	d005      	beq.n	8007892 <HAL_UART_IRQHandler+0xae>
    {
      huart->ErrorCode |= HAL_UART_ERROR_PE;
 8007886:	687b      	ldr	r3, [r7, #4]
 8007888:	6c5b      	ldr	r3, [r3, #68]	@ 0x44
 800788a:	f043 0201 	orr.w	r2, r3, #1
 800788e:	687b      	ldr	r3, [r7, #4]
 8007890:	645a      	str	r2, [r3, #68]	@ 0x44
    }

    /* UART noise error interrupt occurred -----------------------------------*/
    if (((isrflags & USART_SR_NE) != RESET) && ((cr3its & USART_CR3_EIE) != RESET))
 8007892:	f8d7 30e4 	ldr.w	r3, [r7, #228]	@ 0xe4
 8007896:	f003 0304 	and.w	r3, r3, #4
 800789a:	2b00      	cmp	r3, #0
 800789c:	d00b      	beq.n	80078b6 <HAL_UART_IRQHandler+0xd2>
 800789e:	f8d7 30dc 	ldr.w	r3, [r7, #220]	@ 0xdc
 80078a2:	f003 0301 	and.w	r3, r3, #1
 80078a6:	2b00      	cmp	r3, #0
 80078a8:	d005      	beq.n	80078b6 <HAL_UART_IRQHandler+0xd2>
    {
      huart->ErrorCode |= HAL_UART_ERROR_NE;
 80078aa:	687b      	ldr	r3, [r7, #4]
 80078ac:	6c5b      	ldr	r3, [r3, #68]	@ 0x44
 80078ae:	f043 0202 	orr.w	r2, r3, #2
 80078b2:	687b      	ldr	r3, [r7, #4]
 80078b4:	645a      	str	r2, [r3, #68]	@ 0x44
    }

    /* UART frame error interrupt occurred -----------------------------------*/
    if (((isrflags & USART_SR_FE) != RESET) && ((cr3its & USART_CR3_EIE) != RESET))
 80078b6:	f8d7 30e4 	ldr.w	r3, [r7, #228]	@ 0xe4
 80078ba:	f003 0302 	and.w	r3, r3, #2
 80078be:	2b00      	cmp	r3, #0
 80078c0:	d00b      	beq.n	80078da <HAL_UART_IRQHandler+0xf6>
 80078c2:	f8d7 30dc 	ldr.w	r3, [r7, #220]	@ 0xdc
 80078c6:	f003 0301 	and.w	r3, r3, #1
 80078ca:	2b00      	cmp	r3, #0
 80078cc:	d005      	beq.n	80078da <HAL_UART_IRQHandler+0xf6>
    {
      huart->ErrorCode |= HAL_UART_ERROR_FE;
 80078ce:	687b      	ldr	r3, [r7, #4]
 80078d0:	6c5b      	ldr	r3, [r3, #68]	@ 0x44
 80078d2:	f043 0204 	orr.w	r2, r3, #4
 80078d6:	687b      	ldr	r3, [r7, #4]
 80078d8:	645a      	str	r2, [r3, #68]	@ 0x44
    }

    /* UART Over-Run interrupt occurred --------------------------------------*/
    if (((isrflags & USART_SR_ORE) != RESET) && (((cr1its & USART_CR1_RXNEIE) != RESET)
 80078da:	f8d7 30e4 	ldr.w	r3, [r7, #228]	@ 0xe4
 80078de:	f003 0308 	and.w	r3, r3, #8
 80078e2:	2b00      	cmp	r3, #0
 80078e4:	d011      	beq.n	800790a <HAL_UART_IRQHandler+0x126>
 80078e6:	f8d7 30e0 	ldr.w	r3, [r7, #224]	@ 0xe0
 80078ea:	f003 0320 	and.w	r3, r3, #32
 80078ee:	2b00      	cmp	r3, #0
 80078f0:	d105      	bne.n	80078fe <HAL_UART_IRQHandler+0x11a>
                                                 || ((cr3its & USART_CR3_EIE) != RESET)))
 80078f2:	f8d7 30dc 	ldr.w	r3, [r7, #220]	@ 0xdc
 80078f6:	f003 0301 	and.w	r3, r3, #1
 80078fa:	2b00      	cmp	r3, #0
 80078fc:	d005      	beq.n	800790a <HAL_UART_IRQHandler+0x126>
    {
      huart->ErrorCode |= HAL_UART_ERROR_ORE;
 80078fe:	687b      	ldr	r3, [r7, #4]
 8007900:	6c5b      	ldr	r3, [r3, #68]	@ 0x44
 8007902:	f043 0208 	orr.w	r2, r3, #8
 8007906:	687b      	ldr	r3, [r7, #4]
 8007908:	645a      	str	r2, [r3, #68]	@ 0x44
    }

    /* Call UART Error Call back function if need be --------------------------*/
    if (huart->ErrorCode != HAL_UART_ERROR_NONE)
 800790a:	687b      	ldr	r3, [r7, #4]
 800790c:	6c5b      	ldr	r3, [r3, #68]	@ 0x44
 800790e:	2b00      	cmp	r3, #0
 8007910:	f000 81f2 	beq.w	8007cf8 <HAL_UART_IRQHandler+0x514>
    {
      /* UART in mode Receiver -----------------------------------------------*/
      if (((isrflags & USART_SR_RXNE) != RESET) && ((cr1its & USART_CR1_RXNEIE) != RESET))
 8007914:	f8d7 30e4 	ldr.w	r3, [r7, #228]	@ 0xe4
 8007918:	f003 0320 	and.w	r3, r3, #32
 800791c:	2b00      	cmp	r3, #0
 800791e:	d008      	beq.n	8007932 <HAL_UART_IRQHandler+0x14e>
 8007920:	f8d7 30e0 	ldr.w	r3, [r7, #224]	@ 0xe0
 8007924:	f003 0320 	and.w	r3, r3, #32
 8007928:	2b00      	cmp	r3, #0
 800792a:	d002      	beq.n	8007932 <HAL_UART_IRQHandler+0x14e>
      {
        UART_Receive_IT(huart);
 800792c:	6878      	ldr	r0, [r7, #4]
 800792e:	f000 fb7d 	bl	800802c <UART_Receive_IT>
      }

      /* If Overrun error occurs, or if any error occurs in DMA mode reception,
         consider error as blocking */
      dmarequest = HAL_IS_BIT_SET(huart->Instance->CR3, USART_CR3_DMAR);
 8007932:	687b      	ldr	r3, [r7, #4]
 8007934:	681b      	ldr	r3, [r3, #0]
 8007936:	695b      	ldr	r3, [r3, #20]
 8007938:	f003 0340 	and.w	r3, r3, #64	@ 0x40
 800793c:	2b40      	cmp	r3, #64	@ 0x40
 800793e:	bf0c      	ite	eq
 8007940:	2301      	moveq	r3, #1
 8007942:	2300      	movne	r3, #0
 8007944:	b2db      	uxtb	r3, r3
 8007946:	f8c7 30d4 	str.w	r3, [r7, #212]	@ 0xd4
      if (((huart->ErrorCode & HAL_UART_ERROR_ORE) != RESET) || dmarequest)
 800794a:	687b      	ldr	r3, [r7, #4]
 800794c:	6c5b      	ldr	r3, [r3, #68]	@ 0x44
 800794e:	f003 0308 	and.w	r3, r3, #8
 8007952:	2b00      	cmp	r3, #0
 8007954:	d103      	bne.n	800795e <HAL_UART_IRQHandler+0x17a>
 8007956:	f8d7 30d4 	ldr.w	r3, [r7, #212]	@ 0xd4
 800795a:	2b00      	cmp	r3, #0
 800795c:	d04f      	beq.n	80079fe <HAL_UART_IRQHandler+0x21a>
      {
        /* Blocking error : transfer is aborted
           Set the UART state ready to be able to start again the process,
           Disable Rx Interrupts, and disable Rx DMA request, if ongoing */
        UART_EndRxTransfer(huart);
 800795e:	6878      	ldr	r0, [r7, #4]
 8007960:	f000 fa85 	bl	8007e6e <UART_EndRxTransfer>

        /* Disable the UART DMA Rx request if enabled */
        if (HAL_IS_BIT_SET(huart->Instance->CR3, USART_CR3_DMAR))
 8007964:	687b      	ldr	r3, [r7, #4]
 8007966:	681b      	ldr	r3, [r3, #0]
 8007968:	695b      	ldr	r3, [r3, #20]
 800796a:	f003 0340 	and.w	r3, r3, #64	@ 0x40
 800796e:	2b40      	cmp	r3, #64	@ 0x40
 8007970:	d141      	bne.n	80079f6 <HAL_UART_IRQHandler+0x212>
        {
          ATOMIC_CLEAR_BIT(huart->Instance->CR3, USART_CR3_DMAR);
 8007972:	687b      	ldr	r3, [r7, #4]
 8007974:	681b      	ldr	r3, [r3, #0]
 8007976:	3314      	adds	r3, #20
 8007978:	f8c7 309c 	str.w	r3, [r7, #156]	@ 0x9c
   __ASM volatile ("ldrex %0, %1" : "=r" (result) : "Q" (*addr) );
 800797c:	f8d7 309c 	ldr.w	r3, [r7, #156]	@ 0x9c
 8007980:	e853 3f00 	ldrex	r3, [r3]
 8007984:	f8c7 3098 	str.w	r3, [r7, #152]	@ 0x98
   return(result);
 8007988:	f8d7 3098 	ldr.w	r3, [r7, #152]	@ 0x98
 800798c:	f023 0340 	bic.w	r3, r3, #64	@ 0x40
 8007990:	f8c7 30d0 	str.w	r3, [r7, #208]	@ 0xd0
 8007994:	687b      	ldr	r3, [r7, #4]
 8007996:	681b      	ldr	r3, [r3, #0]
 8007998:	3314      	adds	r3, #20
 800799a:	f8d7 20d0 	ldr.w	r2, [r7, #208]	@ 0xd0
 800799e:	f8c7 20a8 	str.w	r2, [r7, #168]	@ 0xa8
 80079a2:	f8c7 30a4 	str.w	r3, [r7, #164]	@ 0xa4
   __ASM volatile ("strex %0, %2, %1" : "=&r" (result), "=Q" (*addr) : "r" (value) );
 80079a6:	f8d7 10a4 	ldr.w	r1, [r7, #164]	@ 0xa4
 80079aa:	f8d7 20a8 	ldr.w	r2, [r7, #168]	@ 0xa8
 80079ae:	e841 2300 	strex	r3, r2, [r1]
 80079b2:	f8c7 30a0 	str.w	r3, [r7, #160]	@ 0xa0
   return(result);
 80079b6:	f8d7 30a0 	ldr.w	r3, [r7, #160]	@ 0xa0
 80079ba:	2b00      	cmp	r3, #0
 80079bc:	d1d9      	bne.n	8007972 <HAL_UART_IRQHandler+0x18e>

          /* Abort the UART DMA Rx stream */
          if (huart->hdmarx != NULL)
 80079be:	687b      	ldr	r3, [r7, #4]
 80079c0:	6bdb      	ldr	r3, [r3, #60]	@ 0x3c
 80079c2:	2b00      	cmp	r3, #0
 80079c4:	d013      	beq.n	80079ee <HAL_UART_IRQHandler+0x20a>
          {
            /* Set the UART DMA Abort callback :
               will lead to call HAL_UART_ErrorCallback() at end of DMA abort procedure */
            huart->hdmarx->XferAbortCallback = UART_DMAAbortOnError;
 80079c6:	687b      	ldr	r3, [r7, #4]
 80079c8:	6bdb      	ldr	r3, [r3, #60]	@ 0x3c
 80079ca:	4a7e      	ldr	r2, [pc, #504]	@ (8007bc4 <HAL_UART_IRQHandler+0x3e0>)
 80079cc:	651a      	str	r2, [r3, #80]	@ 0x50
            if (HAL_DMA_Abort_IT(huart->hdmarx) != HAL_OK)
 80079ce:	687b      	ldr	r3, [r7, #4]
 80079d0:	6bdb      	ldr	r3, [r3, #60]	@ 0x3c
 80079d2:	4618      	mov	r0, r3
 80079d4:	f7fe facb 	bl	8005f6e <HAL_DMA_Abort_IT>
 80079d8:	4603      	mov	r3, r0
 80079da:	2b00      	cmp	r3, #0
 80079dc:	d016      	beq.n	8007a0c <HAL_UART_IRQHandler+0x228>
            {
              /* Call Directly XferAbortCallback function in case of error */
              huart->hdmarx->XferAbortCallback(huart->hdmarx);
 80079de:	687b      	ldr	r3, [r7, #4]
 80079e0:	6bdb      	ldr	r3, [r3, #60]	@ 0x3c
 80079e2:	6d1b      	ldr	r3, [r3, #80]	@ 0x50
 80079e4:	687a      	ldr	r2, [r7, #4]
 80079e6:	6bd2      	ldr	r2, [r2, #60]	@ 0x3c
 80079e8:	4610      	mov	r0, r2
 80079ea:	4798      	blx	r3
        if (HAL_IS_BIT_SET(huart->Instance->CR3, USART_CR3_DMAR))
 80079ec:	e00e      	b.n	8007a0c <HAL_UART_IRQHandler+0x228>
#if (USE_HAL_UART_REGISTER_CALLBACKS == 1)
            /*Call registered error callback*/
            huart->ErrorCallback(huart);
#else
            /*Call legacy weak error callback*/
            HAL_UART_ErrorCallback(huart);
 80079ee:	6878      	ldr	r0, [r7, #4]
 80079f0:	f000 f994 	bl	8007d1c <HAL_UART_ErrorCallback>
        if (HAL_IS_BIT_SET(huart->Instance->CR3, USART_CR3_DMAR))
 80079f4:	e00a      	b.n	8007a0c <HAL_UART_IRQHandler+0x228>
#if (USE_HAL_UART_REGISTER_CALLBACKS == 1)
          /*Call registered error callback*/
          huart->ErrorCallback(huart);
#else
          /*Call legacy weak error callback*/
          HAL_UART_ErrorCallback(huart);
 80079f6:	6878      	ldr	r0, [r7, #4]
 80079f8:	f000 f990 	bl	8007d1c <HAL_UART_ErrorCallback>
        if (HAL_IS_BIT_SET(huart->Instance->CR3, USART_CR3_DMAR))
 80079fc:	e006      	b.n	8007a0c <HAL_UART_IRQHandler+0x228>
#if (USE_HAL_UART_REGISTER_CALLBACKS == 1)
        /*Call registered error callback*/
        huart->ErrorCallback(huart);
#else
        /*Call legacy weak error callback*/
        HAL_UART_ErrorCallback(huart);
 80079fe:	6878      	ldr	r0, [r7, #4]
 8007a00:	f000 f98c 	bl	8007d1c <HAL_UART_ErrorCallback>
#endif /* USE_HAL_UART_REGISTER_CALLBACKS */

        huart->ErrorCode = HAL_UART_ERROR_NONE;
 8007a04:	687b      	ldr	r3, [r7, #4]
 8007a06:	2200      	movs	r2, #0
 8007a08:	645a      	str	r2, [r3, #68]	@ 0x44
      }
    }
    return;
 8007a0a:	e175      	b.n	8007cf8 <HAL_UART_IRQHandler+0x514>
        if (HAL_IS_BIT_SET(huart->Instance->CR3, USART_CR3_DMAR))
 8007a0c:	bf00      	nop
    return;
 8007a0e:	e173      	b.n	8007cf8 <HAL_UART_IRQHandler+0x514>
  } /* End if some error occurs */

  /* Check current reception Mode :
     If Reception till IDLE event has been selected : */
  if ((huart->ReceptionType == HAL_UART_RECEPTION_TOIDLE)
 8007a10:	687b      	ldr	r3, [r7, #4]
 8007a12:	6b1b      	ldr	r3, [r3, #48]	@ 0x30
 8007a14:	2b01      	cmp	r3, #1
 8007a16:	f040 814f 	bne.w	8007cb8 <HAL_UART_IRQHandler+0x4d4>
      && ((isrflags & USART_SR_IDLE) != 0U)
 8007a1a:	f8d7 30e4 	ldr.w	r3, [r7, #228]	@ 0xe4
 8007a1e:	f003 0310 	and.w	r3, r3, #16
 8007a22:	2b00      	cmp	r3, #0
 8007a24:	f000 8148 	beq.w	8007cb8 <HAL_UART_IRQHandler+0x4d4>
      && ((cr1its & USART_SR_IDLE) != 0U))
 8007a28:	f8d7 30e0 	ldr.w	r3, [r7, #224]	@ 0xe0
 8007a2c:	f003 0310 	and.w	r3, r3, #16
 8007a30:	2b00      	cmp	r3, #0
 8007a32:	f000 8141 	beq.w	8007cb8 <HAL_UART_IRQHandler+0x4d4>
  {
    __HAL_UART_CLEAR_IDLEFLAG(huart);
 8007a36:	2300      	movs	r3, #0
 8007a38:	60bb      	str	r3, [r7, #8]
 8007a3a:	687b      	ldr	r3, [r7, #4]
 8007a3c:	681b      	ldr	r3, [r3, #0]
 8007a3e:	681b      	ldr	r3, [r3, #0]
 8007a40:	60bb      	str	r3, [r7, #8]
 8007a42:	687b      	ldr	r3, [r7, #4]
 8007a44:	681b      	ldr	r3, [r3, #0]
 8007a46:	685b      	ldr	r3, [r3, #4]
 8007a48:	60bb      	str	r3, [r7, #8]
 8007a4a:	68bb      	ldr	r3, [r7, #8]

    /* Check if DMA mode is enabled in UART */
    if (HAL_IS_BIT_SET(huart->Instance->CR3, USART_CR3_DMAR))
 8007a4c:	687b      	ldr	r3, [r7, #4]
 8007a4e:	681b      	ldr	r3, [r3, #0]
 8007a50:	695b      	ldr	r3, [r3, #20]
 8007a52:	f003 0340 	and.w	r3, r3, #64	@ 0x40
 8007a56:	2b40      	cmp	r3, #64	@ 0x40
 8007a58:	f040 80b6 	bne.w	8007bc8 <HAL_UART_IRQHandler+0x3e4>
    {
      /* DMA mode enabled */
      /* Check received length : If all expected data are received, do nothing,
         (DMA cplt callback will be called).
         Otherwise, if at least one data has already been received, IDLE event is to be notified to user */
      uint16_t nb_remaining_rx_data = (uint16_t) __HAL_DMA_GET_COUNTER(huart->hdmarx);
 8007a5c:	687b      	ldr	r3, [r7, #4]
 8007a5e:	6bdb      	ldr	r3, [r3, #60]	@ 0x3c
 8007a60:	681b      	ldr	r3, [r3, #0]
 8007a62:	685b      	ldr	r3, [r3, #4]
 8007a64:	f8a7 30be 	strh.w	r3, [r7, #190]	@ 0xbe
      if ((nb_remaining_rx_data > 0U)
 8007a68:	f8b7 30be 	ldrh.w	r3, [r7, #190]	@ 0xbe
 8007a6c:	2b00      	cmp	r3, #0
 8007a6e:	f000 8145 	beq.w	8007cfc <HAL_UART_IRQHandler+0x518>
          && (nb_remaining_rx_data < huart->RxXferSize))
 8007a72:	687b      	ldr	r3, [r7, #4]
 8007a74:	8d9b      	ldrh	r3, [r3, #44]	@ 0x2c
 8007a76:	f8b7 20be 	ldrh.w	r2, [r7, #190]	@ 0xbe
 8007a7a:	429a      	cmp	r2, r3
 8007a7c:	f080 813e 	bcs.w	8007cfc <HAL_UART_IRQHandler+0x518>
      {
        /* Reception is not complete */
        huart->RxXferCount = nb_remaining_rx_data;
 8007a80:	687b      	ldr	r3, [r7, #4]
 8007a82:	f8b7 20be 	ldrh.w	r2, [r7, #190]	@ 0xbe
 8007a86:	85da      	strh	r2, [r3, #46]	@ 0x2e

        /* In Normal mode, end DMA xfer and HAL UART Rx process*/
        if (huart->hdmarx->Init.Mode != DMA_CIRCULAR)
 8007a88:	687b      	ldr	r3, [r7, #4]
 8007a8a:	6bdb      	ldr	r3, [r3, #60]	@ 0x3c
 8007a8c:	69db      	ldr	r3, [r3, #28]
 8007a8e:	f5b3 7f80 	cmp.w	r3, #256	@ 0x100
 8007a92:	f000 8088 	beq.w	8007ba6 <HAL_UART_IRQHandler+0x3c2>
        {
          /* Disable PE and ERR (Frame error, noise error, overrun error) interrupts */
          ATOMIC_CLEAR_BIT(huart->Instance->CR1, USART_CR1_PEIE);
 8007a96:	687b      	ldr	r3, [r7, #4]
 8007a98:	681b      	ldr	r3, [r3, #0]
 8007a9a:	330c      	adds	r3, #12
 8007a9c:	f8c7 3088 	str.w	r3, [r7, #136]	@ 0x88
   __ASM volatile ("ldrex %0, %1" : "=r" (result) : "Q" (*addr) );
 8007aa0:	f8d7 3088 	ldr.w	r3, [r7, #136]	@ 0x88
 8007aa4:	e853 3f00 	ldrex	r3, [r3]
 8007aa8:	f8c7 3084 	str.w	r3, [r7, #132]	@ 0x84
   return(result);
 8007aac:	f8d7 3084 	ldr.w	r3, [r7, #132]	@ 0x84
 8007ab0:	f423 7380 	bic.w	r3, r3, #256	@ 0x100
 8007ab4:	f8c7 30b8 	str.w	r3, [r7, #184]	@ 0xb8
 8007ab8:	687b      	ldr	r3, [r7, #4]
 8007aba:	681b      	ldr	r3, [r3, #0]
 8007abc:	330c      	adds	r3, #12
 8007abe:	f8d7 20b8 	ldr.w	r2, [r7, #184]	@ 0xb8
 8007ac2:	f8c7 2094 	str.w	r2, [r7, #148]	@ 0x94
 8007ac6:	f8c7 3090 	str.w	r3, [r7, #144]	@ 0x90
   __ASM volatile ("strex %0, %2, %1" : "=&r" (result), "=Q" (*addr) : "r" (value) );
 8007aca:	f8d7 1090 	ldr.w	r1, [r7, #144]	@ 0x90
 8007ace:	f8d7 2094 	ldr.w	r2, [r7, #148]	@ 0x94
 8007ad2:	e841 2300 	strex	r3, r2, [r1]
 8007ad6:	f8c7 308c 	str.w	r3, [r7, #140]	@ 0x8c
   return(result);
 8007ada:	f8d7 308c 	ldr.w	r3, [r7, #140]	@ 0x8c
 8007ade:	2b00      	cmp	r3, #0
 8007ae0:	d1d9      	bne.n	8007a96 <HAL_UART_IRQHandler+0x2b2>
          ATOMIC_CLEAR_BIT(huart->Instance->CR3, USART_CR3_EIE);
 8007ae2:	687b      	ldr	r3, [r7, #4]
 8007ae4:	681b      	ldr	r3, [r3, #0]
 8007ae6:	3314      	adds	r3, #20
 8007ae8:	677b      	str	r3, [r7, #116]	@ 0x74
   __ASM volatile ("ldrex %0, %1" : "=r" (result) : "Q" (*addr) );
 8007aea:	6f7b      	ldr	r3, [r7, #116]	@ 0x74
 8007aec:	e853 3f00 	ldrex	r3, [r3]
 8007af0:	673b      	str	r3, [r7, #112]	@ 0x70
   return(result);
 8007af2:	6f3b      	ldr	r3, [r7, #112]	@ 0x70
 8007af4:	f023 0301 	bic.w	r3, r3, #1
 8007af8:	f8c7 30b4 	str.w	r3, [r7, #180]	@ 0xb4
 8007afc:	687b      	ldr	r3, [r7, #4]
 8007afe:	681b      	ldr	r3, [r3, #0]
 8007b00:	3314      	adds	r3, #20
 8007b02:	f8d7 20b4 	ldr.w	r2, [r7, #180]	@ 0xb4
 8007b06:	f8c7 2080 	str.w	r2, [r7, #128]	@ 0x80
 8007b0a:	67fb      	str	r3, [r7, #124]	@ 0x7c
   __ASM volatile ("strex %0, %2, %1" : "=&r" (result), "=Q" (*addr) : "r" (value) );
 8007b0c:	6ff9      	ldr	r1, [r7, #124]	@ 0x7c
 8007b0e:	f8d7 2080 	ldr.w	r2, [r7, #128]	@ 0x80
 8007b12:	e841 2300 	strex	r3, r2, [r1]
 8007b16:	67bb      	str	r3, [r7, #120]	@ 0x78
   return(result);
 8007b18:	6fbb      	ldr	r3, [r7, #120]	@ 0x78
 8007b1a:	2b00      	cmp	r3, #0
 8007b1c:	d1e1      	bne.n	8007ae2 <HAL_UART_IRQHandler+0x2fe>

          /* Disable the DMA transfer for the receiver request by resetting the DMAR bit
             in the UART CR3 register */
          ATOMIC_CLEAR_BIT(huart->Instance->CR3, USART_CR3_DMAR);
 8007b1e:	687b      	ldr	r3, [r7, #4]
 8007b20:	681b      	ldr	r3, [r3, #0]
 8007b22:	3314      	adds	r3, #20
 8007b24:	663b      	str	r3, [r7, #96]	@ 0x60
   __ASM volatile ("ldrex %0, %1" : "=r" (result) : "Q" (*addr) );
 8007b26:	6e3b      	ldr	r3, [r7, #96]	@ 0x60
 8007b28:	e853 3f00 	ldrex	r3, [r3]
 8007b2c:	65fb      	str	r3, [r7, #92]	@ 0x5c
   return(result);
 8007b2e:	6dfb      	ldr	r3, [r7, #92]	@ 0x5c
 8007b30:	f023 0340 	bic.w	r3, r3, #64	@ 0x40
 8007b34:	f8c7 30b0 	str.w	r3, [r7, #176]	@ 0xb0
 8007b38:	687b      	ldr	r3, [r7, #4]
 8007b3a:	681b      	ldr	r3, [r3, #0]
 8007b3c:	3314      	adds	r3, #20
 8007b3e:	f8d7 20b0 	ldr.w	r2, [r7, #176]	@ 0xb0
 8007b42:	66fa      	str	r2, [r7, #108]	@ 0x6c
 8007b44:	66bb      	str	r3, [r7, #104]	@ 0x68
   __ASM volatile ("strex %0, %2, %1" : "=&r" (result), "=Q" (*addr) : "r" (value) );
 8007b46:	6eb9      	ldr	r1, [r7, #104]	@ 0x68
 8007b48:	6efa      	ldr	r2, [r7, #108]	@ 0x6c
 8007b4a:	e841 2300 	strex	r3, r2, [r1]
 8007b4e:	667b      	str	r3, [r7, #100]	@ 0x64
   return(result);
 8007b50:	6e7b      	ldr	r3, [r7, #100]	@ 0x64
 8007b52:	2b00      	cmp	r3, #0
 8007b54:	d1e3      	bne.n	8007b1e <HAL_UART_IRQHandler+0x33a>

          /* At end of Rx process, restore huart->RxState to Ready */
          huart->RxState = HAL_UART_STATE_READY;
 8007b56:	687b      	ldr	r3, [r7, #4]
 8007b58:	2220      	movs	r2, #32
 8007b5a:	f883 2042 	strb.w	r2, [r3, #66]	@ 0x42
          huart->ReceptionType = HAL_UART_RECEPTION_STANDARD;
 8007b5e:	687b      	ldr	r3, [r7, #4]
 8007b60:	2200      	movs	r2, #0
 8007b62:	631a      	str	r2, [r3, #48]	@ 0x30

          ATOMIC_CLEAR_BIT(huart->Instance->CR1, USART_CR1_IDLEIE);
 8007b64:	687b      	ldr	r3, [r7, #4]
 8007b66:	681b      	ldr	r3, [r3, #0]
 8007b68:	330c      	adds	r3, #12
 8007b6a:	64fb      	str	r3, [r7, #76]	@ 0x4c
   __ASM volatile ("ldrex %0, %1" : "=r" (result) : "Q" (*addr) );
 8007b6c:	6cfb      	ldr	r3, [r7, #76]	@ 0x4c
 8007b6e:	e853 3f00 	ldrex	r3, [r3]
 8007b72:	64bb      	str	r3, [r7, #72]	@ 0x48
   return(result);
 8007b74:	6cbb      	ldr	r3, [r7, #72]	@ 0x48
 8007b76:	f023 0310 	bic.w	r3, r3, #16
 8007b7a:	f8c7 30ac 	str.w	r3, [r7, #172]	@ 0xac
 8007b7e:	687b      	ldr	r3, [r7, #4]
 8007b80:	681b      	ldr	r3, [r3, #0]
 8007b82:	330c      	adds	r3, #12
 8007b84:	f8d7 20ac 	ldr.w	r2, [r7, #172]	@ 0xac
 8007b88:	65ba      	str	r2, [r7, #88]	@ 0x58
 8007b8a:	657b      	str	r3, [r7, #84]	@ 0x54
   __ASM volatile ("strex %0, %2, %1" : "=&r" (result), "=Q" (*addr) : "r" (value) );
 8007b8c:	6d79      	ldr	r1, [r7, #84]	@ 0x54
 8007b8e:	6dba      	ldr	r2, [r7, #88]	@ 0x58
 8007b90:	e841 2300 	strex	r3, r2, [r1]
 8007b94:	653b      	str	r3, [r7, #80]	@ 0x50
   return(result);
 8007b96:	6d3b      	ldr	r3, [r7, #80]	@ 0x50
 8007b98:	2b00      	cmp	r3, #0
 8007b9a:	d1e3      	bne.n	8007b64 <HAL_UART_IRQHandler+0x380>

          /* Last bytes received, so no need as the abort is immediate */
          (void)HAL_DMA_Abort(huart->hdmarx);
 8007b9c:	687b      	ldr	r3, [r7, #4]
 8007b9e:	6bdb      	ldr	r3, [r3, #60]	@ 0x3c
 8007ba0:	4618      	mov	r0, r3
 8007ba2:	f7fe f974 	bl	8005e8e <HAL_DMA_Abort>
        }

        /* Initialize type of RxEvent that correspond to RxEvent callback execution;
        In this case, Rx Event type is Idle Event */
        huart->RxEventType = HAL_UART_RXEVENT_IDLE;
 8007ba6:	687b      	ldr	r3, [r7, #4]
 8007ba8:	2202      	movs	r2, #2
 8007baa:	635a      	str	r2, [r3, #52]	@ 0x34
#if (USE_HAL_UART_REGISTER_CALLBACKS == 1)
        /*Call registered Rx Event callback*/
        huart->RxEventCallback(huart, (huart->RxXferSize - huart->RxXferCount));
#else
        /*Call legacy weak Rx Event callback*/
        HAL_UARTEx_RxEventCallback(huart, (huart->RxXferSize - huart->RxXferCount));
 8007bac:	687b      	ldr	r3, [r7, #4]
 8007bae:	8d9a      	ldrh	r2, [r3, #44]	@ 0x2c
 8007bb0:	687b      	ldr	r3, [r7, #4]
 8007bb2:	8ddb      	ldrh	r3, [r3, #46]	@ 0x2e
 8007bb4:	b29b      	uxth	r3, r3
 8007bb6:	1ad3      	subs	r3, r2, r3
 8007bb8:	b29b      	uxth	r3, r3
 8007bba:	4619      	mov	r1, r3
 8007bbc:	6878      	ldr	r0, [r7, #4]
 8007bbe:	f000 f8b7 	bl	8007d30 <HAL_UARTEx_RxEventCallback>
#endif /* USE_HAL_UART_REGISTER_CALLBACKS */
      }
      return;
 8007bc2:	e09b      	b.n	8007cfc <HAL_UART_IRQHandler+0x518>
 8007bc4:	08007f35 	.word	0x08007f35
    else
    {
      /* DMA mode not enabled */
      /* Check received length : If all expected data are received, do nothing.
         Otherwise, if at least one data has already been received, IDLE event is to be notified to user */
      uint16_t nb_rx_data = huart->RxXferSize - huart->RxXferCount;
 8007bc8:	687b      	ldr	r3, [r7, #4]
 8007bca:	8d9a      	ldrh	r2, [r3, #44]	@ 0x2c
 8007bcc:	687b      	ldr	r3, [r7, #4]
 8007bce:	8ddb      	ldrh	r3, [r3, #46]	@ 0x2e
 8007bd0:	b29b      	uxth	r3, r3
 8007bd2:	1ad3      	subs	r3, r2, r3
 8007bd4:	f8a7 30ce 	strh.w	r3, [r7, #206]	@ 0xce
      if ((huart->RxXferCount > 0U)
 8007bd8:	687b      	ldr	r3, [r7, #4]
 8007bda:	8ddb      	ldrh	r3, [r3, #46]	@ 0x2e
 8007bdc:	b29b      	uxth	r3, r3
 8007bde:	2b00      	cmp	r3, #0
 8007be0:	f000 808e 	beq.w	8007d00 <HAL_UART_IRQHandler+0x51c>
          && (nb_rx_data > 0U))
 8007be4:	f8b7 30ce 	ldrh.w	r3, [r7, #206]	@ 0xce
 8007be8:	2b00      	cmp	r3, #0
 8007bea:	f000 8089 	beq.w	8007d00 <HAL_UART_IRQHandler+0x51c>
      {
        /* Disable the UART Parity Error Interrupt and RXNE interrupts */
        ATOMIC_CLEAR_BIT(huart->Instance->CR1, (USART_CR1_RXNEIE | USART_CR1_PEIE));
 8007bee:	687b      	ldr	r3, [r7, #4]
 8007bf0:	681b      	ldr	r3, [r3, #0]
 8007bf2:	330c      	adds	r3, #12
 8007bf4:	63bb      	str	r3, [r7, #56]	@ 0x38
   __ASM volatile ("ldrex %0, %1" : "=r" (result) : "Q" (*addr) );
 8007bf6:	6bbb      	ldr	r3, [r7, #56]	@ 0x38
 8007bf8:	e853 3f00 	ldrex	r3, [r3]
 8007bfc:	637b      	str	r3, [r7, #52]	@ 0x34
   return(result);
 8007bfe:	6b7b      	ldr	r3, [r7, #52]	@ 0x34
 8007c00:	f423 7390 	bic.w	r3, r3, #288	@ 0x120
 8007c04:	f8c7 30c8 	str.w	r3, [r7, #200]	@ 0xc8
 8007c08:	687b      	ldr	r3, [r7, #4]
 8007c0a:	681b      	ldr	r3, [r3, #0]
 8007c0c:	330c      	adds	r3, #12
 8007c0e:	f8d7 20c8 	ldr.w	r2, [r7, #200]	@ 0xc8
 8007c12:	647a      	str	r2, [r7, #68]	@ 0x44
 8007c14:	643b      	str	r3, [r7, #64]	@ 0x40
   __ASM volatile ("strex %0, %2, %1" : "=&r" (result), "=Q" (*addr) : "r" (value) );
 8007c16:	6c39      	ldr	r1, [r7, #64]	@ 0x40
 8007c18:	6c7a      	ldr	r2, [r7, #68]	@ 0x44
 8007c1a:	e841 2300 	strex	r3, r2, [r1]
 8007c1e:	63fb      	str	r3, [r7, #60]	@ 0x3c
   return(result);
 8007c20:	6bfb      	ldr	r3, [r7, #60]	@ 0x3c
 8007c22:	2b00      	cmp	r3, #0
 8007c24:	d1e3      	bne.n	8007bee <HAL_UART_IRQHandler+0x40a>

        /* Disable the UART Error Interrupt: (Frame error, noise error, overrun error) */
        ATOMIC_CLEAR_BIT(huart->Instance->CR3, USART_CR3_EIE);
 8007c26:	687b      	ldr	r3, [r7, #4]
 8007c28:	681b      	ldr	r3, [r3, #0]
 8007c2a:	3314      	adds	r3, #20
 8007c2c:	627b      	str	r3, [r7, #36]	@ 0x24
   __ASM volatile ("ldrex %0, %1" : "=r" (result) : "Q" (*addr) );
 8007c2e:	6a7b      	ldr	r3, [r7, #36]	@ 0x24
 8007c30:	e853 3f00 	ldrex	r3, [r3]
 8007c34:	623b      	str	r3, [r7, #32]
   return(result);
 8007c36:	6a3b      	ldr	r3, [r7, #32]
 8007c38:	f023 0301 	bic.w	r3, r3, #1
 8007c3c:	f8c7 30c4 	str.w	r3, [r7, #196]	@ 0xc4
 8007c40:	687b      	ldr	r3, [r7, #4]
 8007c42:	681b      	ldr	r3, [r3, #0]
 8007c44:	3314      	adds	r3, #20
 8007c46:	f8d7 20c4 	ldr.w	r2, [r7, #196]	@ 0xc4
 8007c4a:	633a      	str	r2, [r7, #48]	@ 0x30
 8007c4c:	62fb      	str	r3, [r7, #44]	@ 0x2c
   __ASM volatile ("strex %0, %2, %1" : "=&r" (result), "=Q" (*addr) : "r" (value) );
 8007c4e:	6af9      	ldr	r1, [r7, #44]	@ 0x2c
 8007c50:	6b3a      	ldr	r2, [r7, #48]	@ 0x30
 8007c52:	e841 2300 	strex	r3, r2, [r1]
 8007c56:	62bb      	str	r3, [r7, #40]	@ 0x28
   return(result);
 8007c58:	6abb      	ldr	r3, [r7, #40]	@ 0x28
 8007c5a:	2b00      	cmp	r3, #0
 8007c5c:	d1e3      	bne.n	8007c26 <HAL_UART_IRQHandler+0x442>

        /* Rx process is completed, restore huart->RxState to Ready */
        huart->RxState = HAL_UART_STATE_READY;
 8007c5e:	687b      	ldr	r3, [r7, #4]
 8007c60:	2220      	movs	r2, #32
 8007c62:	f883 2042 	strb.w	r2, [r3, #66]	@ 0x42
        huart->ReceptionType = HAL_UART_RECEPTION_STANDARD;
 8007c66:	687b      	ldr	r3, [r7, #4]
 8007c68:	2200      	movs	r2, #0
 8007c6a:	631a      	str	r2, [r3, #48]	@ 0x30

        ATOMIC_CLEAR_BIT(huart->Instance->CR1, USART_CR1_IDLEIE);
 8007c6c:	687b      	ldr	r3, [r7, #4]
 8007c6e:	681b      	ldr	r3, [r3, #0]
 8007c70:	330c      	adds	r3, #12
 8007c72:	613b      	str	r3, [r7, #16]
   __ASM volatile ("ldrex %0, %1" : "=r" (result) : "Q" (*addr) );
 8007c74:	693b      	ldr	r3, [r7, #16]
 8007c76:	e853 3f00 	ldrex	r3, [r3]
 8007c7a:	60fb      	str	r3, [r7, #12]
   return(result);
 8007c7c:	68fb      	ldr	r3, [r7, #12]
 8007c7e:	f023 0310 	bic.w	r3, r3, #16
 8007c82:	f8c7 30c0 	str.w	r3, [r7, #192]	@ 0xc0
 8007c86:	687b      	ldr	r3, [r7, #4]
 8007c88:	681b      	ldr	r3, [r3, #0]
 8007c8a:	330c      	adds	r3, #12
 8007c8c:	f8d7 20c0 	ldr.w	r2, [r7, #192]	@ 0xc0
 8007c90:	61fa      	str	r2, [r7, #28]
 8007c92:	61bb      	str	r3, [r7, #24]
   __ASM volatile ("strex %0, %2, %1" : "=&r" (result), "=Q" (*addr) : "r" (value) );
 8007c94:	69b9      	ldr	r1, [r7, #24]
 8007c96:	69fa      	ldr	r2, [r7, #28]
 8007c98:	e841 2300 	strex	r3, r2, [r1]
 8007c9c:	617b      	str	r3, [r7, #20]
   return(result);
 8007c9e:	697b      	ldr	r3, [r7, #20]
 8007ca0:	2b00      	cmp	r3, #0
 8007ca2:	d1e3      	bne.n	8007c6c <HAL_UART_IRQHandler+0x488>

        /* Initialize type of RxEvent that correspond to RxEvent callback execution;
           In this case, Rx Event type is Idle Event */
        huart->RxEventType = HAL_UART_RXEVENT_IDLE;
 8007ca4:	687b      	ldr	r3, [r7, #4]
 8007ca6:	2202      	movs	r2, #2
 8007ca8:	635a      	str	r2, [r3, #52]	@ 0x34
#if (USE_HAL_UART_REGISTER_CALLBACKS == 1)
        /*Call registered Rx complete callback*/
        huart->RxEventCallback(huart, nb_rx_data);
#else
        /*Call legacy weak Rx Event callback*/
        HAL_UARTEx_RxEventCallback(huart, nb_rx_data);
 8007caa:	f8b7 30ce 	ldrh.w	r3, [r7, #206]	@ 0xce
 8007cae:	4619      	mov	r1, r3
 8007cb0:	6878      	ldr	r0, [r7, #4]
 8007cb2:	f000 f83d 	bl	8007d30 <HAL_UARTEx_RxEventCallback>
#endif /* USE_HAL_UART_REGISTER_CALLBACKS */
      }
      return;
 8007cb6:	e023      	b.n	8007d00 <HAL_UART_IRQHandler+0x51c>
    }
  }

  /* UART in mode Transmitter ------------------------------------------------*/
  if (((isrflags & USART_SR_TXE) != RESET) && ((cr1its & USART_CR1_TXEIE) != RESET))
 8007cb8:	f8d7 30e4 	ldr.w	r3, [r7, #228]	@ 0xe4
 8007cbc:	f003 0380 	and.w	r3, r3, #128	@ 0x80
 8007cc0:	2b00      	cmp	r3, #0
 8007cc2:	d009      	beq.n	8007cd8 <HAL_UART_IRQHandler+0x4f4>
 8007cc4:	f8d7 30e0 	ldr.w	r3, [r7, #224]	@ 0xe0
 8007cc8:	f003 0380 	and.w	r3, r3, #128	@ 0x80
 8007ccc:	2b00      	cmp	r3, #0
 8007cce:	d003      	beq.n	8007cd8 <HAL_UART_IRQHandler+0x4f4>
  {
    UART_Transmit_IT(huart);
 8007cd0:	6878      	ldr	r0, [r7, #4]
 8007cd2:	f000 f943 	bl	8007f5c <UART_Transmit_IT>
    return;
 8007cd6:	e014      	b.n	8007d02 <HAL_UART_IRQHandler+0x51e>
  }

  /* UART in mode Transmitter end --------------------------------------------*/
  if (((isrflags & USART_SR_TC) != RESET) && ((cr1its & USART_CR1_TCIE) != RESET))
 8007cd8:	f8d7 30e4 	ldr.w	r3, [r7, #228]	@ 0xe4
 8007cdc:	f003 0340 	and.w	r3, r3, #64	@ 0x40
 8007ce0:	2b00      	cmp	r3, #0
 8007ce2:	d00e      	beq.n	8007d02 <HAL_UART_IRQHandler+0x51e>
 8007ce4:	f8d7 30e0 	ldr.w	r3, [r7, #224]	@ 0xe0
 8007ce8:	f003 0340 	and.w	r3, r3, #64	@ 0x40
 8007cec:	2b00      	cmp	r3, #0
 8007cee:	d008      	beq.n	8007d02 <HAL_UART_IRQHandler+0x51e>
  {
    UART_EndTransmit_IT(huart);
 8007cf0:	6878      	ldr	r0, [r7, #4]
 8007cf2:	f000 f983 	bl	8007ffc <UART_EndTransmit_IT>
    return;
 8007cf6:	e004      	b.n	8007d02 <HAL_UART_IRQHandler+0x51e>
    return;
 8007cf8:	bf00      	nop
 8007cfa:	e002      	b.n	8007d02 <HAL_UART_IRQHandler+0x51e>
      return;
 8007cfc:	bf00      	nop
 8007cfe:	e000      	b.n	8007d02 <HAL_UART_IRQHandler+0x51e>
      return;
 8007d00:	bf00      	nop
  }
}
 8007d02:	37e8      	adds	r7, #232	@ 0xe8
 8007d04:	46bd      	mov	sp, r7
 8007d06:	bd80      	pop	{r7, pc}

08007d08 <HAL_UART_TxCpltCallback>:
  * @param  huart  Pointer to a UART_HandleTypeDef structure that contains
  *                the configuration information for the specified UART module.
  * @retval None
  */
__weak void HAL_UART_TxCpltCallback(UART_HandleTypeDef *huart)
{
 8007d08:	b480      	push	{r7}
 8007d0a:	b083      	sub	sp, #12
 8007d0c:	af00      	add	r7, sp, #0
 8007d0e:	6078      	str	r0, [r7, #4]
  /* Prevent unused argument(s) compilation warning */
  UNUSED(huart);
  /* NOTE: This function should not be modified, when the callback is needed,
           the HAL_UART_TxCpltCallback could be implemented in the user file
   */
}
 8007d10:	bf00      	nop
 8007d12:	370c      	adds	r7, #12
 8007d14:	46bd      	mov	sp, r7
 8007d16:	f85d 7b04 	ldr.w	r7, [sp], #4
 8007d1a:	4770      	bx	lr

08007d1c <HAL_UART_ErrorCallback>:
  * @param  huart  Pointer to a UART_HandleTypeDef structure that contains
  *                the configuration information for the specified UART module.
  * @retval None
  */
__weak void HAL_UART_ErrorCallback(UART_HandleTypeDef *huart)
{
 8007d1c:	b480      	push	{r7}
 8007d1e:	b083      	sub	sp, #12
 8007d20:	af00      	add	r7, sp, #0
 8007d22:	6078      	str	r0, [r7, #4]
  /* Prevent unused argument(s) compilation warning */
  UNUSED(huart);
  /* NOTE: This function should not be modified, when the callback is needed,
           the HAL_UART_ErrorCallback could be implemented in the user file
   */
}
 8007d24:	bf00      	nop
 8007d26:	370c      	adds	r7, #12
 8007d28:	46bd      	mov	sp, r7
 8007d2a:	f85d 7b04 	ldr.w	r7, [sp], #4
 8007d2e:	4770      	bx	lr

08007d30 <HAL_UARTEx_RxEventCallback>:
  * @param  Size  Number of data available in application reception buffer (indicates a position in
  *               reception buffer until which, data are available)
  * @retval None
  */
__weak void HAL_UARTEx_RxEventCallback(UART_HandleTypeDef *huart, uint16_t Size)
{
 8007d30:	b480      	push	{r7}
 8007d32:	b083      	sub	sp, #12
 8007d34:	af00      	add	r7, sp, #0
 8007d36:	6078      	str	r0, [r7, #4]
 8007d38:	460b      	mov	r3, r1
 8007d3a:	807b      	strh	r3, [r7, #2]
  UNUSED(Size);

  /* NOTE : This function should not be modified, when the callback is needed,
            the HAL_UARTEx_RxEventCallback can be implemented in the user file.
   */
}
 8007d3c:	bf00      	nop
 8007d3e:	370c      	adds	r7, #12
 8007d40:	46bd      	mov	sp, r7
 8007d42:	f85d 7b04 	ldr.w	r7, [sp], #4
 8007d46:	4770      	bx	lr

08007d48 <UART_WaitOnFlagUntilTimeout>:
  * @param  Timeout Timeout duration
  * @retval HAL status
  */
static HAL_StatusTypeDef UART_WaitOnFlagUntilTimeout(UART_HandleTypeDef *huart, uint32_t Flag, FlagStatus Status,
                                                     uint32_t Tickstart, uint32_t Timeout)
{
 8007d48:	b580      	push	{r7, lr}
 8007d4a:	b086      	sub	sp, #24
 8007d4c:	af00      	add	r7, sp, #0
 8007d4e:	60f8      	str	r0, [r7, #12]
 8007d50:	60b9      	str	r1, [r7, #8]
 8007d52:	603b      	str	r3, [r7, #0]
 8007d54:	4613      	mov	r3, r2
 8007d56:	71fb      	strb	r3, [r7, #7]
  /* Wait until flag is set */
  while ((__HAL_UART_GET_FLAG(huart, Flag) ? SET : RESET) == Status)
 8007d58:	e03b      	b.n	8007dd2 <UART_WaitOnFlagUntilTimeout+0x8a>
  {
    /* Check for the Timeout */
    if (Timeout != HAL_MAX_DELAY)
 8007d5a:	6a3b      	ldr	r3, [r7, #32]
 8007d5c:	f1b3 3fff 	cmp.w	r3, #4294967295
 8007d60:	d037      	beq.n	8007dd2 <UART_WaitOnFlagUntilTimeout+0x8a>
    {
      if (((HAL_GetTick() - Tickstart) > Timeout) || (Timeout == 0U))
 8007d62:	f7fd ff53 	bl	8005c0c <HAL_GetTick>
 8007d66:	4602      	mov	r2, r0
 8007d68:	683b      	ldr	r3, [r7, #0]
 8007d6a:	1ad3      	subs	r3, r2, r3
 8007d6c:	6a3a      	ldr	r2, [r7, #32]
 8007d6e:	429a      	cmp	r2, r3
 8007d70:	d302      	bcc.n	8007d78 <UART_WaitOnFlagUntilTimeout+0x30>
 8007d72:	6a3b      	ldr	r3, [r7, #32]
 8007d74:	2b00      	cmp	r3, #0
 8007d76:	d101      	bne.n	8007d7c <UART_WaitOnFlagUntilTimeout+0x34>
      {

        return HAL_TIMEOUT;
 8007d78:	2303      	movs	r3, #3
 8007d7a:	e03a      	b.n	8007df2 <UART_WaitOnFlagUntilTimeout+0xaa>
      }

      if ((READ_BIT(huart->Instance->CR1, USART_CR1_RE) != 0U) && (Flag != UART_FLAG_TXE) && (Flag != UART_FLAG_TC))
 8007d7c:	68fb      	ldr	r3, [r7, #12]
 8007d7e:	681b      	ldr	r3, [r3, #0]
 8007d80:	68db      	ldr	r3, [r3, #12]
 8007d82:	f003 0304 	and.w	r3, r3, #4
 8007d86:	2b00      	cmp	r3, #0
 8007d88:	d023      	beq.n	8007dd2 <UART_WaitOnFlagUntilTimeout+0x8a>
 8007d8a:	68bb      	ldr	r3, [r7, #8]
 8007d8c:	2b80      	cmp	r3, #128	@ 0x80
 8007d8e:	d020      	beq.n	8007dd2 <UART_WaitOnFlagUntilTimeout+0x8a>
 8007d90:	68bb      	ldr	r3, [r7, #8]
 8007d92:	2b40      	cmp	r3, #64	@ 0x40
 8007d94:	d01d      	beq.n	8007dd2 <UART_WaitOnFlagUntilTimeout+0x8a>
      {
        if (__HAL_UART_GET_FLAG(huart, UART_FLAG_ORE) == SET)
 8007d96:	68fb      	ldr	r3, [r7, #12]
 8007d98:	681b      	ldr	r3, [r3, #0]
 8007d9a:	681b      	ldr	r3, [r3, #0]
 8007d9c:	f003 0308 	and.w	r3, r3, #8
 8007da0:	2b08      	cmp	r3, #8
 8007da2:	d116      	bne.n	8007dd2 <UART_WaitOnFlagUntilTimeout+0x8a>
        {
          /* Clear Overrun Error flag*/
          __HAL_UART_CLEAR_OREFLAG(huart);
 8007da4:	2300      	movs	r3, #0
 8007da6:	617b      	str	r3, [r7, #20]
 8007da8:	68fb      	ldr	r3, [r7, #12]
 8007daa:	681b      	ldr	r3, [r3, #0]
 8007dac:	681b      	ldr	r3, [r3, #0]
 8007dae:	617b      	str	r3, [r7, #20]
 8007db0:	68fb      	ldr	r3, [r7, #12]
 8007db2:	681b      	ldr	r3, [r3, #0]
 8007db4:	685b      	ldr	r3, [r3, #4]
 8007db6:	617b      	str	r3, [r7, #20]
 8007db8:	697b      	ldr	r3, [r7, #20]

          /* Blocking error : transfer is aborted
          Set the UART state ready to be able to start again the process,
          Disable Rx Interrupts if ongoing */
          UART_EndRxTransfer(huart);
 8007dba:	68f8      	ldr	r0, [r7, #12]
 8007dbc:	f000 f857 	bl	8007e6e <UART_EndRxTransfer>

          huart->ErrorCode = HAL_UART_ERROR_ORE;
 8007dc0:	68fb      	ldr	r3, [r7, #12]
 8007dc2:	2208      	movs	r2, #8
 8007dc4:	645a      	str	r2, [r3, #68]	@ 0x44

          /* Process Unlocked */
          __HAL_UNLOCK(huart);
 8007dc6:	68fb      	ldr	r3, [r7, #12]
 8007dc8:	2200      	movs	r2, #0
 8007dca:	f883 2040 	strb.w	r2, [r3, #64]	@ 0x40

          return HAL_ERROR;
 8007dce:	2301      	movs	r3, #1
 8007dd0:	e00f      	b.n	8007df2 <UART_WaitOnFlagUntilTimeout+0xaa>
  while ((__HAL_UART_GET_FLAG(huart, Flag) ? SET : RESET) == Status)
 8007dd2:	68fb      	ldr	r3, [r7, #12]
 8007dd4:	681b      	ldr	r3, [r3, #0]
 8007dd6:	681a      	ldr	r2, [r3, #0]
 8007dd8:	68bb      	ldr	r3, [r7, #8]
 8007dda:	4013      	ands	r3, r2
 8007ddc:	68ba      	ldr	r2, [r7, #8]
 8007dde:	429a      	cmp	r2, r3
 8007de0:	bf0c      	ite	eq
 8007de2:	2301      	moveq	r3, #1
 8007de4:	2300      	movne	r3, #0
 8007de6:	b2db      	uxtb	r3, r3
 8007de8:	461a      	mov	r2, r3
 8007dea:	79fb      	ldrb	r3, [r7, #7]
 8007dec:	429a      	cmp	r2, r3
 8007dee:	d0b4      	beq.n	8007d5a <UART_WaitOnFlagUntilTimeout+0x12>
        }
      }
    }
  }
  return HAL_OK;
 8007df0:	2300      	movs	r3, #0
}
 8007df2:	4618      	mov	r0, r3
 8007df4:	3718      	adds	r7, #24
 8007df6:	46bd      	mov	sp, r7
 8007df8:	bd80      	pop	{r7, pc}

08007dfa <UART_Start_Receive_IT>:
  * @param  pData Pointer to data buffer (u8 or u16 data elements).
  * @param  Size  Amount of data elements (u8 or u16) to be received.
  * @retval HAL status
  */
HAL_StatusTypeDef UART_Start_Receive_IT(UART_HandleTypeDef *huart, uint8_t *pData, uint16_t Size)
{
 8007dfa:	b480      	push	{r7}
 8007dfc:	b085      	sub	sp, #20
 8007dfe:	af00      	add	r7, sp, #0
 8007e00:	60f8      	str	r0, [r7, #12]
 8007e02:	60b9      	str	r1, [r7, #8]
 8007e04:	4613      	mov	r3, r2
 8007e06:	80fb      	strh	r3, [r7, #6]
  huart->pRxBuffPtr = pData;
 8007e08:	68fb      	ldr	r3, [r7, #12]
 8007e0a:	68ba      	ldr	r2, [r7, #8]
 8007e0c:	629a      	str	r2, [r3, #40]	@ 0x28
  huart->RxXferSize = Size;
 8007e0e:	68fb      	ldr	r3, [r7, #12]
 8007e10:	88fa      	ldrh	r2, [r7, #6]
 8007e12:	859a      	strh	r2, [r3, #44]	@ 0x2c
  huart->RxXferCount = Size;
 8007e14:	68fb      	ldr	r3, [r7, #12]
 8007e16:	88fa      	ldrh	r2, [r7, #6]
 8007e18:	85da      	strh	r2, [r3, #46]	@ 0x2e

  huart->ErrorCode = HAL_UART_ERROR_NONE;
 8007e1a:	68fb      	ldr	r3, [r7, #12]
 8007e1c:	2200      	movs	r2, #0
 8007e1e:	645a      	str	r2, [r3, #68]	@ 0x44
  huart->RxState = HAL_UART_STATE_BUSY_RX;
 8007e20:	68fb      	ldr	r3, [r7, #12]
 8007e22:	2222      	movs	r2, #34	@ 0x22
 8007e24:	f883 2042 	strb.w	r2, [r3, #66]	@ 0x42

  if (huart->Init.Parity != UART_PARITY_NONE)
 8007e28:	68fb      	ldr	r3, [r7, #12]
 8007e2a:	691b      	ldr	r3, [r3, #16]
 8007e2c:	2b00      	cmp	r3, #0
 8007e2e:	d007      	beq.n	8007e40 <UART_Start_Receive_IT+0x46>
  {
    /* Enable the UART Parity Error Interrupt */
    __HAL_UART_ENABLE_IT(huart, UART_IT_PE);
 8007e30:	68fb      	ldr	r3, [r7, #12]
 8007e32:	681b      	ldr	r3, [r3, #0]
 8007e34:	68da      	ldr	r2, [r3, #12]
 8007e36:	68fb      	ldr	r3, [r7, #12]
 8007e38:	681b      	ldr	r3, [r3, #0]
 8007e3a:	f442 7280 	orr.w	r2, r2, #256	@ 0x100
 8007e3e:	60da      	str	r2, [r3, #12]
  }

  /* Enable the UART Error Interrupt: (Frame error, noise error, overrun error) */
  __HAL_UART_ENABLE_IT(huart, UART_IT_ERR);
 8007e40:	68fb      	ldr	r3, [r7, #12]
 8007e42:	681b      	ldr	r3, [r3, #0]
 8007e44:	695a      	ldr	r2, [r3, #20]
 8007e46:	68fb      	ldr	r3, [r7, #12]
 8007e48:	681b      	ldr	r3, [r3, #0]
 8007e4a:	f042 0201 	orr.w	r2, r2, #1
 8007e4e:	615a      	str	r2, [r3, #20]

  /* Enable the UART Data Register not empty Interrupt */
  __HAL_UART_ENABLE_IT(huart, UART_IT_RXNE);
 8007e50:	68fb      	ldr	r3, [r7, #12]
 8007e52:	681b      	ldr	r3, [r3, #0]
 8007e54:	68da      	ldr	r2, [r3, #12]
 8007e56:	68fb      	ldr	r3, [r7, #12]
 8007e58:	681b      	ldr	r3, [r3, #0]
 8007e5a:	f042 0220 	orr.w	r2, r2, #32
 8007e5e:	60da      	str	r2, [r3, #12]

  return HAL_OK;
 8007e60:	2300      	movs	r3, #0
}
 8007e62:	4618      	mov	r0, r3
 8007e64:	3714      	adds	r7, #20
 8007e66:	46bd      	mov	sp, r7
 8007e68:	f85d 7b04 	ldr.w	r7, [sp], #4
 8007e6c:	4770      	bx	lr

08007e6e <UART_EndRxTransfer>:
  * @brief  End ongoing Rx transfer on UART peripheral (following error detection or Reception completion).
  * @param  huart UART handle.
  * @retval None
  */
static void UART_EndRxTransfer(UART_HandleTypeDef *huart)
{
 8007e6e:	b480      	push	{r7}
 8007e70:	b095      	sub	sp, #84	@ 0x54
 8007e72:	af00      	add	r7, sp, #0
 8007e74:	6078      	str	r0, [r7, #4]
  /* Disable RXNE, PE and ERR (Frame error, noise error, overrun error) interrupts */
  ATOMIC_CLEAR_BIT(huart->Instance->CR1, (USART_CR1_RXNEIE | USART_CR1_PEIE));
 8007e76:	687b      	ldr	r3, [r7, #4]
 8007e78:	681b      	ldr	r3, [r3, #0]
 8007e7a:	330c      	adds	r3, #12
 8007e7c:	637b      	str	r3, [r7, #52]	@ 0x34
   __ASM volatile ("ldrex %0, %1" : "=r" (result) : "Q" (*addr) );
 8007e7e:	6b7b      	ldr	r3, [r7, #52]	@ 0x34
 8007e80:	e853 3f00 	ldrex	r3, [r3]
 8007e84:	633b      	str	r3, [r7, #48]	@ 0x30
   return(result);
 8007e86:	6b3b      	ldr	r3, [r7, #48]	@ 0x30
 8007e88:	f423 7390 	bic.w	r3, r3, #288	@ 0x120
 8007e8c:	64fb      	str	r3, [r7, #76]	@ 0x4c
 8007e8e:	687b      	ldr	r3, [r7, #4]
 8007e90:	681b      	ldr	r3, [r3, #0]
 8007e92:	330c      	adds	r3, #12
 8007e94:	6cfa      	ldr	r2, [r7, #76]	@ 0x4c
 8007e96:	643a      	str	r2, [r7, #64]	@ 0x40
 8007e98:	63fb      	str	r3, [r7, #60]	@ 0x3c
   __ASM volatile ("strex %0, %2, %1" : "=&r" (result), "=Q" (*addr) : "r" (value) );
 8007e9a:	6bf9      	ldr	r1, [r7, #60]	@ 0x3c
 8007e9c:	6c3a      	ldr	r2, [r7, #64]	@ 0x40
 8007e9e:	e841 2300 	strex	r3, r2, [r1]
 8007ea2:	63bb      	str	r3, [r7, #56]	@ 0x38
   return(result);
 8007ea4:	6bbb      	ldr	r3, [r7, #56]	@ 0x38
 8007ea6:	2b00      	cmp	r3, #0
 8007ea8:	d1e5      	bne.n	8007e76 <UART_EndRxTransfer+0x8>
  ATOMIC_CLEAR_BIT(huart->Instance->CR3, USART_CR3_EIE);
 8007eaa:	687b      	ldr	r3, [r7, #4]
 8007eac:	681b      	ldr	r3, [r3, #0]
 8007eae:	3314      	adds	r3, #20
 8007eb0:	623b      	str	r3, [r7, #32]
   __ASM volatile ("ldrex %0, %1" : "=r" (result) : "Q" (*addr) );
 8007eb2:	6a3b      	ldr	r3, [r7, #32]
 8007eb4:	e853 3f00 	ldrex	r3, [r3]
 8007eb8:	61fb      	str	r3, [r7, #28]
   return(result);
 8007eba:	69fb      	ldr	r3, [r7, #28]
 8007ebc:	f023 0301 	bic.w	r3, r3, #1
 8007ec0:	64bb      	str	r3, [r7, #72]	@ 0x48
 8007ec2:	687b      	ldr	r3, [r7, #4]
 8007ec4:	681b      	ldr	r3, [r3, #0]
 8007ec6:	3314      	adds	r3, #20
 8007ec8:	6cba      	ldr	r2, [r7, #72]	@ 0x48
 8007eca:	62fa      	str	r2, [r7, #44]	@ 0x2c
 8007ecc:	62bb      	str	r3, [r7, #40]	@ 0x28
   __ASM volatile ("strex %0, %2, %1" : "=&r" (result), "=Q" (*addr) : "r" (value) );
 8007ece:	6ab9      	ldr	r1, [r7, #40]	@ 0x28
 8007ed0:	6afa      	ldr	r2, [r7, #44]	@ 0x2c
 8007ed2:	e841 2300 	strex	r3, r2, [r1]
 8007ed6:	627b      	str	r3, [r7, #36]	@ 0x24
   return(result);
 8007ed8:	6a7b      	ldr	r3, [r7, #36]	@ 0x24
 8007eda:	2b00      	cmp	r3, #0
 8007edc:	d1e5      	bne.n	8007eaa <UART_EndRxTransfer+0x3c>

  /* In case of reception waiting for IDLE event, disable also the IDLE IE interrupt source */
  if (huart->ReceptionType == HAL_UART_RECEPTION_TOIDLE)
 8007ede:	687b      	ldr	r3, [r7, #4]
 8007ee0:	6b1b      	ldr	r3, [r3, #48]	@ 0x30
 8007ee2:	2b01      	cmp	r3, #1
 8007ee4:	d119      	bne.n	8007f1a <UART_EndRxTransfer+0xac>
  {
    ATOMIC_CLEAR_BIT(huart->Instance->CR1, USART_CR1_IDLEIE);
 8007ee6:	687b      	ldr	r3, [r7, #4]
 8007ee8:	681b      	ldr	r3, [r3, #0]
 8007eea:	330c      	adds	r3, #12
 8007eec:	60fb      	str	r3, [r7, #12]
   __ASM volatile ("ldrex %0, %1" : "=r" (result) : "Q" (*addr) );
 8007eee:	68fb      	ldr	r3, [r7, #12]
 8007ef0:	e853 3f00 	ldrex	r3, [r3]
 8007ef4:	60bb      	str	r3, [r7, #8]
   return(result);
 8007ef6:	68bb      	ldr	r3, [r7, #8]
 8007ef8:	f023 0310 	bic.w	r3, r3, #16
 8007efc:	647b      	str	r3, [r7, #68]	@ 0x44
 8007efe:	687b      	ldr	r3, [r7, #4]
 8007f00:	681b      	ldr	r3, [r3, #0]
 8007f02:	330c      	adds	r3, #12
 8007f04:	6c7a      	ldr	r2, [r7, #68]	@ 0x44
 8007f06:	61ba      	str	r2, [r7, #24]
 8007f08:	617b      	str	r3, [r7, #20]
   __ASM volatile ("strex %0, %2, %1" : "=&r" (result), "=Q" (*addr) : "r" (value) );
 8007f0a:	6979      	ldr	r1, [r7, #20]
 8007f0c:	69ba      	ldr	r2, [r7, #24]
 8007f0e:	e841 2300 	strex	r3, r2, [r1]
 8007f12:	613b      	str	r3, [r7, #16]
   return(result);
 8007f14:	693b      	ldr	r3, [r7, #16]
 8007f16:	2b00      	cmp	r3, #0
 8007f18:	d1e5      	bne.n	8007ee6 <UART_EndRxTransfer+0x78>
  }

  /* At end of Rx process, restore huart->RxState to Ready */
  huart->RxState = HAL_UART_STATE_READY;
 8007f1a:	687b      	ldr	r3, [r7, #4]
 8007f1c:	2220      	movs	r2, #32
 8007f1e:	f883 2042 	strb.w	r2, [r3, #66]	@ 0x42
  huart->ReceptionType = HAL_UART_RECEPTION_STANDARD;
 8007f22:	687b      	ldr	r3, [r7, #4]
 8007f24:	2200      	movs	r2, #0
 8007f26:	631a      	str	r2, [r3, #48]	@ 0x30
}
 8007f28:	bf00      	nop
 8007f2a:	3754      	adds	r7, #84	@ 0x54
 8007f2c:	46bd      	mov	sp, r7
 8007f2e:	f85d 7b04 	ldr.w	r7, [sp], #4
 8007f32:	4770      	bx	lr

08007f34 <UART_DMAAbortOnError>:
  * @param  hdma  Pointer to a DMA_HandleTypeDef structure that contains
  *               the configuration information for the specified DMA module.
  * @retval None
  */
static void UART_DMAAbortOnError(DMA_HandleTypeDef *hdma)
{
 8007f34:	b580      	push	{r7, lr}
 8007f36:	b084      	sub	sp, #16
 8007f38:	af00      	add	r7, sp, #0
 8007f3a:	6078      	str	r0, [r7, #4]
  UART_HandleTypeDef *huart = (UART_HandleTypeDef *)((DMA_HandleTypeDef *)hdma)->Parent;
 8007f3c:	687b      	ldr	r3, [r7, #4]
 8007f3e:	6b9b      	ldr	r3, [r3, #56]	@ 0x38
 8007f40:	60fb      	str	r3, [r7, #12]
  huart->RxXferCount = 0x00U;
 8007f42:	68fb      	ldr	r3, [r7, #12]
 8007f44:	2200      	movs	r2, #0
 8007f46:	85da      	strh	r2, [r3, #46]	@ 0x2e
  huart->TxXferCount = 0x00U;
 8007f48:	68fb      	ldr	r3, [r7, #12]
 8007f4a:	2200      	movs	r2, #0
 8007f4c:	84da      	strh	r2, [r3, #38]	@ 0x26
#if (USE_HAL_UART_REGISTER_CALLBACKS == 1)
  /*Call registered error callback*/
  huart->ErrorCallback(huart);
#else
  /*Call legacy weak error callback*/
  HAL_UART_ErrorCallback(huart);
 8007f4e:	68f8      	ldr	r0, [r7, #12]
 8007f50:	f7ff fee4 	bl	8007d1c <HAL_UART_ErrorCallback>
#endif /* USE_HAL_UART_REGISTER_CALLBACKS */
}
 8007f54:	bf00      	nop
 8007f56:	3710      	adds	r7, #16
 8007f58:	46bd      	mov	sp, r7
 8007f5a:	bd80      	pop	{r7, pc}

08007f5c <UART_Transmit_IT>:
  * @param  huart  Pointer to a UART_HandleTypeDef structure that contains
  *                the configuration information for the specified UART module.
  * @retval HAL status
  */
static HAL_StatusTypeDef UART_Transmit_IT(UART_HandleTypeDef *huart)
{
 8007f5c:	b480      	push	{r7}
 8007f5e:	b085      	sub	sp, #20
 8007f60:	af00      	add	r7, sp, #0
 8007f62:	6078      	str	r0, [r7, #4]
  const uint16_t *tmp;

  /* Check that a Tx process is ongoing */
  if (huart->gState == HAL_UART_STATE_BUSY_TX)
 8007f64:	687b      	ldr	r3, [r7, #4]
 8007f66:	f893 3041 	ldrb.w	r3, [r3, #65]	@ 0x41
 8007f6a:	b2db      	uxtb	r3, r3
 8007f6c:	2b21      	cmp	r3, #33	@ 0x21
 8007f6e:	d13e      	bne.n	8007fee <UART_Transmit_IT+0x92>
  {
    if ((huart->Init.WordLength == UART_WORDLENGTH_9B) && (huart->Init.Parity == UART_PARITY_NONE))
 8007f70:	687b      	ldr	r3, [r7, #4]
 8007f72:	689b      	ldr	r3, [r3, #8]
 8007f74:	f5b3 5f80 	cmp.w	r3, #4096	@ 0x1000
 8007f78:	d114      	bne.n	8007fa4 <UART_Transmit_IT+0x48>
 8007f7a:	687b      	ldr	r3, [r7, #4]
 8007f7c:	691b      	ldr	r3, [r3, #16]
 8007f7e:	2b00      	cmp	r3, #0
 8007f80:	d110      	bne.n	8007fa4 <UART_Transmit_IT+0x48>
    {
      tmp = (const uint16_t *) huart->pTxBuffPtr;
 8007f82:	687b      	ldr	r3, [r7, #4]
 8007f84:	6a1b      	ldr	r3, [r3, #32]
 8007f86:	60fb      	str	r3, [r7, #12]
      huart->Instance->DR = (uint16_t)(*tmp & (uint16_t)0x01FF);
 8007f88:	68fb      	ldr	r3, [r7, #12]
 8007f8a:	881b      	ldrh	r3, [r3, #0]
 8007f8c:	461a      	mov	r2, r3
 8007f8e:	687b      	ldr	r3, [r7, #4]
 8007f90:	681b      	ldr	r3, [r3, #0]
 8007f92:	f3c2 0208 	ubfx	r2, r2, #0, #9
 8007f96:	605a      	str	r2, [r3, #4]
      huart->pTxBuffPtr += 2U;
 8007f98:	687b      	ldr	r3, [r7, #4]
 8007f9a:	6a1b      	ldr	r3, [r3, #32]
 8007f9c:	1c9a      	adds	r2, r3, #2
 8007f9e:	687b      	ldr	r3, [r7, #4]
 8007fa0:	621a      	str	r2, [r3, #32]
 8007fa2:	e008      	b.n	8007fb6 <UART_Transmit_IT+0x5a>
    }
    else
    {
      huart->Instance->DR = (uint8_t)(*huart->pTxBuffPtr++ & (uint8_t)0x00FF);
 8007fa4:	687b      	ldr	r3, [r7, #4]
 8007fa6:	6a1b      	ldr	r3, [r3, #32]
 8007fa8:	1c59      	adds	r1, r3, #1
 8007faa:	687a      	ldr	r2, [r7, #4]
 8007fac:	6211      	str	r1, [r2, #32]
 8007fae:	781a      	ldrb	r2, [r3, #0]
 8007fb0:	687b      	ldr	r3, [r7, #4]
 8007fb2:	681b      	ldr	r3, [r3, #0]
 8007fb4:	605a      	str	r2, [r3, #4]
    }

    if (--huart->TxXferCount == 0U)
 8007fb6:	687b      	ldr	r3, [r7, #4]
 8007fb8:	8cdb      	ldrh	r3, [r3, #38]	@ 0x26
 8007fba:	b29b      	uxth	r3, r3
 8007fbc:	3b01      	subs	r3, #1
 8007fbe:	b29b      	uxth	r3, r3
 8007fc0:	687a      	ldr	r2, [r7, #4]
 8007fc2:	4619      	mov	r1, r3
 8007fc4:	84d1      	strh	r1, [r2, #38]	@ 0x26
 8007fc6:	2b00      	cmp	r3, #0
 8007fc8:	d10f      	bne.n	8007fea <UART_Transmit_IT+0x8e>
    {
      /* Disable the UART Transmit Data Register Empty Interrupt */
      __HAL_UART_DISABLE_IT(huart, UART_IT_TXE);
 8007fca:	687b      	ldr	r3, [r7, #4]
 8007fcc:	681b      	ldr	r3, [r3, #0]
 8007fce:	68da      	ldr	r2, [r3, #12]
 8007fd0:	687b      	ldr	r3, [r7, #4]
 8007fd2:	681b      	ldr	r3, [r3, #0]
 8007fd4:	f022 0280 	bic.w	r2, r2, #128	@ 0x80
 8007fd8:	60da      	str	r2, [r3, #12]

      /* Enable the UART Transmit Complete Interrupt */
      __HAL_UART_ENABLE_IT(huart, UART_IT_TC);
 8007fda:	687b      	ldr	r3, [r7, #4]
 8007fdc:	681b      	ldr	r3, [r3, #0]
 8007fde:	68da      	ldr	r2, [r3, #12]
 8007fe0:	687b      	ldr	r3, [r7, #4]
 8007fe2:	681b      	ldr	r3, [r3, #0]
 8007fe4:	f042 0240 	orr.w	r2, r2, #64	@ 0x40
 8007fe8:	60da      	str	r2, [r3, #12]
    }
    return HAL_OK;
 8007fea:	2300      	movs	r3, #0
 8007fec:	e000      	b.n	8007ff0 <UART_Transmit_IT+0x94>
  }
  else
  {
    return HAL_BUSY;
 8007fee:	2302      	movs	r3, #2
  }
}
 8007ff0:	4618      	mov	r0, r3
 8007ff2:	3714      	adds	r7, #20
 8007ff4:	46bd      	mov	sp, r7
 8007ff6:	f85d 7b04 	ldr.w	r7, [sp], #4
 8007ffa:	4770      	bx	lr

08007ffc <UART_EndTransmit_IT>:
  * @param  huart  Pointer to a UART_HandleTypeDef structure that contains
  *                the configuration information for the specified UART module.
  * @retval HAL status
  */
static HAL_StatusTypeDef UART_EndTransmit_IT(UART_HandleTypeDef *huart)
{
 8007ffc:	b580      	push	{r7, lr}
 8007ffe:	b082      	sub	sp, #8
 8008000:	af00      	add	r7, sp, #0
 8008002:	6078      	str	r0, [r7, #4]
  /* Disable the UART Transmit Complete Interrupt */
  __HAL_UART_DISABLE_IT(huart, UART_IT_TC);
 8008004:	687b      	ldr	r3, [r7, #4]
 8008006:	681b      	ldr	r3, [r3, #0]
 8008008:	68da      	ldr	r2, [r3, #12]
 800800a:	687b      	ldr	r3, [r7, #4]
 800800c:	681b      	ldr	r3, [r3, #0]
 800800e:	f022 0240 	bic.w	r2, r2, #64	@ 0x40
 8008012:	60da      	str	r2, [r3, #12]

  /* Tx process is ended, restore huart->gState to Ready */
  huart->gState = HAL_UART_STATE_READY;
 8008014:	687b      	ldr	r3, [r7, #4]
 8008016:	2220      	movs	r2, #32
 8008018:	f883 2041 	strb.w	r2, [r3, #65]	@ 0x41
#if (USE_HAL_UART_REGISTER_CALLBACKS == 1)
  /*Call registered Tx complete callback*/
  huart->TxCpltCallback(huart);
#else
  /*Call legacy weak Tx complete callback*/
  HAL_UART_TxCpltCallback(huart);
 800801c:	6878      	ldr	r0, [r7, #4]
 800801e:	f7ff fe73 	bl	8007d08 <HAL_UART_TxCpltCallback>
#endif /* USE_HAL_UART_REGISTER_CALLBACKS */

  return HAL_OK;
 8008022:	2300      	movs	r3, #0
}
 8008024:	4618      	mov	r0, r3
 8008026:	3708      	adds	r7, #8
 8008028:	46bd      	mov	sp, r7
 800802a:	bd80      	pop	{r7, pc}

0800802c <UART_Receive_IT>:
  * @param  huart  Pointer to a UART_HandleTypeDef structure that contains
  *                the configuration information for the specified UART module.
  * @retval HAL status
  */
static HAL_StatusTypeDef UART_Receive_IT(UART_HandleTypeDef *huart)
{
 800802c:	b580      	push	{r7, lr}
 800802e:	b08c      	sub	sp, #48	@ 0x30
 8008030:	af00      	add	r7, sp, #0
 8008032:	6078      	str	r0, [r7, #4]
  uint8_t  *pdata8bits;
  uint16_t *pdata16bits;

  /* Check that a Rx process is ongoing */
  if (huart->RxState == HAL_UART_STATE_BUSY_RX)
 8008034:	687b      	ldr	r3, [r7, #4]
 8008036:	f893 3042 	ldrb.w	r3, [r3, #66]	@ 0x42
 800803a:	b2db      	uxtb	r3, r3
 800803c:	2b22      	cmp	r3, #34	@ 0x22
 800803e:	f040 80ae 	bne.w	800819e <UART_Receive_IT+0x172>
  {
    if ((huart->Init.WordLength == UART_WORDLENGTH_9B) && (huart->Init.Parity == UART_PARITY_NONE))
 8008042:	687b      	ldr	r3, [r7, #4]
 8008044:	689b      	ldr	r3, [r3, #8]
 8008046:	f5b3 5f80 	cmp.w	r3, #4096	@ 0x1000
 800804a:	d117      	bne.n	800807c <UART_Receive_IT+0x50>
 800804c:	687b      	ldr	r3, [r7, #4]
 800804e:	691b      	ldr	r3, [r3, #16]
 8008050:	2b00      	cmp	r3, #0
 8008052:	d113      	bne.n	800807c <UART_Receive_IT+0x50>
    {
      pdata8bits  = NULL;
 8008054:	2300      	movs	r3, #0
 8008056:	62fb      	str	r3, [r7, #44]	@ 0x2c
      pdata16bits = (uint16_t *) huart->pRxBuffPtr;
 8008058:	687b      	ldr	r3, [r7, #4]
 800805a:	6a9b      	ldr	r3, [r3, #40]	@ 0x28
 800805c:	62bb      	str	r3, [r7, #40]	@ 0x28
      *pdata16bits = (uint16_t)(huart->Instance->DR & (uint16_t)0x01FF);
 800805e:	687b      	ldr	r3, [r7, #4]
 8008060:	681b      	ldr	r3, [r3, #0]
 8008062:	685b      	ldr	r3, [r3, #4]
 8008064:	b29b      	uxth	r3, r3
 8008066:	f3c3 0308 	ubfx	r3, r3, #0, #9
 800806a:	b29a      	uxth	r2, r3
 800806c:	6abb      	ldr	r3, [r7, #40]	@ 0x28
 800806e:	801a      	strh	r2, [r3, #0]
      huart->pRxBuffPtr += 2U;
 8008070:	687b      	ldr	r3, [r7, #4]
 8008072:	6a9b      	ldr	r3, [r3, #40]	@ 0x28
 8008074:	1c9a      	adds	r2, r3, #2
 8008076:	687b      	ldr	r3, [r7, #4]
 8008078:	629a      	str	r2, [r3, #40]	@ 0x28
 800807a:	e026      	b.n	80080ca <UART_Receive_IT+0x9e>
    }
    else
    {
      pdata8bits = (uint8_t *) huart->pRxBuffPtr;
 800807c:	687b      	ldr	r3, [r7, #4]
 800807e:	6a9b      	ldr	r3, [r3, #40]	@ 0x28
 8008080:	62fb      	str	r3, [r7, #44]	@ 0x2c
      pdata16bits  = NULL;
 8008082:	2300      	movs	r3, #0
 8008084:	62bb      	str	r3, [r7, #40]	@ 0x28

      if ((huart->Init.WordLength == UART_WORDLENGTH_9B) || ((huart->Init.WordLength == UART_WORDLENGTH_8B) && (huart->Init.Parity == UART_PARITY_NONE)))
 8008086:	687b      	ldr	r3, [r7, #4]
 8008088:	689b      	ldr	r3, [r3, #8]
 800808a:	f5b3 5f80 	cmp.w	r3, #4096	@ 0x1000
 800808e:	d007      	beq.n	80080a0 <UART_Receive_IT+0x74>
 8008090:	687b      	ldr	r3, [r7, #4]
 8008092:	689b      	ldr	r3, [r3, #8]
 8008094:	2b00      	cmp	r3, #0
 8008096:	d10a      	bne.n	80080ae <UART_Receive_IT+0x82>
 8008098:	687b      	ldr	r3, [r7, #4]
 800809a:	691b      	ldr	r3, [r3, #16]
 800809c:	2b00      	cmp	r3, #0
 800809e:	d106      	bne.n	80080ae <UART_Receive_IT+0x82>
      {
        *pdata8bits = (uint8_t)(huart->Instance->DR & (uint8_t)0x00FF);
 80080a0:	687b      	ldr	r3, [r7, #4]
 80080a2:	681b      	ldr	r3, [r3, #0]
 80080a4:	685b      	ldr	r3, [r3, #4]
 80080a6:	b2da      	uxtb	r2, r3
 80080a8:	6afb      	ldr	r3, [r7, #44]	@ 0x2c
 80080aa:	701a      	strb	r2, [r3, #0]
 80080ac:	e008      	b.n	80080c0 <UART_Receive_IT+0x94>
      }
      else
      {
        *pdata8bits = (uint8_t)(huart->Instance->DR & (uint8_t)0x007F);
 80080ae:	687b      	ldr	r3, [r7, #4]
 80080b0:	681b      	ldr	r3, [r3, #0]
 80080b2:	685b      	ldr	r3, [r3, #4]
 80080b4:	b2db      	uxtb	r3, r3
 80080b6:	f003 037f 	and.w	r3, r3, #127	@ 0x7f
 80080ba:	b2da      	uxtb	r2, r3
 80080bc:	6afb      	ldr	r3, [r7, #44]	@ 0x2c
 80080be:	701a      	strb	r2, [r3, #0]
      }
      huart->pRxBuffPtr += 1U;
 80080c0:	687b      	ldr	r3, [r7, #4]
 80080c2:	6a9b      	ldr	r3, [r3, #40]	@ 0x28
 80080c4:	1c5a      	adds	r2, r3, #1
 80080c6:	687b      	ldr	r3, [r7, #4]
 80080c8:	629a      	str	r2, [r3, #40]	@ 0x28
    }

    if (--huart->RxXferCount == 0U)
 80080ca:	687b      	ldr	r3, [r7, #4]
 80080cc:	8ddb      	ldrh	r3, [r3, #46]	@ 0x2e
 80080ce:	b29b      	uxth	r3, r3
 80080d0:	3b01      	subs	r3, #1
 80080d2:	b29b      	uxth	r3, r3
 80080d4:	687a      	ldr	r2, [r7, #4]
 80080d6:	4619      	mov	r1, r3
 80080d8:	85d1      	strh	r1, [r2, #46]	@ 0x2e
 80080da:	2b00      	cmp	r3, #0
 80080dc:	d15d      	bne.n	800819a <UART_Receive_IT+0x16e>
    {
      /* Disable the UART Data Register not empty Interrupt */
      __HAL_UART_DISABLE_IT(huart, UART_IT_RXNE);
 80080de:	687b      	ldr	r3, [r7, #4]
 80080e0:	681b      	ldr	r3, [r3, #0]
 80080e2:	68da      	ldr	r2, [r3, #12]
 80080e4:	687b      	ldr	r3, [r7, #4]
 80080e6:	681b      	ldr	r3, [r3, #0]
 80080e8:	f022 0220 	bic.w	r2, r2, #32
 80080ec:	60da      	str	r2, [r3, #12]

      /* Disable the UART Parity Error Interrupt */
      __HAL_UART_DISABLE_IT(huart, UART_IT_PE);
 80080ee:	687b      	ldr	r3, [r7, #4]
 80080f0:	681b      	ldr	r3, [r3, #0]
 80080f2:	68da      	ldr	r2, [r3, #12]
 80080f4:	687b      	ldr	r3, [r7, #4]
 80080f6:	681b      	ldr	r3, [r3, #0]
 80080f8:	f422 7280 	bic.w	r2, r2, #256	@ 0x100
 80080fc:	60da      	str	r2, [r3, #12]

      /* Disable the UART Error Interrupt: (Frame error, noise error, overrun error) */
      __HAL_UART_DISABLE_IT(huart, UART_IT_ERR);
 80080fe:	687b      	ldr	r3, [r7, #4]
 8008100:	681b      	ldr	r3, [r3, #0]
 8008102:	695a      	ldr	r2, [r3, #20]
 8008104:	687b      	ldr	r3, [r7, #4]
 8008106:	681b      	ldr	r3, [r3, #0]
 8008108:	f022 0201 	bic.w	r2, r2, #1
 800810c:	615a      	str	r2, [r3, #20]

      /* Rx process is completed, restore huart->RxState to Ready */
      huart->RxState = HAL_UART_STATE_READY;
 800810e:	687b      	ldr	r3, [r7, #4]
 8008110:	2220      	movs	r2, #32
 8008112:	f883 2042 	strb.w	r2, [r3, #66]	@ 0x42

      /* Initialize type of RxEvent to Transfer Complete */
      huart->RxEventType = HAL_UART_RXEVENT_TC;
 8008116:	687b      	ldr	r3, [r7, #4]
 8008118:	2200      	movs	r2, #0
 800811a:	635a      	str	r2, [r3, #52]	@ 0x34

      /* Check current reception Mode :
         If Reception till IDLE event has been selected : */
      if (huart->ReceptionType == HAL_UART_RECEPTION_TOIDLE)
 800811c:	687b      	ldr	r3, [r7, #4]
 800811e:	6b1b      	ldr	r3, [r3, #48]	@ 0x30
 8008120:	2b01      	cmp	r3, #1
 8008122:	d135      	bne.n	8008190 <UART_Receive_IT+0x164>
      {
        /* Set reception type to Standard */
        huart->ReceptionType = HAL_UART_RECEPTION_STANDARD;
 8008124:	687b      	ldr	r3, [r7, #4]
 8008126:	2200      	movs	r2, #0
 8008128:	631a      	str	r2, [r3, #48]	@ 0x30

        /* Disable IDLE interrupt */
        ATOMIC_CLEAR_BIT(huart->Instance->CR1, USART_CR1_IDLEIE);
 800812a:	687b      	ldr	r3, [r7, #4]
 800812c:	681b      	ldr	r3, [r3, #0]
 800812e:	330c      	adds	r3, #12
 8008130:	617b      	str	r3, [r7, #20]
   __ASM volatile ("ldrex %0, %1" : "=r" (result) : "Q" (*addr) );
 8008132:	697b      	ldr	r3, [r7, #20]
 8008134:	e853 3f00 	ldrex	r3, [r3]
 8008138:	613b      	str	r3, [r7, #16]
   return(result);
 800813a:	693b      	ldr	r3, [r7, #16]
 800813c:	f023 0310 	bic.w	r3, r3, #16
 8008140:	627b      	str	r3, [r7, #36]	@ 0x24
 8008142:	687b      	ldr	r3, [r7, #4]
 8008144:	681b      	ldr	r3, [r3, #0]
 8008146:	330c      	adds	r3, #12
 8008148:	6a7a      	ldr	r2, [r7, #36]	@ 0x24
 800814a:	623a      	str	r2, [r7, #32]
 800814c:	61fb      	str	r3, [r7, #28]
   __ASM volatile ("strex %0, %2, %1" : "=&r" (result), "=Q" (*addr) : "r" (value) );
 800814e:	69f9      	ldr	r1, [r7, #28]
 8008150:	6a3a      	ldr	r2, [r7, #32]
 8008152:	e841 2300 	strex	r3, r2, [r1]
 8008156:	61bb      	str	r3, [r7, #24]
   return(result);
 8008158:	69bb      	ldr	r3, [r7, #24]
 800815a:	2b00      	cmp	r3, #0
 800815c:	d1e5      	bne.n	800812a <UART_Receive_IT+0xfe>

        /* Check if IDLE flag is set */
        if (__HAL_UART_GET_FLAG(huart, UART_FLAG_IDLE))
 800815e:	687b      	ldr	r3, [r7, #4]
 8008160:	681b      	ldr	r3, [r3, #0]
 8008162:	681b      	ldr	r3, [r3, #0]
 8008164:	f003 0310 	and.w	r3, r3, #16
 8008168:	2b10      	cmp	r3, #16
 800816a:	d10a      	bne.n	8008182 <UART_Receive_IT+0x156>
        {
          /* Clear IDLE flag in ISR */
          __HAL_UART_CLEAR_IDLEFLAG(huart);
 800816c:	2300      	movs	r3, #0
 800816e:	60fb      	str	r3, [r7, #12]
 8008170:	687b      	ldr	r3, [r7, #4]
 8008172:	681b      	ldr	r3, [r3, #0]
 8008174:	681b      	ldr	r3, [r3, #0]
 8008176:	60fb      	str	r3, [r7, #12]
 8008178:	687b      	ldr	r3, [r7, #4]
 800817a:	681b      	ldr	r3, [r3, #0]
 800817c:	685b      	ldr	r3, [r3, #4]
 800817e:	60fb      	str	r3, [r7, #12]
 8008180:	68fb      	ldr	r3, [r7, #12]
#if (USE_HAL_UART_REGISTER_CALLBACKS == 1)
        /*Call registered Rx Event callback*/
        huart->RxEventCallback(huart, huart->RxXferSize);
#else
        /*Call legacy weak Rx Event callback*/
        HAL_UARTEx_RxEventCallback(huart, huart->RxXferSize);
 8008182:	687b      	ldr	r3, [r7, #4]
 8008184:	8d9b      	ldrh	r3, [r3, #44]	@ 0x2c
 8008186:	4619      	mov	r1, r3
 8008188:	6878      	ldr	r0, [r7, #4]
 800818a:	f7ff fdd1 	bl	8007d30 <HAL_UARTEx_RxEventCallback>
 800818e:	e002      	b.n	8008196 <UART_Receive_IT+0x16a>
#if (USE_HAL_UART_REGISTER_CALLBACKS == 1)
        /*Call registered Rx complete callback*/
        huart->RxCpltCallback(huart);
#else
        /*Call legacy weak Rx complete callback*/
        HAL_UART_RxCpltCallback(huart);
 8008190:	6878      	ldr	r0, [r7, #4]
 8008192:	f7fd f851 	bl	8005238 <HAL_UART_RxCpltCallback>
#endif /* USE_HAL_UART_REGISTER_CALLBACKS */
      }

      return HAL_OK;
 8008196:	2300      	movs	r3, #0
 8008198:	e002      	b.n	80081a0 <UART_Receive_IT+0x174>
    }
    return HAL_OK;
 800819a:	2300      	movs	r3, #0
 800819c:	e000      	b.n	80081a0 <UART_Receive_IT+0x174>
  }
  else
  {
    return HAL_BUSY;
 800819e:	2302      	movs	r3, #2
  }
}
 80081a0:	4618      	mov	r0, r3
 80081a2:	3730      	adds	r7, #48	@ 0x30
 80081a4:	46bd      	mov	sp, r7
 80081a6:	bd80      	pop	{r7, pc}

080081a8 <UART_SetConfig>:
  * @param  huart  Pointer to a UART_HandleTypeDef structure that contains
  *                the configuration information for the specified UART module.
  * @retval None
  */
static void UART_SetConfig(UART_HandleTypeDef *huart)
{
 80081a8:	e92d 4fb0 	stmdb	sp!, {r4, r5, r7, r8, r9, sl, fp, lr}
 80081ac:	b0c0      	sub	sp, #256	@ 0x100
 80081ae:	af00      	add	r7, sp, #0
 80081b0:	f8c7 00f4 	str.w	r0, [r7, #244]	@ 0xf4
  assert_param(IS_UART_MODE(huart->Init.Mode));

  /*-------------------------- USART CR2 Configuration -----------------------*/
  /* Configure the UART Stop Bits: Set STOP[13:12] bits
     according to huart->Init.StopBits value */
  MODIFY_REG(huart->Instance->CR2, USART_CR2_STOP, huart->Init.StopBits);
 80081b4:	f8d7 30f4 	ldr.w	r3, [r7, #244]	@ 0xf4
 80081b8:	681b      	ldr	r3, [r3, #0]
 80081ba:	691b      	ldr	r3, [r3, #16]
 80081bc:	f423 5040 	bic.w	r0, r3, #12288	@ 0x3000
 80081c0:	f8d7 30f4 	ldr.w	r3, [r7, #244]	@ 0xf4
 80081c4:	68d9      	ldr	r1, [r3, #12]
 80081c6:	f8d7 30f4 	ldr.w	r3, [r7, #244]	@ 0xf4
 80081ca:	681a      	ldr	r2, [r3, #0]
 80081cc:	ea40 0301 	orr.w	r3, r0, r1
 80081d0:	6113      	str	r3, [r2, #16]
     Set the M bits according to huart->Init.WordLength value
     Set PCE and PS bits according to huart->Init.Parity value
     Set TE and RE bits according to huart->Init.Mode value
     Set OVER8 bit according to huart->Init.OverSampling value */

  tmpreg = (uint32_t)huart->Init.WordLength | huart->Init.Parity | huart->Init.Mode | huart->Init.OverSampling;
 80081d2:	f8d7 30f4 	ldr.w	r3, [r7, #244]	@ 0xf4
 80081d6:	689a      	ldr	r2, [r3, #8]
 80081d8:	f8d7 30f4 	ldr.w	r3, [r7, #244]	@ 0xf4
 80081dc:	691b      	ldr	r3, [r3, #16]
 80081de:	431a      	orrs	r2, r3
 80081e0:	f8d7 30f4 	ldr.w	r3, [r7, #244]	@ 0xf4
 80081e4:	695b      	ldr	r3, [r3, #20]
 80081e6:	431a      	orrs	r2, r3
 80081e8:	f8d7 30f4 	ldr.w	r3, [r7, #244]	@ 0xf4
 80081ec:	69db      	ldr	r3, [r3, #28]
 80081ee:	4313      	orrs	r3, r2
 80081f0:	f8c7 30f8 	str.w	r3, [r7, #248]	@ 0xf8
  MODIFY_REG(huart->Instance->CR1,
 80081f4:	f8d7 30f4 	ldr.w	r3, [r7, #244]	@ 0xf4
 80081f8:	681b      	ldr	r3, [r3, #0]
 80081fa:	68db      	ldr	r3, [r3, #12]
 80081fc:	f423 4116 	bic.w	r1, r3, #38400	@ 0x9600
 8008200:	f021 010c 	bic.w	r1, r1, #12
 8008204:	f8d7 30f4 	ldr.w	r3, [r7, #244]	@ 0xf4
 8008208:	681a      	ldr	r2, [r3, #0]
 800820a:	f8d7 30f8 	ldr.w	r3, [r7, #248]	@ 0xf8
 800820e:	430b      	orrs	r3, r1
 8008210:	60d3      	str	r3, [r2, #12]
             (uint32_t)(USART_CR1_M | USART_CR1_PCE | USART_CR1_PS | USART_CR1_TE | USART_CR1_RE | USART_CR1_OVER8),
             tmpreg);

  /*-------------------------- USART CR3 Configuration -----------------------*/
  /* Configure the UART HFC: Set CTSE and RTSE bits according to huart->Init.HwFlowCtl value */
  MODIFY_REG(huart->Instance->CR3, (USART_CR3_RTSE | USART_CR3_CTSE), huart->Init.HwFlowCtl);
 8008212:	f8d7 30f4 	ldr.w	r3, [r7, #244]	@ 0xf4
 8008216:	681b      	ldr	r3, [r3, #0]
 8008218:	695b      	ldr	r3, [r3, #20]
 800821a:	f423 7040 	bic.w	r0, r3, #768	@ 0x300
 800821e:	f8d7 30f4 	ldr.w	r3, [r7, #244]	@ 0xf4
 8008222:	6999      	ldr	r1, [r3, #24]
 8008224:	f8d7 30f4 	ldr.w	r3, [r7, #244]	@ 0xf4
 8008228:	681a      	ldr	r2, [r3, #0]
 800822a:	ea40 0301 	orr.w	r3, r0, r1
 800822e:	6153      	str	r3, [r2, #20]
    if ((huart->Instance == USART1) || (huart->Instance == USART6) || (huart->Instance == UART9) || (huart->Instance == UART10))
    {
      pclk = HAL_RCC_GetPCLK2Freq();
    }
#elif defined(USART6)
    if ((huart->Instance == USART1) || (huart->Instance == USART6))
 8008230:	f8d7 30f4 	ldr.w	r3, [r7, #244]	@ 0xf4
 8008234:	681a      	ldr	r2, [r3, #0]
 8008236:	4b8f      	ldr	r3, [pc, #572]	@ (8008474 <UART_SetConfig+0x2cc>)
 8008238:	429a      	cmp	r2, r3
 800823a:	d005      	beq.n	8008248 <UART_SetConfig+0xa0>
 800823c:	f8d7 30f4 	ldr.w	r3, [r7, #244]	@ 0xf4
 8008240:	681a      	ldr	r2, [r3, #0]
 8008242:	4b8d      	ldr	r3, [pc, #564]	@ (8008478 <UART_SetConfig+0x2d0>)
 8008244:	429a      	cmp	r2, r3
 8008246:	d104      	bne.n	8008252 <UART_SetConfig+0xaa>
    {
      pclk = HAL_RCC_GetPCLK2Freq();
 8008248:	f7fe fd1e 	bl	8006c88 <HAL_RCC_GetPCLK2Freq>
 800824c:	f8c7 00fc 	str.w	r0, [r7, #252]	@ 0xfc
 8008250:	e003      	b.n	800825a <UART_SetConfig+0xb2>
      pclk = HAL_RCC_GetPCLK2Freq();
    }
#endif /* USART6 */
    else
    {
      pclk = HAL_RCC_GetPCLK1Freq();
 8008252:	f7fe fd05 	bl	8006c60 <HAL_RCC_GetPCLK1Freq>
 8008256:	f8c7 00fc 	str.w	r0, [r7, #252]	@ 0xfc
    }
  /*-------------------------- USART BRR Configuration ---------------------*/
  if (huart->Init.OverSampling == UART_OVERSAMPLING_8)
 800825a:	f8d7 30f4 	ldr.w	r3, [r7, #244]	@ 0xf4
 800825e:	69db      	ldr	r3, [r3, #28]
 8008260:	f5b3 4f00 	cmp.w	r3, #32768	@ 0x8000
 8008264:	f040 810c 	bne.w	8008480 <UART_SetConfig+0x2d8>
  {
    huart->Instance->BRR = UART_BRR_SAMPLING8(pclk, huart->Init.BaudRate);
 8008268:	f8d7 30fc 	ldr.w	r3, [r7, #252]	@ 0xfc
 800826c:	2200      	movs	r2, #0
 800826e:	f8c7 30e8 	str.w	r3, [r7, #232]	@ 0xe8
 8008272:	f8c7 20ec 	str.w	r2, [r7, #236]	@ 0xec
 8008276:	e9d7 453a 	ldrd	r4, r5, [r7, #232]	@ 0xe8
 800827a:	4622      	mov	r2, r4
 800827c:	462b      	mov	r3, r5
 800827e:	1891      	adds	r1, r2, r2
 8008280:	65b9      	str	r1, [r7, #88]	@ 0x58
 8008282:	415b      	adcs	r3, r3
 8008284:	65fb      	str	r3, [r7, #92]	@ 0x5c
 8008286:	e9d7 2316 	ldrd	r2, r3, [r7, #88]	@ 0x58
 800828a:	4621      	mov	r1, r4
 800828c:	eb12 0801 	adds.w	r8, r2, r1
 8008290:	4629      	mov	r1, r5
 8008292:	eb43 0901 	adc.w	r9, r3, r1
 8008296:	f04f 0200 	mov.w	r2, #0
 800829a:	f04f 0300 	mov.w	r3, #0
 800829e:	ea4f 03c9 	mov.w	r3, r9, lsl #3
 80082a2:	ea43 7358 	orr.w	r3, r3, r8, lsr #29
 80082a6:	ea4f 02c8 	mov.w	r2, r8, lsl #3
 80082aa:	4690      	mov	r8, r2
 80082ac:	4699      	mov	r9, r3
 80082ae:	4623      	mov	r3, r4
 80082b0:	eb18 0303 	adds.w	r3, r8, r3
 80082b4:	f8c7 30e0 	str.w	r3, [r7, #224]	@ 0xe0
 80082b8:	462b      	mov	r3, r5
 80082ba:	eb49 0303 	adc.w	r3, r9, r3
 80082be:	f8c7 30e4 	str.w	r3, [r7, #228]	@ 0xe4
 80082c2:	f8d7 30f4 	ldr.w	r3, [r7, #244]	@ 0xf4
 80082c6:	685b      	ldr	r3, [r3, #4]
 80082c8:	2200      	movs	r2, #0
 80082ca:	f8c7 30d8 	str.w	r3, [r7, #216]	@ 0xd8
 80082ce:	f8c7 20dc 	str.w	r2, [r7, #220]	@ 0xdc
 80082d2:	e9d7 1236 	ldrd	r1, r2, [r7, #216]	@ 0xd8
 80082d6:	460b      	mov	r3, r1
 80082d8:	18db      	adds	r3, r3, r3
 80082da:	653b      	str	r3, [r7, #80]	@ 0x50
 80082dc:	4613      	mov	r3, r2
 80082de:	eb42 0303 	adc.w	r3, r2, r3
 80082e2:	657b      	str	r3, [r7, #84]	@ 0x54
 80082e4:	e9d7 2314 	ldrd	r2, r3, [r7, #80]	@ 0x50
 80082e8:	e9d7 0138 	ldrd	r0, r1, [r7, #224]	@ 0xe0
 80082ec:	f7f8 fc76 	bl	8000bdc <__aeabi_uldivmod>
 80082f0:	4602      	mov	r2, r0
 80082f2:	460b      	mov	r3, r1
 80082f4:	4b61      	ldr	r3, [pc, #388]	@ (800847c <UART_SetConfig+0x2d4>)
 80082f6:	fba3 2302 	umull	r2, r3, r3, r2
 80082fa:	095b      	lsrs	r3, r3, #5
 80082fc:	011c      	lsls	r4, r3, #4
 80082fe:	f8d7 30fc 	ldr.w	r3, [r7, #252]	@ 0xfc
 8008302:	2200      	movs	r2, #0
 8008304:	f8c7 30d0 	str.w	r3, [r7, #208]	@ 0xd0
 8008308:	f8c7 20d4 	str.w	r2, [r7, #212]	@ 0xd4
 800830c:	e9d7 8934 	ldrd	r8, r9, [r7, #208]	@ 0xd0
 8008310:	4642      	mov	r2, r8
 8008312:	464b      	mov	r3, r9
 8008314:	1891      	adds	r1, r2, r2
 8008316:	64b9      	str	r1, [r7, #72]	@ 0x48
 8008318:	415b      	adcs	r3, r3
 800831a:	64fb      	str	r3, [r7, #76]	@ 0x4c
 800831c:	e9d7 2312 	ldrd	r2, r3, [r7, #72]	@ 0x48
 8008320:	4641      	mov	r1, r8
 8008322:	eb12 0a01 	adds.w	sl, r2, r1
 8008326:	4649      	mov	r1, r9
 8008328:	eb43 0b01 	adc.w	fp, r3, r1
 800832c:	f04f 0200 	mov.w	r2, #0
 8008330:	f04f 0300 	mov.w	r3, #0
 8008334:	ea4f 03cb 	mov.w	r3, fp, lsl #3
 8008338:	ea43 735a 	orr.w	r3, r3, sl, lsr #29
 800833c:	ea4f 02ca 	mov.w	r2, sl, lsl #3
 8008340:	4692      	mov	sl, r2
 8008342:	469b      	mov	fp, r3
 8008344:	4643      	mov	r3, r8
 8008346:	eb1a 0303 	adds.w	r3, sl, r3
 800834a:	f8c7 30c8 	str.w	r3, [r7, #200]	@ 0xc8
 800834e:	464b      	mov	r3, r9
 8008350:	eb4b 0303 	adc.w	r3, fp, r3
 8008354:	f8c7 30cc 	str.w	r3, [r7, #204]	@ 0xcc
 8008358:	f8d7 30f4 	ldr.w	r3, [r7, #244]	@ 0xf4
 800835c:	685b      	ldr	r3, [r3, #4]
 800835e:	2200      	movs	r2, #0
 8008360:	f8c7 30c0 	str.w	r3, [r7, #192]	@ 0xc0
 8008364:	f8c7 20c4 	str.w	r2, [r7, #196]	@ 0xc4
 8008368:	e9d7 1230 	ldrd	r1, r2, [r7, #192]	@ 0xc0
 800836c:	460b      	mov	r3, r1
 800836e:	18db      	adds	r3, r3, r3
 8008370:	643b      	str	r3, [r7, #64]	@ 0x40
 8008372:	4613      	mov	r3, r2
 8008374:	eb42 0303 	adc.w	r3, r2, r3
 8008378:	647b      	str	r3, [r7, #68]	@ 0x44
 800837a:	e9d7 2310 	ldrd	r2, r3, [r7, #64]	@ 0x40
 800837e:	e9d7 0132 	ldrd	r0, r1, [r7, #200]	@ 0xc8
 8008382:	f7f8 fc2b 	bl	8000bdc <__aeabi_uldivmod>
 8008386:	4602      	mov	r2, r0
 8008388:	460b      	mov	r3, r1
 800838a:	4611      	mov	r1, r2
 800838c:	4b3b      	ldr	r3, [pc, #236]	@ (800847c <UART_SetConfig+0x2d4>)
 800838e:	fba3 2301 	umull	r2, r3, r3, r1
 8008392:	095b      	lsrs	r3, r3, #5
 8008394:	2264      	movs	r2, #100	@ 0x64
 8008396:	fb02 f303 	mul.w	r3, r2, r3
 800839a:	1acb      	subs	r3, r1, r3
 800839c:	00db      	lsls	r3, r3, #3
 800839e:	f103 0232 	add.w	r2, r3, #50	@ 0x32
 80083a2:	4b36      	ldr	r3, [pc, #216]	@ (800847c <UART_SetConfig+0x2d4>)
 80083a4:	fba3 2302 	umull	r2, r3, r3, r2
 80083a8:	095b      	lsrs	r3, r3, #5
 80083aa:	005b      	lsls	r3, r3, #1
 80083ac:	f403 73f8 	and.w	r3, r3, #496	@ 0x1f0
 80083b0:	441c      	add	r4, r3
 80083b2:	f8d7 30fc 	ldr.w	r3, [r7, #252]	@ 0xfc
 80083b6:	2200      	movs	r2, #0
 80083b8:	f8c7 30b8 	str.w	r3, [r7, #184]	@ 0xb8
 80083bc:	f8c7 20bc 	str.w	r2, [r7, #188]	@ 0xbc
 80083c0:	e9d7 892e 	ldrd	r8, r9, [r7, #184]	@ 0xb8
 80083c4:	4642      	mov	r2, r8
 80083c6:	464b      	mov	r3, r9
 80083c8:	1891      	adds	r1, r2, r2
 80083ca:	63b9      	str	r1, [r7, #56]	@ 0x38
 80083cc:	415b      	adcs	r3, r3
 80083ce:	63fb      	str	r3, [r7, #60]	@ 0x3c
 80083d0:	e9d7 230e 	ldrd	r2, r3, [r7, #56]	@ 0x38
 80083d4:	4641      	mov	r1, r8
 80083d6:	1851      	adds	r1, r2, r1
 80083d8:	6339      	str	r1, [r7, #48]	@ 0x30
 80083da:	4649      	mov	r1, r9
 80083dc:	414b      	adcs	r3, r1
 80083de:	637b      	str	r3, [r7, #52]	@ 0x34
 80083e0:	f04f 0200 	mov.w	r2, #0
 80083e4:	f04f 0300 	mov.w	r3, #0
 80083e8:	e9d7 ab0c 	ldrd	sl, fp, [r7, #48]	@ 0x30
 80083ec:	4659      	mov	r1, fp
 80083ee:	00cb      	lsls	r3, r1, #3
 80083f0:	4651      	mov	r1, sl
 80083f2:	ea43 7351 	orr.w	r3, r3, r1, lsr #29
 80083f6:	4651      	mov	r1, sl
 80083f8:	00ca      	lsls	r2, r1, #3
 80083fa:	4610      	mov	r0, r2
 80083fc:	4619      	mov	r1, r3
 80083fe:	4603      	mov	r3, r0
 8008400:	4642      	mov	r2, r8
 8008402:	189b      	adds	r3, r3, r2
 8008404:	f8c7 30b0 	str.w	r3, [r7, #176]	@ 0xb0
 8008408:	464b      	mov	r3, r9
 800840a:	460a      	mov	r2, r1
 800840c:	eb42 0303 	adc.w	r3, r2, r3
 8008410:	f8c7 30b4 	str.w	r3, [r7, #180]	@ 0xb4
 8008414:	f8d7 30f4 	ldr.w	r3, [r7, #244]	@ 0xf4
 8008418:	685b      	ldr	r3, [r3, #4]
 800841a:	2200      	movs	r2, #0
 800841c:	f8c7 30a8 	str.w	r3, [r7, #168]	@ 0xa8
 8008420:	f8c7 20ac 	str.w	r2, [r7, #172]	@ 0xac
 8008424:	e9d7 122a 	ldrd	r1, r2, [r7, #168]	@ 0xa8
 8008428:	460b      	mov	r3, r1
 800842a:	18db      	adds	r3, r3, r3
 800842c:	62bb      	str	r3, [r7, #40]	@ 0x28
 800842e:	4613      	mov	r3, r2
 8008430:	eb42 0303 	adc.w	r3, r2, r3
 8008434:	62fb      	str	r3, [r7, #44]	@ 0x2c
 8008436:	e9d7 230a 	ldrd	r2, r3, [r7, #40]	@ 0x28
 800843a:	e9d7 012c 	ldrd	r0, r1, [r7, #176]	@ 0xb0
 800843e:	f7f8 fbcd 	bl	8000bdc <__aeabi_uldivmod>
 8008442:	4602      	mov	r2, r0
 8008444:	460b      	mov	r3, r1
 8008446:	4b0d      	ldr	r3, [pc, #52]	@ (800847c <UART_SetConfig+0x2d4>)
 8008448:	fba3 1302 	umull	r1, r3, r3, r2
 800844c:	095b      	lsrs	r3, r3, #5
 800844e:	2164      	movs	r1, #100	@ 0x64
 8008450:	fb01 f303 	mul.w	r3, r1, r3
 8008454:	1ad3      	subs	r3, r2, r3
 8008456:	00db      	lsls	r3, r3, #3
 8008458:	3332      	adds	r3, #50	@ 0x32
 800845a:	4a08      	ldr	r2, [pc, #32]	@ (800847c <UART_SetConfig+0x2d4>)
 800845c:	fba2 2303 	umull	r2, r3, r2, r3
 8008460:	095b      	lsrs	r3, r3, #5
 8008462:	f003 0207 	and.w	r2, r3, #7
 8008466:	f8d7 30f4 	ldr.w	r3, [r7, #244]	@ 0xf4
 800846a:	681b      	ldr	r3, [r3, #0]
 800846c:	4422      	add	r2, r4
 800846e:	609a      	str	r2, [r3, #8]
  }
  else
  {
    huart->Instance->BRR = UART_BRR_SAMPLING16(pclk, huart->Init.BaudRate);
  }
}
 8008470:	e106      	b.n	8008680 <UART_SetConfig+0x4d8>
 8008472:	bf00      	nop
 8008474:	40011000 	.word	0x40011000
 8008478:	40011400 	.word	0x40011400
 800847c:	51eb851f 	.word	0x51eb851f
    huart->Instance->BRR = UART_BRR_SAMPLING16(pclk, huart->Init.BaudRate);
 8008480:	f8d7 30fc 	ldr.w	r3, [r7, #252]	@ 0xfc
 8008484:	2200      	movs	r2, #0
 8008486:	f8c7 30a0 	str.w	r3, [r7, #160]	@ 0xa0
 800848a:	f8c7 20a4 	str.w	r2, [r7, #164]	@ 0xa4
 800848e:	e9d7 8928 	ldrd	r8, r9, [r7, #160]	@ 0xa0
 8008492:	4642      	mov	r2, r8
 8008494:	464b      	mov	r3, r9
 8008496:	1891      	adds	r1, r2, r2
 8008498:	6239      	str	r1, [r7, #32]
 800849a:	415b      	adcs	r3, r3
 800849c:	627b      	str	r3, [r7, #36]	@ 0x24
 800849e:	e9d7 2308 	ldrd	r2, r3, [r7, #32]
 80084a2:	4641      	mov	r1, r8
 80084a4:	1854      	adds	r4, r2, r1
 80084a6:	4649      	mov	r1, r9
 80084a8:	eb43 0501 	adc.w	r5, r3, r1
 80084ac:	f04f 0200 	mov.w	r2, #0
 80084b0:	f04f 0300 	mov.w	r3, #0
 80084b4:	00eb      	lsls	r3, r5, #3
 80084b6:	ea43 7354 	orr.w	r3, r3, r4, lsr #29
 80084ba:	00e2      	lsls	r2, r4, #3
 80084bc:	4614      	mov	r4, r2
 80084be:	461d      	mov	r5, r3
 80084c0:	4643      	mov	r3, r8
 80084c2:	18e3      	adds	r3, r4, r3
 80084c4:	f8c7 3098 	str.w	r3, [r7, #152]	@ 0x98
 80084c8:	464b      	mov	r3, r9
 80084ca:	eb45 0303 	adc.w	r3, r5, r3
 80084ce:	f8c7 309c 	str.w	r3, [r7, #156]	@ 0x9c
 80084d2:	f8d7 30f4 	ldr.w	r3, [r7, #244]	@ 0xf4
 80084d6:	685b      	ldr	r3, [r3, #4]
 80084d8:	2200      	movs	r2, #0
 80084da:	f8c7 3090 	str.w	r3, [r7, #144]	@ 0x90
 80084de:	f8c7 2094 	str.w	r2, [r7, #148]	@ 0x94
 80084e2:	f04f 0200 	mov.w	r2, #0
 80084e6:	f04f 0300 	mov.w	r3, #0
 80084ea:	e9d7 4524 	ldrd	r4, r5, [r7, #144]	@ 0x90
 80084ee:	4629      	mov	r1, r5
 80084f0:	008b      	lsls	r3, r1, #2
 80084f2:	4621      	mov	r1, r4
 80084f4:	ea43 7391 	orr.w	r3, r3, r1, lsr #30
 80084f8:	4621      	mov	r1, r4
 80084fa:	008a      	lsls	r2, r1, #2
 80084fc:	e9d7 0126 	ldrd	r0, r1, [r7, #152]	@ 0x98
 8008500:	f7f8 fb6c 	bl	8000bdc <__aeabi_uldivmod>
 8008504:	4602      	mov	r2, r0
 8008506:	460b      	mov	r3, r1
 8008508:	4b60      	ldr	r3, [pc, #384]	@ (800868c <UART_SetConfig+0x4e4>)
 800850a:	fba3 2302 	umull	r2, r3, r3, r2
 800850e:	095b      	lsrs	r3, r3, #5
 8008510:	011c      	lsls	r4, r3, #4
 8008512:	f8d7 30fc 	ldr.w	r3, [r7, #252]	@ 0xfc
 8008516:	2200      	movs	r2, #0
 8008518:	f8c7 3088 	str.w	r3, [r7, #136]	@ 0x88
 800851c:	f8c7 208c 	str.w	r2, [r7, #140]	@ 0x8c
 8008520:	e9d7 8922 	ldrd	r8, r9, [r7, #136]	@ 0x88
 8008524:	4642      	mov	r2, r8
 8008526:	464b      	mov	r3, r9
 8008528:	1891      	adds	r1, r2, r2
 800852a:	61b9      	str	r1, [r7, #24]
 800852c:	415b      	adcs	r3, r3
 800852e:	61fb      	str	r3, [r7, #28]
 8008530:	e9d7 2306 	ldrd	r2, r3, [r7, #24]
 8008534:	4641      	mov	r1, r8
 8008536:	1851      	adds	r1, r2, r1
 8008538:	6139      	str	r1, [r7, #16]
 800853a:	4649      	mov	r1, r9
 800853c:	414b      	adcs	r3, r1
 800853e:	617b      	str	r3, [r7, #20]
 8008540:	f04f 0200 	mov.w	r2, #0
 8008544:	f04f 0300 	mov.w	r3, #0
 8008548:	e9d7 ab04 	ldrd	sl, fp, [r7, #16]
 800854c:	4659      	mov	r1, fp
 800854e:	00cb      	lsls	r3, r1, #3
 8008550:	4651      	mov	r1, sl
 8008552:	ea43 7351 	orr.w	r3, r3, r1, lsr #29
 8008556:	4651      	mov	r1, sl
 8008558:	00ca      	lsls	r2, r1, #3
 800855a:	4610      	mov	r0, r2
 800855c:	4619      	mov	r1, r3
 800855e:	4603      	mov	r3, r0
 8008560:	4642      	mov	r2, r8
 8008562:	189b      	adds	r3, r3, r2
 8008564:	f8c7 3080 	str.w	r3, [r7, #128]	@ 0x80
 8008568:	464b      	mov	r3, r9
 800856a:	460a      	mov	r2, r1
 800856c:	eb42 0303 	adc.w	r3, r2, r3
 8008570:	f8c7 3084 	str.w	r3, [r7, #132]	@ 0x84
 8008574:	f8d7 30f4 	ldr.w	r3, [r7, #244]	@ 0xf4
 8008578:	685b      	ldr	r3, [r3, #4]
 800857a:	2200      	movs	r2, #0
 800857c:	67bb      	str	r3, [r7, #120]	@ 0x78
 800857e:	67fa      	str	r2, [r7, #124]	@ 0x7c
 8008580:	f04f 0200 	mov.w	r2, #0
 8008584:	f04f 0300 	mov.w	r3, #0
 8008588:	e9d7 891e 	ldrd	r8, r9, [r7, #120]	@ 0x78
 800858c:	4649      	mov	r1, r9
 800858e:	008b      	lsls	r3, r1, #2
 8008590:	4641      	mov	r1, r8
 8008592:	ea43 7391 	orr.w	r3, r3, r1, lsr #30
 8008596:	4641      	mov	r1, r8
 8008598:	008a      	lsls	r2, r1, #2
 800859a:	e9d7 0120 	ldrd	r0, r1, [r7, #128]	@ 0x80
 800859e:	f7f8 fb1d 	bl	8000bdc <__aeabi_uldivmod>
 80085a2:	4602      	mov	r2, r0
 80085a4:	460b      	mov	r3, r1
 80085a6:	4611      	mov	r1, r2
 80085a8:	4b38      	ldr	r3, [pc, #224]	@ (800868c <UART_SetConfig+0x4e4>)
 80085aa:	fba3 2301 	umull	r2, r3, r3, r1
 80085ae:	095b      	lsrs	r3, r3, #5
 80085b0:	2264      	movs	r2, #100	@ 0x64
 80085b2:	fb02 f303 	mul.w	r3, r2, r3
 80085b6:	1acb      	subs	r3, r1, r3
 80085b8:	011b      	lsls	r3, r3, #4
 80085ba:	3332      	adds	r3, #50	@ 0x32
 80085bc:	4a33      	ldr	r2, [pc, #204]	@ (800868c <UART_SetConfig+0x4e4>)
 80085be:	fba2 2303 	umull	r2, r3, r2, r3
 80085c2:	095b      	lsrs	r3, r3, #5
 80085c4:	f003 03f0 	and.w	r3, r3, #240	@ 0xf0
 80085c8:	441c      	add	r4, r3
 80085ca:	f8d7 30fc 	ldr.w	r3, [r7, #252]	@ 0xfc
 80085ce:	2200      	movs	r2, #0
 80085d0:	673b      	str	r3, [r7, #112]	@ 0x70
 80085d2:	677a      	str	r2, [r7, #116]	@ 0x74
 80085d4:	e9d7 891c 	ldrd	r8, r9, [r7, #112]	@ 0x70
 80085d8:	4642      	mov	r2, r8
 80085da:	464b      	mov	r3, r9
 80085dc:	1891      	adds	r1, r2, r2
 80085de:	60b9      	str	r1, [r7, #8]
 80085e0:	415b      	adcs	r3, r3
 80085e2:	60fb      	str	r3, [r7, #12]
 80085e4:	e9d7 2302 	ldrd	r2, r3, [r7, #8]
 80085e8:	4641      	mov	r1, r8
 80085ea:	1851      	adds	r1, r2, r1
 80085ec:	6039      	str	r1, [r7, #0]
 80085ee:	4649      	mov	r1, r9
 80085f0:	414b      	adcs	r3, r1
 80085f2:	607b      	str	r3, [r7, #4]
 80085f4:	f04f 0200 	mov.w	r2, #0
 80085f8:	f04f 0300 	mov.w	r3, #0
 80085fc:	e9d7 ab00 	ldrd	sl, fp, [r7]
 8008600:	4659      	mov	r1, fp
 8008602:	00cb      	lsls	r3, r1, #3
 8008604:	4651      	mov	r1, sl
 8008606:	ea43 7351 	orr.w	r3, r3, r1, lsr #29
 800860a:	4651      	mov	r1, sl
 800860c:	00ca      	lsls	r2, r1, #3
 800860e:	4610      	mov	r0, r2
 8008610:	4619      	mov	r1, r3
 8008612:	4603      	mov	r3, r0
 8008614:	4642      	mov	r2, r8
 8008616:	189b      	adds	r3, r3, r2
 8008618:	66bb      	str	r3, [r7, #104]	@ 0x68
 800861a:	464b      	mov	r3, r9
 800861c:	460a      	mov	r2, r1
 800861e:	eb42 0303 	adc.w	r3, r2, r3
 8008622:	66fb      	str	r3, [r7, #108]	@ 0x6c
 8008624:	f8d7 30f4 	ldr.w	r3, [r7, #244]	@ 0xf4
 8008628:	685b      	ldr	r3, [r3, #4]
 800862a:	2200      	movs	r2, #0
 800862c:	663b      	str	r3, [r7, #96]	@ 0x60
 800862e:	667a      	str	r2, [r7, #100]	@ 0x64
 8008630:	f04f 0200 	mov.w	r2, #0
 8008634:	f04f 0300 	mov.w	r3, #0
 8008638:	e9d7 8918 	ldrd	r8, r9, [r7, #96]	@ 0x60
 800863c:	4649      	mov	r1, r9
 800863e:	008b      	lsls	r3, r1, #2
 8008640:	4641      	mov	r1, r8
 8008642:	ea43 7391 	orr.w	r3, r3, r1, lsr #30
 8008646:	4641      	mov	r1, r8
 8008648:	008a      	lsls	r2, r1, #2
 800864a:	e9d7 011a 	ldrd	r0, r1, [r7, #104]	@ 0x68
 800864e:	f7f8 fac5 	bl	8000bdc <__aeabi_uldivmod>
 8008652:	4602      	mov	r2, r0
 8008654:	460b      	mov	r3, r1
 8008656:	4b0d      	ldr	r3, [pc, #52]	@ (800868c <UART_SetConfig+0x4e4>)
 8008658:	fba3 1302 	umull	r1, r3, r3, r2
 800865c:	095b      	lsrs	r3, r3, #5
 800865e:	2164      	movs	r1, #100	@ 0x64
 8008660:	fb01 f303 	mul.w	r3, r1, r3
 8008664:	1ad3      	subs	r3, r2, r3
 8008666:	011b      	lsls	r3, r3, #4
 8008668:	3332      	adds	r3, #50	@ 0x32
 800866a:	4a08      	ldr	r2, [pc, #32]	@ (800868c <UART_SetConfig+0x4e4>)
 800866c:	fba2 2303 	umull	r2, r3, r2, r3
 8008670:	095b      	lsrs	r3, r3, #5
 8008672:	f003 020f 	and.w	r2, r3, #15
 8008676:	f8d7 30f4 	ldr.w	r3, [r7, #244]	@ 0xf4
 800867a:	681b      	ldr	r3, [r3, #0]
 800867c:	4422      	add	r2, r4
 800867e:	609a      	str	r2, [r3, #8]
}
 8008680:	bf00      	nop
 8008682:	f507 7780 	add.w	r7, r7, #256	@ 0x100
 8008686:	46bd      	mov	sp, r7
 8008688:	e8bd 8fb0 	ldmia.w	sp!, {r4, r5, r7, r8, r9, sl, fp, pc}
 800868c:	51eb851f 	.word	0x51eb851f

08008690 <FSMC_NORSRAM_Init>:
  * @param  Init Pointer to NORSRAM Initialization structure
  * @retval HAL status
  */
HAL_StatusTypeDef  FSMC_NORSRAM_Init(FSMC_NORSRAM_TypeDef *Device,
                                    FSMC_NORSRAM_InitTypeDef *Init)
{
 8008690:	b480      	push	{r7}
 8008692:	b087      	sub	sp, #28
 8008694:	af00      	add	r7, sp, #0
 8008696:	6078      	str	r0, [r7, #4]
 8008698:	6039      	str	r1, [r7, #0]
  assert_param(IS_FSMC_WRITE_FIFO(Init->WriteFifo));
#endif /* FSMC_BCR1_WFDIS */
  assert_param(IS_FSMC_PAGESIZE(Init->PageSize));

  /* Disable NORSRAM Device */
  __FSMC_NORSRAM_DISABLE(Device, Init->NSBank);
 800869a:	683b      	ldr	r3, [r7, #0]
 800869c:	681a      	ldr	r2, [r3, #0]
 800869e:	687b      	ldr	r3, [r7, #4]
 80086a0:	f853 3022 	ldr.w	r3, [r3, r2, lsl #2]
 80086a4:	683a      	ldr	r2, [r7, #0]
 80086a6:	6812      	ldr	r2, [r2, #0]
 80086a8:	f023 0101 	bic.w	r1, r3, #1
 80086ac:	687b      	ldr	r3, [r7, #4]
 80086ae:	f843 1022 	str.w	r1, [r3, r2, lsl #2]

  /* Set NORSRAM device control parameters */
  if (Init->MemoryType == FSMC_MEMORY_TYPE_NOR)
 80086b2:	683b      	ldr	r3, [r7, #0]
 80086b4:	689b      	ldr	r3, [r3, #8]
 80086b6:	2b08      	cmp	r3, #8
 80086b8:	d102      	bne.n	80086c0 <FSMC_NORSRAM_Init+0x30>
  {
    flashaccess = FSMC_NORSRAM_FLASH_ACCESS_ENABLE;
 80086ba:	2340      	movs	r3, #64	@ 0x40
 80086bc:	617b      	str	r3, [r7, #20]
 80086be:	e001      	b.n	80086c4 <FSMC_NORSRAM_Init+0x34>
  }
  else
  {
    flashaccess = FSMC_NORSRAM_FLASH_ACCESS_DISABLE;
 80086c0:	2300      	movs	r3, #0
 80086c2:	617b      	str	r3, [r7, #20]
  }

  btcr_reg = (flashaccess                   | \
              Init->DataAddressMux          | \
 80086c4:	683b      	ldr	r3, [r7, #0]
 80086c6:	685a      	ldr	r2, [r3, #4]
  btcr_reg = (flashaccess                   | \
 80086c8:	697b      	ldr	r3, [r7, #20]
 80086ca:	431a      	orrs	r2, r3
              Init->MemoryType              | \
 80086cc:	683b      	ldr	r3, [r7, #0]
 80086ce:	689b      	ldr	r3, [r3, #8]
              Init->DataAddressMux          | \
 80086d0:	431a      	orrs	r2, r3
              Init->MemoryDataWidth         | \
 80086d2:	683b      	ldr	r3, [r7, #0]
 80086d4:	68db      	ldr	r3, [r3, #12]
              Init->MemoryType              | \
 80086d6:	431a      	orrs	r2, r3
              Init->BurstAccessMode         | \
 80086d8:	683b      	ldr	r3, [r7, #0]
 80086da:	691b      	ldr	r3, [r3, #16]
              Init->MemoryDataWidth         | \
 80086dc:	431a      	orrs	r2, r3
              Init->WaitSignalPolarity      | \
 80086de:	683b      	ldr	r3, [r7, #0]
 80086e0:	695b      	ldr	r3, [r3, #20]
              Init->BurstAccessMode         | \
 80086e2:	431a      	orrs	r2, r3
              Init->WaitSignalActive        | \
 80086e4:	683b      	ldr	r3, [r7, #0]
 80086e6:	69db      	ldr	r3, [r3, #28]
              Init->WaitSignalPolarity      | \
 80086e8:	431a      	orrs	r2, r3
              Init->WriteOperation          | \
 80086ea:	683b      	ldr	r3, [r7, #0]
 80086ec:	6a1b      	ldr	r3, [r3, #32]
              Init->WaitSignalActive        | \
 80086ee:	431a      	orrs	r2, r3
              Init->WaitSignal              | \
 80086f0:	683b      	ldr	r3, [r7, #0]
 80086f2:	6a5b      	ldr	r3, [r3, #36]	@ 0x24
              Init->WriteOperation          | \
 80086f4:	431a      	orrs	r2, r3
              Init->ExtendedMode            | \
 80086f6:	683b      	ldr	r3, [r7, #0]
 80086f8:	6a9b      	ldr	r3, [r3, #40]	@ 0x28
              Init->WaitSignal              | \
 80086fa:	431a      	orrs	r2, r3
              Init->AsynchronousWait        | \
 80086fc:	683b      	ldr	r3, [r7, #0]
 80086fe:	6adb      	ldr	r3, [r3, #44]	@ 0x2c
              Init->ExtendedMode            | \
 8008700:	431a      	orrs	r2, r3
              Init->WriteBurst);
 8008702:	683b      	ldr	r3, [r7, #0]
 8008704:	6b1b      	ldr	r3, [r3, #48]	@ 0x30
  btcr_reg = (flashaccess                   | \
 8008706:	4313      	orrs	r3, r2
 8008708:	613b      	str	r3, [r7, #16]

#if defined(FSMC_BCR1_WRAPMOD)
  btcr_reg |= Init->WrapMode;
 800870a:	683b      	ldr	r3, [r7, #0]
 800870c:	699b      	ldr	r3, [r3, #24]
 800870e:	693a      	ldr	r2, [r7, #16]
 8008710:	4313      	orrs	r3, r2
 8008712:	613b      	str	r3, [r7, #16]
  btcr_reg |= Init->ContinuousClock;
#endif /* FSMC_BCR1_CCLKEN */
#if defined(FSMC_BCR1_WFDIS)
  btcr_reg |= Init->WriteFifo;
#endif /* FSMC_BCR1_WFDIS */
  btcr_reg |= Init->PageSize;
 8008714:	683b      	ldr	r3, [r7, #0]
 8008716:	6bdb      	ldr	r3, [r3, #60]	@ 0x3c
 8008718:	693a      	ldr	r2, [r7, #16]
 800871a:	4313      	orrs	r3, r2
 800871c:	613b      	str	r3, [r7, #16]

  mask = (FSMC_BCR1_MBKEN                |
 800871e:	4b10      	ldr	r3, [pc, #64]	@ (8008760 <FSMC_NORSRAM_Init+0xd0>)
 8008720:	60fb      	str	r3, [r7, #12]
          FSMC_BCR1_EXTMOD               |
          FSMC_BCR1_ASYNCWAIT            |
          FSMC_BCR1_CBURSTRW);

#if defined(FSMC_BCR1_WRAPMOD)
  mask |= FSMC_BCR1_WRAPMOD;
 8008722:	68fb      	ldr	r3, [r7, #12]
 8008724:	f443 6380 	orr.w	r3, r3, #1024	@ 0x400
 8008728:	60fb      	str	r3, [r7, #12]
  mask |= FSMC_BCR1_CCLKEN;
#endif
#if defined(FSMC_BCR1_WFDIS)
  mask |= FSMC_BCR1_WFDIS;
#endif /* FSMC_BCR1_WFDIS */
  mask |= FSMC_BCR1_CPSIZE;
 800872a:	68fb      	ldr	r3, [r7, #12]
 800872c:	f443 23e0 	orr.w	r3, r3, #458752	@ 0x70000
 8008730:	60fb      	str	r3, [r7, #12]

  MODIFY_REG(Device->BTCR[Init->NSBank], mask, btcr_reg);
 8008732:	683b      	ldr	r3, [r7, #0]
 8008734:	681a      	ldr	r2, [r3, #0]
 8008736:	687b      	ldr	r3, [r7, #4]
 8008738:	f853 2022 	ldr.w	r2, [r3, r2, lsl #2]
 800873c:	68fb      	ldr	r3, [r7, #12]
 800873e:	43db      	mvns	r3, r3
 8008740:	ea02 0103 	and.w	r1, r2, r3
 8008744:	683b      	ldr	r3, [r7, #0]
 8008746:	681a      	ldr	r2, [r3, #0]
 8008748:	693b      	ldr	r3, [r7, #16]
 800874a:	4319      	orrs	r1, r3
 800874c:	687b      	ldr	r3, [r7, #4]
 800874e:	f843 1022 	str.w	r1, [r3, r2, lsl #2]
    /* Configure Write FIFO mode when Write Fifo is enabled for bank2..4 */
    SET_BIT(Device->BTCR[FSMC_NORSRAM_BANK1], (uint32_t)(Init->WriteFifo));
  }
#endif /* FSMC_BCR1_WFDIS */

  return HAL_OK;
 8008752:	2300      	movs	r3, #0
}
 8008754:	4618      	mov	r0, r3
 8008756:	371c      	adds	r7, #28
 8008758:	46bd      	mov	sp, r7
 800875a:	f85d 7b04 	ldr.w	r7, [sp], #4
 800875e:	4770      	bx	lr
 8008760:	0008fb7f 	.word	0x0008fb7f

08008764 <FSMC_NORSRAM_Timing_Init>:
  * @param  Bank NORSRAM bank number
  * @retval HAL status
  */
HAL_StatusTypeDef FSMC_NORSRAM_Timing_Init(FSMC_NORSRAM_TypeDef *Device,
                                          FSMC_NORSRAM_TimingTypeDef *Timing, uint32_t Bank)
{
 8008764:	b480      	push	{r7}
 8008766:	b085      	sub	sp, #20
 8008768:	af00      	add	r7, sp, #0
 800876a:	60f8      	str	r0, [r7, #12]
 800876c:	60b9      	str	r1, [r7, #8]
 800876e:	607a      	str	r2, [r7, #4]
  assert_param(IS_FSMC_DATA_LATENCY(Timing->DataLatency));
  assert_param(IS_FSMC_ACCESS_MODE(Timing->AccessMode));
  assert_param(IS_FSMC_NORSRAM_BANK(Bank));

  /* Set FSMC_NORSRAM device timing parameters */
  MODIFY_REG(Device->BTCR[Bank + 1U], BTR_CLEAR_MASK, (Timing->AddressSetupTime                                  |
 8008770:	687b      	ldr	r3, [r7, #4]
 8008772:	1c5a      	adds	r2, r3, #1
 8008774:	68fb      	ldr	r3, [r7, #12]
 8008776:	f853 3022 	ldr.w	r3, [r3, r2, lsl #2]
 800877a:	f003 4140 	and.w	r1, r3, #3221225472	@ 0xc0000000
 800877e:	68bb      	ldr	r3, [r7, #8]
 8008780:	681a      	ldr	r2, [r3, #0]
 8008782:	68bb      	ldr	r3, [r7, #8]
 8008784:	685b      	ldr	r3, [r3, #4]
 8008786:	011b      	lsls	r3, r3, #4
 8008788:	431a      	orrs	r2, r3
 800878a:	68bb      	ldr	r3, [r7, #8]
 800878c:	689b      	ldr	r3, [r3, #8]
 800878e:	021b      	lsls	r3, r3, #8
 8008790:	431a      	orrs	r2, r3
 8008792:	68bb      	ldr	r3, [r7, #8]
 8008794:	68db      	ldr	r3, [r3, #12]
 8008796:	041b      	lsls	r3, r3, #16
 8008798:	431a      	orrs	r2, r3
 800879a:	68bb      	ldr	r3, [r7, #8]
 800879c:	691b      	ldr	r3, [r3, #16]
 800879e:	3b01      	subs	r3, #1
 80087a0:	051b      	lsls	r3, r3, #20
 80087a2:	431a      	orrs	r2, r3
 80087a4:	68bb      	ldr	r3, [r7, #8]
 80087a6:	695b      	ldr	r3, [r3, #20]
 80087a8:	3b02      	subs	r3, #2
 80087aa:	061b      	lsls	r3, r3, #24
 80087ac:	431a      	orrs	r2, r3
 80087ae:	68bb      	ldr	r3, [r7, #8]
 80087b0:	699b      	ldr	r3, [r3, #24]
 80087b2:	4313      	orrs	r3, r2
 80087b4:	687a      	ldr	r2, [r7, #4]
 80087b6:	3201      	adds	r2, #1
 80087b8:	4319      	orrs	r1, r3
 80087ba:	68fb      	ldr	r3, [r7, #12]
 80087bc:	f843 1022 	str.w	r1, [r3, r2, lsl #2]
    tmpr |= (uint32_t)(((Timing->CLKDivision) - 1U) << FSMC_BTR1_CLKDIV_Pos);
    MODIFY_REG(Device->BTCR[FSMC_NORSRAM_BANK1 + 1U], FSMC_BTR1_CLKDIV, tmpr);
  }

#endif
  return HAL_OK;
 80087c0:	2300      	movs	r3, #0
}
 80087c2:	4618      	mov	r0, r3
 80087c4:	3714      	adds	r7, #20
 80087c6:	46bd      	mov	sp, r7
 80087c8:	f85d 7b04 	ldr.w	r7, [sp], #4
 80087cc:	4770      	bx	lr
	...

080087d0 <FSMC_NORSRAM_Extended_Timing_Init>:
  * @retval HAL status
  */
HAL_StatusTypeDef FSMC_NORSRAM_Extended_Timing_Init(FSMC_NORSRAM_EXTENDED_TypeDef *Device,
                                                   FSMC_NORSRAM_TimingTypeDef *Timing, uint32_t Bank,
                                                   uint32_t ExtendedMode)
{
 80087d0:	b480      	push	{r7}
 80087d2:	b085      	sub	sp, #20
 80087d4:	af00      	add	r7, sp, #0
 80087d6:	60f8      	str	r0, [r7, #12]
 80087d8:	60b9      	str	r1, [r7, #8]
 80087da:	607a      	str	r2, [r7, #4]
 80087dc:	603b      	str	r3, [r7, #0]
  /* Check the parameters */
  assert_param(IS_FSMC_EXTENDED_MODE(ExtendedMode));

  /* Set NORSRAM device timing register for write configuration, if extended mode is used */
  if (ExtendedMode == FSMC_EXTENDED_MODE_ENABLE)
 80087de:	683b      	ldr	r3, [r7, #0]
 80087e0:	f5b3 4f80 	cmp.w	r3, #16384	@ 0x4000
 80087e4:	d11d      	bne.n	8008822 <FSMC_NORSRAM_Extended_Timing_Init+0x52>
    assert_param(IS_FSMC_TURNAROUND_TIME(Timing->BusTurnAroundDuration));
    assert_param(IS_FSMC_ACCESS_MODE(Timing->AccessMode));
    assert_param(IS_FSMC_NORSRAM_BANK(Bank));

    /* Set NORSRAM device timing register for write configuration, if extended mode is used */
    MODIFY_REG(Device->BWTR[Bank], BWTR_CLEAR_MASK, (Timing->AddressSetupTime                                    |
 80087e6:	68fb      	ldr	r3, [r7, #12]
 80087e8:	687a      	ldr	r2, [r7, #4]
 80087ea:	f853 2022 	ldr.w	r2, [r3, r2, lsl #2]
 80087ee:	4b13      	ldr	r3, [pc, #76]	@ (800883c <FSMC_NORSRAM_Extended_Timing_Init+0x6c>)
 80087f0:	4013      	ands	r3, r2
 80087f2:	68ba      	ldr	r2, [r7, #8]
 80087f4:	6811      	ldr	r1, [r2, #0]
 80087f6:	68ba      	ldr	r2, [r7, #8]
 80087f8:	6852      	ldr	r2, [r2, #4]
 80087fa:	0112      	lsls	r2, r2, #4
 80087fc:	4311      	orrs	r1, r2
 80087fe:	68ba      	ldr	r2, [r7, #8]
 8008800:	6892      	ldr	r2, [r2, #8]
 8008802:	0212      	lsls	r2, r2, #8
 8008804:	4311      	orrs	r1, r2
 8008806:	68ba      	ldr	r2, [r7, #8]
 8008808:	6992      	ldr	r2, [r2, #24]
 800880a:	4311      	orrs	r1, r2
 800880c:	68ba      	ldr	r2, [r7, #8]
 800880e:	68d2      	ldr	r2, [r2, #12]
 8008810:	0412      	lsls	r2, r2, #16
 8008812:	430a      	orrs	r2, r1
 8008814:	ea43 0102 	orr.w	r1, r3, r2
 8008818:	68fb      	ldr	r3, [r7, #12]
 800881a:	687a      	ldr	r2, [r7, #4]
 800881c:	f843 1022 	str.w	r1, [r3, r2, lsl #2]
 8008820:	e005      	b.n	800882e <FSMC_NORSRAM_Extended_Timing_Init+0x5e>
                                                     Timing->AccessMode                                          |
                                                     ((Timing->BusTurnAroundDuration)  << FSMC_BWTR1_BUSTURN_Pos)));
  }
  else
  {
    Device->BWTR[Bank] = 0x0FFFFFFFU;
 8008822:	68fb      	ldr	r3, [r7, #12]
 8008824:	687a      	ldr	r2, [r7, #4]
 8008826:	f06f 4170 	mvn.w	r1, #4026531840	@ 0xf0000000
 800882a:	f843 1022 	str.w	r1, [r3, r2, lsl #2]
  }

  return HAL_OK;
 800882e:	2300      	movs	r3, #0
}
 8008830:	4618      	mov	r0, r3
 8008832:	3714      	adds	r7, #20
 8008834:	46bd      	mov	sp, r7
 8008836:	f85d 7b04 	ldr.w	r7, [sp], #4
 800883a:	4770      	bx	lr
 800883c:	cff00000 	.word	0xcff00000

08008840 <malloc>:
 8008840:	4b02      	ldr	r3, [pc, #8]	@ (800884c <malloc+0xc>)
 8008842:	4601      	mov	r1, r0
 8008844:	6818      	ldr	r0, [r3, #0]
 8008846:	f000 b82d 	b.w	80088a4 <_malloc_r>
 800884a:	bf00      	nop
 800884c:	20000284 	.word	0x20000284

08008850 <free>:
 8008850:	4b02      	ldr	r3, [pc, #8]	@ (800885c <free+0xc>)
 8008852:	4601      	mov	r1, r0
 8008854:	6818      	ldr	r0, [r3, #0]
 8008856:	f001 b907 	b.w	8009a68 <_free_r>
 800885a:	bf00      	nop
 800885c:	20000284 	.word	0x20000284

08008860 <sbrk_aligned>:
 8008860:	b570      	push	{r4, r5, r6, lr}
 8008862:	4e0f      	ldr	r6, [pc, #60]	@ (80088a0 <sbrk_aligned+0x40>)
 8008864:	460c      	mov	r4, r1
 8008866:	6831      	ldr	r1, [r6, #0]
 8008868:	4605      	mov	r5, r0
 800886a:	b911      	cbnz	r1, 8008872 <sbrk_aligned+0x12>
 800886c:	f001 f88e 	bl	800998c <_sbrk_r>
 8008870:	6030      	str	r0, [r6, #0]
 8008872:	4621      	mov	r1, r4
 8008874:	4628      	mov	r0, r5
 8008876:	f001 f889 	bl	800998c <_sbrk_r>
 800887a:	1c43      	adds	r3, r0, #1
 800887c:	d103      	bne.n	8008886 <sbrk_aligned+0x26>
 800887e:	f04f 34ff 	mov.w	r4, #4294967295
 8008882:	4620      	mov	r0, r4
 8008884:	bd70      	pop	{r4, r5, r6, pc}
 8008886:	1cc4      	adds	r4, r0, #3
 8008888:	f024 0403 	bic.w	r4, r4, #3
 800888c:	42a0      	cmp	r0, r4
 800888e:	d0f8      	beq.n	8008882 <sbrk_aligned+0x22>
 8008890:	1a21      	subs	r1, r4, r0
 8008892:	4628      	mov	r0, r5
 8008894:	f001 f87a 	bl	800998c <_sbrk_r>
 8008898:	3001      	adds	r0, #1
 800889a:	d1f2      	bne.n	8008882 <sbrk_aligned+0x22>
 800889c:	e7ef      	b.n	800887e <sbrk_aligned+0x1e>
 800889e:	bf00      	nop
 80088a0:	20000c3c 	.word	0x20000c3c

080088a4 <_malloc_r>:
 80088a4:	e92d 43f8 	stmdb	sp!, {r3, r4, r5, r6, r7, r8, r9, lr}
 80088a8:	1ccd      	adds	r5, r1, #3
 80088aa:	f025 0503 	bic.w	r5, r5, #3
 80088ae:	3508      	adds	r5, #8
 80088b0:	2d0c      	cmp	r5, #12
 80088b2:	bf38      	it	cc
 80088b4:	250c      	movcc	r5, #12
 80088b6:	2d00      	cmp	r5, #0
 80088b8:	4606      	mov	r6, r0
 80088ba:	db01      	blt.n	80088c0 <_malloc_r+0x1c>
 80088bc:	42a9      	cmp	r1, r5
 80088be:	d904      	bls.n	80088ca <_malloc_r+0x26>
 80088c0:	230c      	movs	r3, #12
 80088c2:	6033      	str	r3, [r6, #0]
 80088c4:	2000      	movs	r0, #0
 80088c6:	e8bd 83f8 	ldmia.w	sp!, {r3, r4, r5, r6, r7, r8, r9, pc}
 80088ca:	f8df 80d4 	ldr.w	r8, [pc, #212]	@ 80089a0 <_malloc_r+0xfc>
 80088ce:	f000 f869 	bl	80089a4 <__malloc_lock>
 80088d2:	f8d8 3000 	ldr.w	r3, [r8]
 80088d6:	461c      	mov	r4, r3
 80088d8:	bb44      	cbnz	r4, 800892c <_malloc_r+0x88>
 80088da:	4629      	mov	r1, r5
 80088dc:	4630      	mov	r0, r6
 80088de:	f7ff ffbf 	bl	8008860 <sbrk_aligned>
 80088e2:	1c43      	adds	r3, r0, #1
 80088e4:	4604      	mov	r4, r0
 80088e6:	d158      	bne.n	800899a <_malloc_r+0xf6>
 80088e8:	f8d8 4000 	ldr.w	r4, [r8]
 80088ec:	4627      	mov	r7, r4
 80088ee:	2f00      	cmp	r7, #0
 80088f0:	d143      	bne.n	800897a <_malloc_r+0xd6>
 80088f2:	2c00      	cmp	r4, #0
 80088f4:	d04b      	beq.n	800898e <_malloc_r+0xea>
 80088f6:	6823      	ldr	r3, [r4, #0]
 80088f8:	4639      	mov	r1, r7
 80088fa:	4630      	mov	r0, r6
 80088fc:	eb04 0903 	add.w	r9, r4, r3
 8008900:	f001 f844 	bl	800998c <_sbrk_r>
 8008904:	4581      	cmp	r9, r0
 8008906:	d142      	bne.n	800898e <_malloc_r+0xea>
 8008908:	6821      	ldr	r1, [r4, #0]
 800890a:	1a6d      	subs	r5, r5, r1
 800890c:	4629      	mov	r1, r5
 800890e:	4630      	mov	r0, r6
 8008910:	f7ff ffa6 	bl	8008860 <sbrk_aligned>
 8008914:	3001      	adds	r0, #1
 8008916:	d03a      	beq.n	800898e <_malloc_r+0xea>
 8008918:	6823      	ldr	r3, [r4, #0]
 800891a:	442b      	add	r3, r5
 800891c:	6023      	str	r3, [r4, #0]
 800891e:	f8d8 3000 	ldr.w	r3, [r8]
 8008922:	685a      	ldr	r2, [r3, #4]
 8008924:	bb62      	cbnz	r2, 8008980 <_malloc_r+0xdc>
 8008926:	f8c8 7000 	str.w	r7, [r8]
 800892a:	e00f      	b.n	800894c <_malloc_r+0xa8>
 800892c:	6822      	ldr	r2, [r4, #0]
 800892e:	1b52      	subs	r2, r2, r5
 8008930:	d420      	bmi.n	8008974 <_malloc_r+0xd0>
 8008932:	2a0b      	cmp	r2, #11
 8008934:	d917      	bls.n	8008966 <_malloc_r+0xc2>
 8008936:	1961      	adds	r1, r4, r5
 8008938:	42a3      	cmp	r3, r4
 800893a:	6025      	str	r5, [r4, #0]
 800893c:	bf18      	it	ne
 800893e:	6059      	strne	r1, [r3, #4]
 8008940:	6863      	ldr	r3, [r4, #4]
 8008942:	bf08      	it	eq
 8008944:	f8c8 1000 	streq.w	r1, [r8]
 8008948:	5162      	str	r2, [r4, r5]
 800894a:	604b      	str	r3, [r1, #4]
 800894c:	4630      	mov	r0, r6
 800894e:	f000 f82f 	bl	80089b0 <__malloc_unlock>
 8008952:	f104 000b 	add.w	r0, r4, #11
 8008956:	1d23      	adds	r3, r4, #4
 8008958:	f020 0007 	bic.w	r0, r0, #7
 800895c:	1ac2      	subs	r2, r0, r3
 800895e:	bf1c      	itt	ne
 8008960:	1a1b      	subne	r3, r3, r0
 8008962:	50a3      	strne	r3, [r4, r2]
 8008964:	e7af      	b.n	80088c6 <_malloc_r+0x22>
 8008966:	6862      	ldr	r2, [r4, #4]
 8008968:	42a3      	cmp	r3, r4
 800896a:	bf0c      	ite	eq
 800896c:	f8c8 2000 	streq.w	r2, [r8]
 8008970:	605a      	strne	r2, [r3, #4]
 8008972:	e7eb      	b.n	800894c <_malloc_r+0xa8>
 8008974:	4623      	mov	r3, r4
 8008976:	6864      	ldr	r4, [r4, #4]
 8008978:	e7ae      	b.n	80088d8 <_malloc_r+0x34>
 800897a:	463c      	mov	r4, r7
 800897c:	687f      	ldr	r7, [r7, #4]
 800897e:	e7b6      	b.n	80088ee <_malloc_r+0x4a>
 8008980:	461a      	mov	r2, r3
 8008982:	685b      	ldr	r3, [r3, #4]
 8008984:	42a3      	cmp	r3, r4
 8008986:	d1fb      	bne.n	8008980 <_malloc_r+0xdc>
 8008988:	2300      	movs	r3, #0
 800898a:	6053      	str	r3, [r2, #4]
 800898c:	e7de      	b.n	800894c <_malloc_r+0xa8>
 800898e:	230c      	movs	r3, #12
 8008990:	6033      	str	r3, [r6, #0]
 8008992:	4630      	mov	r0, r6
 8008994:	f000 f80c 	bl	80089b0 <__malloc_unlock>
 8008998:	e794      	b.n	80088c4 <_malloc_r+0x20>
 800899a:	6005      	str	r5, [r0, #0]
 800899c:	e7d6      	b.n	800894c <_malloc_r+0xa8>
 800899e:	bf00      	nop
 80089a0:	20000c40 	.word	0x20000c40

080089a4 <__malloc_lock>:
 80089a4:	4801      	ldr	r0, [pc, #4]	@ (80089ac <__malloc_lock+0x8>)
 80089a6:	f001 b83e 	b.w	8009a26 <__retarget_lock_acquire_recursive>
 80089aa:	bf00      	nop
 80089ac:	20000d84 	.word	0x20000d84

080089b0 <__malloc_unlock>:
 80089b0:	4801      	ldr	r0, [pc, #4]	@ (80089b8 <__malloc_unlock+0x8>)
 80089b2:	f001 b839 	b.w	8009a28 <__retarget_lock_release_recursive>
 80089b6:	bf00      	nop
 80089b8:	20000d84 	.word	0x20000d84

080089bc <realloc>:
 80089bc:	4b02      	ldr	r3, [pc, #8]	@ (80089c8 <realloc+0xc>)
 80089be:	460a      	mov	r2, r1
 80089c0:	4601      	mov	r1, r0
 80089c2:	6818      	ldr	r0, [r3, #0]
 80089c4:	f000 b802 	b.w	80089cc <_realloc_r>
 80089c8:	20000284 	.word	0x20000284

080089cc <_realloc_r>:
 80089cc:	e92d 41f0 	stmdb	sp!, {r4, r5, r6, r7, r8, lr}
 80089d0:	4607      	mov	r7, r0
 80089d2:	4614      	mov	r4, r2
 80089d4:	460d      	mov	r5, r1
 80089d6:	b921      	cbnz	r1, 80089e2 <_realloc_r+0x16>
 80089d8:	e8bd 41f0 	ldmia.w	sp!, {r4, r5, r6, r7, r8, lr}
 80089dc:	4611      	mov	r1, r2
 80089de:	f7ff bf61 	b.w	80088a4 <_malloc_r>
 80089e2:	b92a      	cbnz	r2, 80089f0 <_realloc_r+0x24>
 80089e4:	f001 f840 	bl	8009a68 <_free_r>
 80089e8:	4625      	mov	r5, r4
 80089ea:	4628      	mov	r0, r5
 80089ec:	e8bd 81f0 	ldmia.w	sp!, {r4, r5, r6, r7, r8, pc}
 80089f0:	f002 f87a 	bl	800aae8 <_malloc_usable_size_r>
 80089f4:	4284      	cmp	r4, r0
 80089f6:	4606      	mov	r6, r0
 80089f8:	d802      	bhi.n	8008a00 <_realloc_r+0x34>
 80089fa:	ebb4 0f50 	cmp.w	r4, r0, lsr #1
 80089fe:	d8f4      	bhi.n	80089ea <_realloc_r+0x1e>
 8008a00:	4621      	mov	r1, r4
 8008a02:	4638      	mov	r0, r7
 8008a04:	f7ff ff4e 	bl	80088a4 <_malloc_r>
 8008a08:	4680      	mov	r8, r0
 8008a0a:	b908      	cbnz	r0, 8008a10 <_realloc_r+0x44>
 8008a0c:	4645      	mov	r5, r8
 8008a0e:	e7ec      	b.n	80089ea <_realloc_r+0x1e>
 8008a10:	42b4      	cmp	r4, r6
 8008a12:	4622      	mov	r2, r4
 8008a14:	4629      	mov	r1, r5
 8008a16:	bf28      	it	cs
 8008a18:	4632      	movcs	r2, r6
 8008a1a:	f001 f80e 	bl	8009a3a <memcpy>
 8008a1e:	4629      	mov	r1, r5
 8008a20:	4638      	mov	r0, r7
 8008a22:	f001 f821 	bl	8009a68 <_free_r>
 8008a26:	e7f1      	b.n	8008a0c <_realloc_r+0x40>

08008a28 <sulp>:
 8008a28:	b570      	push	{r4, r5, r6, lr}
 8008a2a:	4604      	mov	r4, r0
 8008a2c:	460d      	mov	r5, r1
 8008a2e:	ec45 4b10 	vmov	d0, r4, r5
 8008a32:	4616      	mov	r6, r2
 8008a34:	f001 ff1a 	bl	800a86c <__ulp>
 8008a38:	ec51 0b10 	vmov	r0, r1, d0
 8008a3c:	b17e      	cbz	r6, 8008a5e <sulp+0x36>
 8008a3e:	f3c5 530a 	ubfx	r3, r5, #20, #11
 8008a42:	f1c3 036b 	rsb	r3, r3, #107	@ 0x6b
 8008a46:	2b00      	cmp	r3, #0
 8008a48:	dd09      	ble.n	8008a5e <sulp+0x36>
 8008a4a:	051b      	lsls	r3, r3, #20
 8008a4c:	f103 557f 	add.w	r5, r3, #1069547520	@ 0x3fc00000
 8008a50:	2400      	movs	r4, #0
 8008a52:	f505 1540 	add.w	r5, r5, #3145728	@ 0x300000
 8008a56:	4622      	mov	r2, r4
 8008a58:	462b      	mov	r3, r5
 8008a5a:	f7f7 fddd 	bl	8000618 <__aeabi_dmul>
 8008a5e:	ec41 0b10 	vmov	d0, r0, r1
 8008a62:	bd70      	pop	{r4, r5, r6, pc}
 8008a64:	0000      	movs	r0, r0
	...

08008a68 <_strtod_l>:
 8008a68:	e92d 4ff0 	stmdb	sp!, {r4, r5, r6, r7, r8, r9, sl, fp, lr}
 8008a6c:	b09f      	sub	sp, #124	@ 0x7c
 8008a6e:	460c      	mov	r4, r1
 8008a70:	9217      	str	r2, [sp, #92]	@ 0x5c
 8008a72:	2200      	movs	r2, #0
 8008a74:	921a      	str	r2, [sp, #104]	@ 0x68
 8008a76:	9005      	str	r0, [sp, #20]
 8008a78:	f04f 0a00 	mov.w	sl, #0
 8008a7c:	f04f 0b00 	mov.w	fp, #0
 8008a80:	460a      	mov	r2, r1
 8008a82:	9219      	str	r2, [sp, #100]	@ 0x64
 8008a84:	7811      	ldrb	r1, [r2, #0]
 8008a86:	292b      	cmp	r1, #43	@ 0x2b
 8008a88:	d04a      	beq.n	8008b20 <_strtod_l+0xb8>
 8008a8a:	d838      	bhi.n	8008afe <_strtod_l+0x96>
 8008a8c:	290d      	cmp	r1, #13
 8008a8e:	d832      	bhi.n	8008af6 <_strtod_l+0x8e>
 8008a90:	2908      	cmp	r1, #8
 8008a92:	d832      	bhi.n	8008afa <_strtod_l+0x92>
 8008a94:	2900      	cmp	r1, #0
 8008a96:	d03b      	beq.n	8008b10 <_strtod_l+0xa8>
 8008a98:	2200      	movs	r2, #0
 8008a9a:	920e      	str	r2, [sp, #56]	@ 0x38
 8008a9c:	9d19      	ldr	r5, [sp, #100]	@ 0x64
 8008a9e:	782a      	ldrb	r2, [r5, #0]
 8008aa0:	2a30      	cmp	r2, #48	@ 0x30
 8008aa2:	f040 80b2 	bne.w	8008c0a <_strtod_l+0x1a2>
 8008aa6:	786a      	ldrb	r2, [r5, #1]
 8008aa8:	f002 02df 	and.w	r2, r2, #223	@ 0xdf
 8008aac:	2a58      	cmp	r2, #88	@ 0x58
 8008aae:	d16e      	bne.n	8008b8e <_strtod_l+0x126>
 8008ab0:	9302      	str	r3, [sp, #8]
 8008ab2:	9b0e      	ldr	r3, [sp, #56]	@ 0x38
 8008ab4:	9301      	str	r3, [sp, #4]
 8008ab6:	ab1a      	add	r3, sp, #104	@ 0x68
 8008ab8:	9300      	str	r3, [sp, #0]
 8008aba:	4a8f      	ldr	r2, [pc, #572]	@ (8008cf8 <_strtod_l+0x290>)
 8008abc:	9805      	ldr	r0, [sp, #20]
 8008abe:	ab1b      	add	r3, sp, #108	@ 0x6c
 8008ac0:	a919      	add	r1, sp, #100	@ 0x64
 8008ac2:	f001 f883 	bl	8009bcc <__gethex>
 8008ac6:	f010 060f 	ands.w	r6, r0, #15
 8008aca:	4604      	mov	r4, r0
 8008acc:	d005      	beq.n	8008ada <_strtod_l+0x72>
 8008ace:	2e06      	cmp	r6, #6
 8008ad0:	d128      	bne.n	8008b24 <_strtod_l+0xbc>
 8008ad2:	3501      	adds	r5, #1
 8008ad4:	2300      	movs	r3, #0
 8008ad6:	9519      	str	r5, [sp, #100]	@ 0x64
 8008ad8:	930e      	str	r3, [sp, #56]	@ 0x38
 8008ada:	9b17      	ldr	r3, [sp, #92]	@ 0x5c
 8008adc:	2b00      	cmp	r3, #0
 8008ade:	f040 858e 	bne.w	80095fe <_strtod_l+0xb96>
 8008ae2:	9b0e      	ldr	r3, [sp, #56]	@ 0x38
 8008ae4:	b1cb      	cbz	r3, 8008b1a <_strtod_l+0xb2>
 8008ae6:	4652      	mov	r2, sl
 8008ae8:	f10b 4300 	add.w	r3, fp, #2147483648	@ 0x80000000
 8008aec:	ec43 2b10 	vmov	d0, r2, r3
 8008af0:	b01f      	add	sp, #124	@ 0x7c
 8008af2:	e8bd 8ff0 	ldmia.w	sp!, {r4, r5, r6, r7, r8, r9, sl, fp, pc}
 8008af6:	2920      	cmp	r1, #32
 8008af8:	d1ce      	bne.n	8008a98 <_strtod_l+0x30>
 8008afa:	3201      	adds	r2, #1
 8008afc:	e7c1      	b.n	8008a82 <_strtod_l+0x1a>
 8008afe:	292d      	cmp	r1, #45	@ 0x2d
 8008b00:	d1ca      	bne.n	8008a98 <_strtod_l+0x30>
 8008b02:	2101      	movs	r1, #1
 8008b04:	910e      	str	r1, [sp, #56]	@ 0x38
 8008b06:	1c51      	adds	r1, r2, #1
 8008b08:	9119      	str	r1, [sp, #100]	@ 0x64
 8008b0a:	7852      	ldrb	r2, [r2, #1]
 8008b0c:	2a00      	cmp	r2, #0
 8008b0e:	d1c5      	bne.n	8008a9c <_strtod_l+0x34>
 8008b10:	9b17      	ldr	r3, [sp, #92]	@ 0x5c
 8008b12:	9419      	str	r4, [sp, #100]	@ 0x64
 8008b14:	2b00      	cmp	r3, #0
 8008b16:	f040 8570 	bne.w	80095fa <_strtod_l+0xb92>
 8008b1a:	4652      	mov	r2, sl
 8008b1c:	465b      	mov	r3, fp
 8008b1e:	e7e5      	b.n	8008aec <_strtod_l+0x84>
 8008b20:	2100      	movs	r1, #0
 8008b22:	e7ef      	b.n	8008b04 <_strtod_l+0x9c>
 8008b24:	9a1a      	ldr	r2, [sp, #104]	@ 0x68
 8008b26:	b13a      	cbz	r2, 8008b38 <_strtod_l+0xd0>
 8008b28:	2135      	movs	r1, #53	@ 0x35
 8008b2a:	a81c      	add	r0, sp, #112	@ 0x70
 8008b2c:	f001 ff98 	bl	800aa60 <__copybits>
 8008b30:	991a      	ldr	r1, [sp, #104]	@ 0x68
 8008b32:	9805      	ldr	r0, [sp, #20]
 8008b34:	f001 fb6e 	bl	800a214 <_Bfree>
 8008b38:	3e01      	subs	r6, #1
 8008b3a:	9a1b      	ldr	r2, [sp, #108]	@ 0x6c
 8008b3c:	2e04      	cmp	r6, #4
 8008b3e:	d806      	bhi.n	8008b4e <_strtod_l+0xe6>
 8008b40:	e8df f006 	tbb	[pc, r6]
 8008b44:	201d0314 	.word	0x201d0314
 8008b48:	14          	.byte	0x14
 8008b49:	00          	.byte	0x00
 8008b4a:	e9dd ab1c 	ldrd	sl, fp, [sp, #112]	@ 0x70
 8008b4e:	05e1      	lsls	r1, r4, #23
 8008b50:	bf48      	it	mi
 8008b52:	f04b 4b00 	orrmi.w	fp, fp, #2147483648	@ 0x80000000
 8008b56:	f02b 4300 	bic.w	r3, fp, #2147483648	@ 0x80000000
 8008b5a:	0d1b      	lsrs	r3, r3, #20
 8008b5c:	051b      	lsls	r3, r3, #20
 8008b5e:	2b00      	cmp	r3, #0
 8008b60:	d1bb      	bne.n	8008ada <_strtod_l+0x72>
 8008b62:	f000 ff35 	bl	80099d0 <__errno>
 8008b66:	2322      	movs	r3, #34	@ 0x22
 8008b68:	6003      	str	r3, [r0, #0]
 8008b6a:	e7b6      	b.n	8008ada <_strtod_l+0x72>
 8008b6c:	e9dd a31c 	ldrd	sl, r3, [sp, #112]	@ 0x70
 8008b70:	f202 4233 	addw	r2, r2, #1075	@ 0x433
 8008b74:	f423 1380 	bic.w	r3, r3, #1048576	@ 0x100000
 8008b78:	ea43 5b02 	orr.w	fp, r3, r2, lsl #20
 8008b7c:	e7e7      	b.n	8008b4e <_strtod_l+0xe6>
 8008b7e:	f8df b180 	ldr.w	fp, [pc, #384]	@ 8008d00 <_strtod_l+0x298>
 8008b82:	e7e4      	b.n	8008b4e <_strtod_l+0xe6>
 8008b84:	f06f 4b00 	mvn.w	fp, #2147483648	@ 0x80000000
 8008b88:	f04f 3aff 	mov.w	sl, #4294967295
 8008b8c:	e7df      	b.n	8008b4e <_strtod_l+0xe6>
 8008b8e:	9b19      	ldr	r3, [sp, #100]	@ 0x64
 8008b90:	1c5a      	adds	r2, r3, #1
 8008b92:	9219      	str	r2, [sp, #100]	@ 0x64
 8008b94:	785b      	ldrb	r3, [r3, #1]
 8008b96:	2b30      	cmp	r3, #48	@ 0x30
 8008b98:	d0f9      	beq.n	8008b8e <_strtod_l+0x126>
 8008b9a:	2b00      	cmp	r3, #0
 8008b9c:	d09d      	beq.n	8008ada <_strtod_l+0x72>
 8008b9e:	2301      	movs	r3, #1
 8008ba0:	2700      	movs	r7, #0
 8008ba2:	9308      	str	r3, [sp, #32]
 8008ba4:	9b19      	ldr	r3, [sp, #100]	@ 0x64
 8008ba6:	930c      	str	r3, [sp, #48]	@ 0x30
 8008ba8:	970b      	str	r7, [sp, #44]	@ 0x2c
 8008baa:	46b9      	mov	r9, r7
 8008bac:	220a      	movs	r2, #10
 8008bae:	9819      	ldr	r0, [sp, #100]	@ 0x64
 8008bb0:	7805      	ldrb	r5, [r0, #0]
 8008bb2:	f1a5 0330 	sub.w	r3, r5, #48	@ 0x30
 8008bb6:	b2d9      	uxtb	r1, r3
 8008bb8:	2909      	cmp	r1, #9
 8008bba:	d928      	bls.n	8008c0e <_strtod_l+0x1a6>
 8008bbc:	494f      	ldr	r1, [pc, #316]	@ (8008cfc <_strtod_l+0x294>)
 8008bbe:	2201      	movs	r2, #1
 8008bc0:	f000 fe8b 	bl	80098da <strncmp>
 8008bc4:	2800      	cmp	r0, #0
 8008bc6:	d032      	beq.n	8008c2e <_strtod_l+0x1c6>
 8008bc8:	2000      	movs	r0, #0
 8008bca:	462a      	mov	r2, r5
 8008bcc:	900a      	str	r0, [sp, #40]	@ 0x28
 8008bce:	464d      	mov	r5, r9
 8008bd0:	4603      	mov	r3, r0
 8008bd2:	2a65      	cmp	r2, #101	@ 0x65
 8008bd4:	d001      	beq.n	8008bda <_strtod_l+0x172>
 8008bd6:	2a45      	cmp	r2, #69	@ 0x45
 8008bd8:	d114      	bne.n	8008c04 <_strtod_l+0x19c>
 8008bda:	b91d      	cbnz	r5, 8008be4 <_strtod_l+0x17c>
 8008bdc:	9a08      	ldr	r2, [sp, #32]
 8008bde:	4302      	orrs	r2, r0
 8008be0:	d096      	beq.n	8008b10 <_strtod_l+0xa8>
 8008be2:	2500      	movs	r5, #0
 8008be4:	9c19      	ldr	r4, [sp, #100]	@ 0x64
 8008be6:	1c62      	adds	r2, r4, #1
 8008be8:	9219      	str	r2, [sp, #100]	@ 0x64
 8008bea:	7862      	ldrb	r2, [r4, #1]
 8008bec:	2a2b      	cmp	r2, #43	@ 0x2b
 8008bee:	d07a      	beq.n	8008ce6 <_strtod_l+0x27e>
 8008bf0:	2a2d      	cmp	r2, #45	@ 0x2d
 8008bf2:	d07e      	beq.n	8008cf2 <_strtod_l+0x28a>
 8008bf4:	f04f 0c00 	mov.w	ip, #0
 8008bf8:	f1a2 0130 	sub.w	r1, r2, #48	@ 0x30
 8008bfc:	2909      	cmp	r1, #9
 8008bfe:	f240 8085 	bls.w	8008d0c <_strtod_l+0x2a4>
 8008c02:	9419      	str	r4, [sp, #100]	@ 0x64
 8008c04:	f04f 0800 	mov.w	r8, #0
 8008c08:	e0a5      	b.n	8008d56 <_strtod_l+0x2ee>
 8008c0a:	2300      	movs	r3, #0
 8008c0c:	e7c8      	b.n	8008ba0 <_strtod_l+0x138>
 8008c0e:	f1b9 0f08 	cmp.w	r9, #8
 8008c12:	bfd8      	it	le
 8008c14:	990b      	ldrle	r1, [sp, #44]	@ 0x2c
 8008c16:	f100 0001 	add.w	r0, r0, #1
 8008c1a:	bfda      	itte	le
 8008c1c:	fb02 3301 	mlale	r3, r2, r1, r3
 8008c20:	930b      	strle	r3, [sp, #44]	@ 0x2c
 8008c22:	fb02 3707 	mlagt	r7, r2, r7, r3
 8008c26:	f109 0901 	add.w	r9, r9, #1
 8008c2a:	9019      	str	r0, [sp, #100]	@ 0x64
 8008c2c:	e7bf      	b.n	8008bae <_strtod_l+0x146>
 8008c2e:	9b19      	ldr	r3, [sp, #100]	@ 0x64
 8008c30:	1c5a      	adds	r2, r3, #1
 8008c32:	9219      	str	r2, [sp, #100]	@ 0x64
 8008c34:	785a      	ldrb	r2, [r3, #1]
 8008c36:	f1b9 0f00 	cmp.w	r9, #0
 8008c3a:	d03b      	beq.n	8008cb4 <_strtod_l+0x24c>
 8008c3c:	900a      	str	r0, [sp, #40]	@ 0x28
 8008c3e:	464d      	mov	r5, r9
 8008c40:	f1a2 0330 	sub.w	r3, r2, #48	@ 0x30
 8008c44:	2b09      	cmp	r3, #9
 8008c46:	d912      	bls.n	8008c6e <_strtod_l+0x206>
 8008c48:	2301      	movs	r3, #1
 8008c4a:	e7c2      	b.n	8008bd2 <_strtod_l+0x16a>
 8008c4c:	9b19      	ldr	r3, [sp, #100]	@ 0x64
 8008c4e:	1c5a      	adds	r2, r3, #1
 8008c50:	9219      	str	r2, [sp, #100]	@ 0x64
 8008c52:	785a      	ldrb	r2, [r3, #1]
 8008c54:	3001      	adds	r0, #1
 8008c56:	2a30      	cmp	r2, #48	@ 0x30
 8008c58:	d0f8      	beq.n	8008c4c <_strtod_l+0x1e4>
 8008c5a:	f1a2 0331 	sub.w	r3, r2, #49	@ 0x31
 8008c5e:	2b08      	cmp	r3, #8
 8008c60:	f200 84d2 	bhi.w	8009608 <_strtod_l+0xba0>
 8008c64:	9b19      	ldr	r3, [sp, #100]	@ 0x64
 8008c66:	900a      	str	r0, [sp, #40]	@ 0x28
 8008c68:	2000      	movs	r0, #0
 8008c6a:	930c      	str	r3, [sp, #48]	@ 0x30
 8008c6c:	4605      	mov	r5, r0
 8008c6e:	3a30      	subs	r2, #48	@ 0x30
 8008c70:	f100 0301 	add.w	r3, r0, #1
 8008c74:	d018      	beq.n	8008ca8 <_strtod_l+0x240>
 8008c76:	990a      	ldr	r1, [sp, #40]	@ 0x28
 8008c78:	4419      	add	r1, r3
 8008c7a:	910a      	str	r1, [sp, #40]	@ 0x28
 8008c7c:	462e      	mov	r6, r5
 8008c7e:	f04f 0e0a 	mov.w	lr, #10
 8008c82:	1c71      	adds	r1, r6, #1
 8008c84:	eba1 0c05 	sub.w	ip, r1, r5
 8008c88:	4563      	cmp	r3, ip
 8008c8a:	dc15      	bgt.n	8008cb8 <_strtod_l+0x250>
 8008c8c:	ea20 70e0 	bic.w	r0, r0, r0, asr #31
 8008c90:	182b      	adds	r3, r5, r0
 8008c92:	2b08      	cmp	r3, #8
 8008c94:	f105 0501 	add.w	r5, r5, #1
 8008c98:	4405      	add	r5, r0
 8008c9a:	dc1a      	bgt.n	8008cd2 <_strtod_l+0x26a>
 8008c9c:	990b      	ldr	r1, [sp, #44]	@ 0x2c
 8008c9e:	230a      	movs	r3, #10
 8008ca0:	fb03 2301 	mla	r3, r3, r1, r2
 8008ca4:	930b      	str	r3, [sp, #44]	@ 0x2c
 8008ca6:	2300      	movs	r3, #0
 8008ca8:	9a19      	ldr	r2, [sp, #100]	@ 0x64
 8008caa:	1c51      	adds	r1, r2, #1
 8008cac:	9119      	str	r1, [sp, #100]	@ 0x64
 8008cae:	7852      	ldrb	r2, [r2, #1]
 8008cb0:	4618      	mov	r0, r3
 8008cb2:	e7c5      	b.n	8008c40 <_strtod_l+0x1d8>
 8008cb4:	4648      	mov	r0, r9
 8008cb6:	e7ce      	b.n	8008c56 <_strtod_l+0x1ee>
 8008cb8:	2e08      	cmp	r6, #8
 8008cba:	dc05      	bgt.n	8008cc8 <_strtod_l+0x260>
 8008cbc:	9e0b      	ldr	r6, [sp, #44]	@ 0x2c
 8008cbe:	fb0e f606 	mul.w	r6, lr, r6
 8008cc2:	960b      	str	r6, [sp, #44]	@ 0x2c
 8008cc4:	460e      	mov	r6, r1
 8008cc6:	e7dc      	b.n	8008c82 <_strtod_l+0x21a>
 8008cc8:	2910      	cmp	r1, #16
 8008cca:	bfd8      	it	le
 8008ccc:	fb0e f707 	mulle.w	r7, lr, r7
 8008cd0:	e7f8      	b.n	8008cc4 <_strtod_l+0x25c>
 8008cd2:	2b0f      	cmp	r3, #15
 8008cd4:	bfdc      	itt	le
 8008cd6:	230a      	movle	r3, #10
 8008cd8:	fb03 2707 	mlale	r7, r3, r7, r2
 8008cdc:	e7e3      	b.n	8008ca6 <_strtod_l+0x23e>
 8008cde:	2300      	movs	r3, #0
 8008ce0:	930a      	str	r3, [sp, #40]	@ 0x28
 8008ce2:	2301      	movs	r3, #1
 8008ce4:	e77a      	b.n	8008bdc <_strtod_l+0x174>
 8008ce6:	f04f 0c00 	mov.w	ip, #0
 8008cea:	1ca2      	adds	r2, r4, #2
 8008cec:	9219      	str	r2, [sp, #100]	@ 0x64
 8008cee:	78a2      	ldrb	r2, [r4, #2]
 8008cf0:	e782      	b.n	8008bf8 <_strtod_l+0x190>
 8008cf2:	f04f 0c01 	mov.w	ip, #1
 8008cf6:	e7f8      	b.n	8008cea <_strtod_l+0x282>
 8008cf8:	08033800 	.word	0x08033800
 8008cfc:	08033684 	.word	0x08033684
 8008d00:	7ff00000 	.word	0x7ff00000
 8008d04:	9a19      	ldr	r2, [sp, #100]	@ 0x64
 8008d06:	1c51      	adds	r1, r2, #1
 8008d08:	9119      	str	r1, [sp, #100]	@ 0x64
 8008d0a:	7852      	ldrb	r2, [r2, #1]
 8008d0c:	2a30      	cmp	r2, #48	@ 0x30
 8008d0e:	d0f9      	beq.n	8008d04 <_strtod_l+0x29c>
 8008d10:	f1a2 0131 	sub.w	r1, r2, #49	@ 0x31
 8008d14:	2908      	cmp	r1, #8
 8008d16:	f63f af75 	bhi.w	8008c04 <_strtod_l+0x19c>
 8008d1a:	3a30      	subs	r2, #48	@ 0x30
 8008d1c:	9209      	str	r2, [sp, #36]	@ 0x24
 8008d1e:	9a19      	ldr	r2, [sp, #100]	@ 0x64
 8008d20:	920f      	str	r2, [sp, #60]	@ 0x3c
 8008d22:	f04f 080a 	mov.w	r8, #10
 8008d26:	9a19      	ldr	r2, [sp, #100]	@ 0x64
 8008d28:	1c56      	adds	r6, r2, #1
 8008d2a:	9619      	str	r6, [sp, #100]	@ 0x64
 8008d2c:	7852      	ldrb	r2, [r2, #1]
 8008d2e:	f1a2 0e30 	sub.w	lr, r2, #48	@ 0x30
 8008d32:	f1be 0f09 	cmp.w	lr, #9
 8008d36:	d939      	bls.n	8008dac <_strtod_l+0x344>
 8008d38:	990f      	ldr	r1, [sp, #60]	@ 0x3c
 8008d3a:	1a76      	subs	r6, r6, r1
 8008d3c:	2e08      	cmp	r6, #8
 8008d3e:	f644 681f 	movw	r8, #19999	@ 0x4e1f
 8008d42:	dc03      	bgt.n	8008d4c <_strtod_l+0x2e4>
 8008d44:	9909      	ldr	r1, [sp, #36]	@ 0x24
 8008d46:	4588      	cmp	r8, r1
 8008d48:	bfa8      	it	ge
 8008d4a:	4688      	movge	r8, r1
 8008d4c:	f1bc 0f00 	cmp.w	ip, #0
 8008d50:	d001      	beq.n	8008d56 <_strtod_l+0x2ee>
 8008d52:	f1c8 0800 	rsb	r8, r8, #0
 8008d56:	2d00      	cmp	r5, #0
 8008d58:	d14e      	bne.n	8008df8 <_strtod_l+0x390>
 8008d5a:	9908      	ldr	r1, [sp, #32]
 8008d5c:	4308      	orrs	r0, r1
 8008d5e:	f47f aebc 	bne.w	8008ada <_strtod_l+0x72>
 8008d62:	2b00      	cmp	r3, #0
 8008d64:	f47f aed4 	bne.w	8008b10 <_strtod_l+0xa8>
 8008d68:	2a69      	cmp	r2, #105	@ 0x69
 8008d6a:	d028      	beq.n	8008dbe <_strtod_l+0x356>
 8008d6c:	dc25      	bgt.n	8008dba <_strtod_l+0x352>
 8008d6e:	2a49      	cmp	r2, #73	@ 0x49
 8008d70:	d025      	beq.n	8008dbe <_strtod_l+0x356>
 8008d72:	2a4e      	cmp	r2, #78	@ 0x4e
 8008d74:	f47f aecc 	bne.w	8008b10 <_strtod_l+0xa8>
 8008d78:	499a      	ldr	r1, [pc, #616]	@ (8008fe4 <_strtod_l+0x57c>)
 8008d7a:	a819      	add	r0, sp, #100	@ 0x64
 8008d7c:	f001 f948 	bl	800a010 <__match>
 8008d80:	2800      	cmp	r0, #0
 8008d82:	f43f aec5 	beq.w	8008b10 <_strtod_l+0xa8>
 8008d86:	9b19      	ldr	r3, [sp, #100]	@ 0x64
 8008d88:	781b      	ldrb	r3, [r3, #0]
 8008d8a:	2b28      	cmp	r3, #40	@ 0x28
 8008d8c:	d12e      	bne.n	8008dec <_strtod_l+0x384>
 8008d8e:	4996      	ldr	r1, [pc, #600]	@ (8008fe8 <_strtod_l+0x580>)
 8008d90:	aa1c      	add	r2, sp, #112	@ 0x70
 8008d92:	a819      	add	r0, sp, #100	@ 0x64
 8008d94:	f001 f950 	bl	800a038 <__hexnan>
 8008d98:	2805      	cmp	r0, #5
 8008d9a:	d127      	bne.n	8008dec <_strtod_l+0x384>
 8008d9c:	9b1d      	ldr	r3, [sp, #116]	@ 0x74
 8008d9e:	f8dd a070 	ldr.w	sl, [sp, #112]	@ 0x70
 8008da2:	f043 4bff 	orr.w	fp, r3, #2139095040	@ 0x7f800000
 8008da6:	f44b 0be0 	orr.w	fp, fp, #7340032	@ 0x700000
 8008daa:	e696      	b.n	8008ada <_strtod_l+0x72>
 8008dac:	9909      	ldr	r1, [sp, #36]	@ 0x24
 8008dae:	fb08 2101 	mla	r1, r8, r1, r2
 8008db2:	f1a1 0230 	sub.w	r2, r1, #48	@ 0x30
 8008db6:	9209      	str	r2, [sp, #36]	@ 0x24
 8008db8:	e7b5      	b.n	8008d26 <_strtod_l+0x2be>
 8008dba:	2a6e      	cmp	r2, #110	@ 0x6e
 8008dbc:	e7da      	b.n	8008d74 <_strtod_l+0x30c>
 8008dbe:	498b      	ldr	r1, [pc, #556]	@ (8008fec <_strtod_l+0x584>)
 8008dc0:	a819      	add	r0, sp, #100	@ 0x64
 8008dc2:	f001 f925 	bl	800a010 <__match>
 8008dc6:	2800      	cmp	r0, #0
 8008dc8:	f43f aea2 	beq.w	8008b10 <_strtod_l+0xa8>
 8008dcc:	9b19      	ldr	r3, [sp, #100]	@ 0x64
 8008dce:	4988      	ldr	r1, [pc, #544]	@ (8008ff0 <_strtod_l+0x588>)
 8008dd0:	3b01      	subs	r3, #1
 8008dd2:	a819      	add	r0, sp, #100	@ 0x64
 8008dd4:	9319      	str	r3, [sp, #100]	@ 0x64
 8008dd6:	f001 f91b 	bl	800a010 <__match>
 8008dda:	b910      	cbnz	r0, 8008de2 <_strtod_l+0x37a>
 8008ddc:	9b19      	ldr	r3, [sp, #100]	@ 0x64
 8008dde:	3301      	adds	r3, #1
 8008de0:	9319      	str	r3, [sp, #100]	@ 0x64
 8008de2:	f8df b21c 	ldr.w	fp, [pc, #540]	@ 8009000 <_strtod_l+0x598>
 8008de6:	f04f 0a00 	mov.w	sl, #0
 8008dea:	e676      	b.n	8008ada <_strtod_l+0x72>
 8008dec:	4881      	ldr	r0, [pc, #516]	@ (8008ff4 <_strtod_l+0x58c>)
 8008dee:	f000 fe33 	bl	8009a58 <nan>
 8008df2:	ec5b ab10 	vmov	sl, fp, d0
 8008df6:	e670      	b.n	8008ada <_strtod_l+0x72>
 8008df8:	9b0a      	ldr	r3, [sp, #40]	@ 0x28
 8008dfa:	980b      	ldr	r0, [sp, #44]	@ 0x2c
 8008dfc:	eba8 0303 	sub.w	r3, r8, r3
 8008e00:	f1b9 0f00 	cmp.w	r9, #0
 8008e04:	bf08      	it	eq
 8008e06:	46a9      	moveq	r9, r5
 8008e08:	2d10      	cmp	r5, #16
 8008e0a:	9309      	str	r3, [sp, #36]	@ 0x24
 8008e0c:	462c      	mov	r4, r5
 8008e0e:	bfa8      	it	ge
 8008e10:	2410      	movge	r4, #16
 8008e12:	f7f7 fb87 	bl	8000524 <__aeabi_ui2d>
 8008e16:	2d09      	cmp	r5, #9
 8008e18:	4682      	mov	sl, r0
 8008e1a:	468b      	mov	fp, r1
 8008e1c:	dc13      	bgt.n	8008e46 <_strtod_l+0x3de>
 8008e1e:	9b09      	ldr	r3, [sp, #36]	@ 0x24
 8008e20:	2b00      	cmp	r3, #0
 8008e22:	f43f ae5a 	beq.w	8008ada <_strtod_l+0x72>
 8008e26:	9b09      	ldr	r3, [sp, #36]	@ 0x24
 8008e28:	dd78      	ble.n	8008f1c <_strtod_l+0x4b4>
 8008e2a:	2b16      	cmp	r3, #22
 8008e2c:	dc5f      	bgt.n	8008eee <_strtod_l+0x486>
 8008e2e:	4972      	ldr	r1, [pc, #456]	@ (8008ff8 <_strtod_l+0x590>)
 8008e30:	eb01 01c3 	add.w	r1, r1, r3, lsl #3
 8008e34:	e9d1 0100 	ldrd	r0, r1, [r1]
 8008e38:	4652      	mov	r2, sl
 8008e3a:	465b      	mov	r3, fp
 8008e3c:	f7f7 fbec 	bl	8000618 <__aeabi_dmul>
 8008e40:	4682      	mov	sl, r0
 8008e42:	468b      	mov	fp, r1
 8008e44:	e649      	b.n	8008ada <_strtod_l+0x72>
 8008e46:	4b6c      	ldr	r3, [pc, #432]	@ (8008ff8 <_strtod_l+0x590>)
 8008e48:	eb03 03c4 	add.w	r3, r3, r4, lsl #3
 8008e4c:	e953 2312 	ldrd	r2, r3, [r3, #-72]	@ 0x48
 8008e50:	f7f7 fbe2 	bl	8000618 <__aeabi_dmul>
 8008e54:	4682      	mov	sl, r0
 8008e56:	4638      	mov	r0, r7
 8008e58:	468b      	mov	fp, r1
 8008e5a:	f7f7 fb63 	bl	8000524 <__aeabi_ui2d>
 8008e5e:	4602      	mov	r2, r0
 8008e60:	460b      	mov	r3, r1
 8008e62:	4650      	mov	r0, sl
 8008e64:	4659      	mov	r1, fp
 8008e66:	f7f7 fa21 	bl	80002ac <__adddf3>
 8008e6a:	2d0f      	cmp	r5, #15
 8008e6c:	4682      	mov	sl, r0
 8008e6e:	468b      	mov	fp, r1
 8008e70:	ddd5      	ble.n	8008e1e <_strtod_l+0x3b6>
 8008e72:	9b09      	ldr	r3, [sp, #36]	@ 0x24
 8008e74:	1b2c      	subs	r4, r5, r4
 8008e76:	441c      	add	r4, r3
 8008e78:	2c00      	cmp	r4, #0
 8008e7a:	f340 8093 	ble.w	8008fa4 <_strtod_l+0x53c>
 8008e7e:	f014 030f 	ands.w	r3, r4, #15
 8008e82:	d00a      	beq.n	8008e9a <_strtod_l+0x432>
 8008e84:	495c      	ldr	r1, [pc, #368]	@ (8008ff8 <_strtod_l+0x590>)
 8008e86:	eb01 01c3 	add.w	r1, r1, r3, lsl #3
 8008e8a:	4652      	mov	r2, sl
 8008e8c:	465b      	mov	r3, fp
 8008e8e:	e9d1 0100 	ldrd	r0, r1, [r1]
 8008e92:	f7f7 fbc1 	bl	8000618 <__aeabi_dmul>
 8008e96:	4682      	mov	sl, r0
 8008e98:	468b      	mov	fp, r1
 8008e9a:	f034 040f 	bics.w	r4, r4, #15
 8008e9e:	d073      	beq.n	8008f88 <_strtod_l+0x520>
 8008ea0:	f5b4 7f9a 	cmp.w	r4, #308	@ 0x134
 8008ea4:	dd49      	ble.n	8008f3a <_strtod_l+0x4d2>
 8008ea6:	2400      	movs	r4, #0
 8008ea8:	46a0      	mov	r8, r4
 8008eaa:	940b      	str	r4, [sp, #44]	@ 0x2c
 8008eac:	46a1      	mov	r9, r4
 8008eae:	9a05      	ldr	r2, [sp, #20]
 8008eb0:	f8df b14c 	ldr.w	fp, [pc, #332]	@ 8009000 <_strtod_l+0x598>
 8008eb4:	2322      	movs	r3, #34	@ 0x22
 8008eb6:	6013      	str	r3, [r2, #0]
 8008eb8:	f04f 0a00 	mov.w	sl, #0
 8008ebc:	9b0b      	ldr	r3, [sp, #44]	@ 0x2c
 8008ebe:	2b00      	cmp	r3, #0
 8008ec0:	f43f ae0b 	beq.w	8008ada <_strtod_l+0x72>
 8008ec4:	991a      	ldr	r1, [sp, #104]	@ 0x68
 8008ec6:	9805      	ldr	r0, [sp, #20]
 8008ec8:	f001 f9a4 	bl	800a214 <_Bfree>
 8008ecc:	9805      	ldr	r0, [sp, #20]
 8008ece:	4649      	mov	r1, r9
 8008ed0:	f001 f9a0 	bl	800a214 <_Bfree>
 8008ed4:	9805      	ldr	r0, [sp, #20]
 8008ed6:	4641      	mov	r1, r8
 8008ed8:	f001 f99c 	bl	800a214 <_Bfree>
 8008edc:	990b      	ldr	r1, [sp, #44]	@ 0x2c
 8008ede:	9805      	ldr	r0, [sp, #20]
 8008ee0:	f001 f998 	bl	800a214 <_Bfree>
 8008ee4:	9805      	ldr	r0, [sp, #20]
 8008ee6:	4621      	mov	r1, r4
 8008ee8:	f001 f994 	bl	800a214 <_Bfree>
 8008eec:	e5f5      	b.n	8008ada <_strtod_l+0x72>
 8008eee:	9a09      	ldr	r2, [sp, #36]	@ 0x24
 8008ef0:	f1c5 0325 	rsb	r3, r5, #37	@ 0x25
 8008ef4:	4293      	cmp	r3, r2
 8008ef6:	dbbc      	blt.n	8008e72 <_strtod_l+0x40a>
 8008ef8:	4c3f      	ldr	r4, [pc, #252]	@ (8008ff8 <_strtod_l+0x590>)
 8008efa:	f1c5 050f 	rsb	r5, r5, #15
 8008efe:	eb04 01c5 	add.w	r1, r4, r5, lsl #3
 8008f02:	4652      	mov	r2, sl
 8008f04:	465b      	mov	r3, fp
 8008f06:	e9d1 0100 	ldrd	r0, r1, [r1]
 8008f0a:	f7f7 fb85 	bl	8000618 <__aeabi_dmul>
 8008f0e:	9b09      	ldr	r3, [sp, #36]	@ 0x24
 8008f10:	1b5d      	subs	r5, r3, r5
 8008f12:	eb04 04c5 	add.w	r4, r4, r5, lsl #3
 8008f16:	e9d4 2300 	ldrd	r2, r3, [r4]
 8008f1a:	e78f      	b.n	8008e3c <_strtod_l+0x3d4>
 8008f1c:	3316      	adds	r3, #22
 8008f1e:	dba8      	blt.n	8008e72 <_strtod_l+0x40a>
 8008f20:	9b0a      	ldr	r3, [sp, #40]	@ 0x28
 8008f22:	eba3 0808 	sub.w	r8, r3, r8
 8008f26:	4b34      	ldr	r3, [pc, #208]	@ (8008ff8 <_strtod_l+0x590>)
 8008f28:	eb03 08c8 	add.w	r8, r3, r8, lsl #3
 8008f2c:	e9d8 2300 	ldrd	r2, r3, [r8]
 8008f30:	4650      	mov	r0, sl
 8008f32:	4659      	mov	r1, fp
 8008f34:	f7f7 fc9a 	bl	800086c <__aeabi_ddiv>
 8008f38:	e782      	b.n	8008e40 <_strtod_l+0x3d8>
 8008f3a:	2300      	movs	r3, #0
 8008f3c:	4f2f      	ldr	r7, [pc, #188]	@ (8008ffc <_strtod_l+0x594>)
 8008f3e:	1124      	asrs	r4, r4, #4
 8008f40:	4650      	mov	r0, sl
 8008f42:	4659      	mov	r1, fp
 8008f44:	461e      	mov	r6, r3
 8008f46:	2c01      	cmp	r4, #1
 8008f48:	dc21      	bgt.n	8008f8e <_strtod_l+0x526>
 8008f4a:	b10b      	cbz	r3, 8008f50 <_strtod_l+0x4e8>
 8008f4c:	4682      	mov	sl, r0
 8008f4e:	468b      	mov	fp, r1
 8008f50:	492a      	ldr	r1, [pc, #168]	@ (8008ffc <_strtod_l+0x594>)
 8008f52:	f1ab 7b54 	sub.w	fp, fp, #55574528	@ 0x3500000
 8008f56:	eb01 01c6 	add.w	r1, r1, r6, lsl #3
 8008f5a:	4652      	mov	r2, sl
 8008f5c:	465b      	mov	r3, fp
 8008f5e:	e9d1 0100 	ldrd	r0, r1, [r1]
 8008f62:	f7f7 fb59 	bl	8000618 <__aeabi_dmul>
 8008f66:	4b26      	ldr	r3, [pc, #152]	@ (8009000 <_strtod_l+0x598>)
 8008f68:	460a      	mov	r2, r1
 8008f6a:	400b      	ands	r3, r1
 8008f6c:	4925      	ldr	r1, [pc, #148]	@ (8009004 <_strtod_l+0x59c>)
 8008f6e:	428b      	cmp	r3, r1
 8008f70:	4682      	mov	sl, r0
 8008f72:	d898      	bhi.n	8008ea6 <_strtod_l+0x43e>
 8008f74:	f5a1 1180 	sub.w	r1, r1, #1048576	@ 0x100000
 8008f78:	428b      	cmp	r3, r1
 8008f7a:	bf86      	itte	hi
 8008f7c:	f8df b088 	ldrhi.w	fp, [pc, #136]	@ 8009008 <_strtod_l+0x5a0>
 8008f80:	f04f 3aff 	movhi.w	sl, #4294967295
 8008f84:	f102 7b54 	addls.w	fp, r2, #55574528	@ 0x3500000
 8008f88:	2300      	movs	r3, #0
 8008f8a:	9308      	str	r3, [sp, #32]
 8008f8c:	e076      	b.n	800907c <_strtod_l+0x614>
 8008f8e:	07e2      	lsls	r2, r4, #31
 8008f90:	d504      	bpl.n	8008f9c <_strtod_l+0x534>
 8008f92:	e9d7 2300 	ldrd	r2, r3, [r7]
 8008f96:	f7f7 fb3f 	bl	8000618 <__aeabi_dmul>
 8008f9a:	2301      	movs	r3, #1
 8008f9c:	3601      	adds	r6, #1
 8008f9e:	1064      	asrs	r4, r4, #1
 8008fa0:	3708      	adds	r7, #8
 8008fa2:	e7d0      	b.n	8008f46 <_strtod_l+0x4de>
 8008fa4:	d0f0      	beq.n	8008f88 <_strtod_l+0x520>
 8008fa6:	4264      	negs	r4, r4
 8008fa8:	f014 020f 	ands.w	r2, r4, #15
 8008fac:	d00a      	beq.n	8008fc4 <_strtod_l+0x55c>
 8008fae:	4b12      	ldr	r3, [pc, #72]	@ (8008ff8 <_strtod_l+0x590>)
 8008fb0:	eb03 03c2 	add.w	r3, r3, r2, lsl #3
 8008fb4:	4650      	mov	r0, sl
 8008fb6:	4659      	mov	r1, fp
 8008fb8:	e9d3 2300 	ldrd	r2, r3, [r3]
 8008fbc:	f7f7 fc56 	bl	800086c <__aeabi_ddiv>
 8008fc0:	4682      	mov	sl, r0
 8008fc2:	468b      	mov	fp, r1
 8008fc4:	1124      	asrs	r4, r4, #4
 8008fc6:	d0df      	beq.n	8008f88 <_strtod_l+0x520>
 8008fc8:	2c1f      	cmp	r4, #31
 8008fca:	dd1f      	ble.n	800900c <_strtod_l+0x5a4>
 8008fcc:	2400      	movs	r4, #0
 8008fce:	46a0      	mov	r8, r4
 8008fd0:	940b      	str	r4, [sp, #44]	@ 0x2c
 8008fd2:	46a1      	mov	r9, r4
 8008fd4:	9a05      	ldr	r2, [sp, #20]
 8008fd6:	2322      	movs	r3, #34	@ 0x22
 8008fd8:	f04f 0a00 	mov.w	sl, #0
 8008fdc:	f04f 0b00 	mov.w	fp, #0
 8008fe0:	6013      	str	r3, [r2, #0]
 8008fe2:	e76b      	b.n	8008ebc <_strtod_l+0x454>
 8008fe4:	0803368f 	.word	0x0803368f
 8008fe8:	080337ec 	.word	0x080337ec
 8008fec:	08033686 	.word	0x08033686
 8008ff0:	08033689 	.word	0x08033689
 8008ff4:	080337e9 	.word	0x080337e9
 8008ff8:	08033978 	.word	0x08033978
 8008ffc:	08033950 	.word	0x08033950
 8009000:	7ff00000 	.word	0x7ff00000
 8009004:	7ca00000 	.word	0x7ca00000
 8009008:	7fefffff 	.word	0x7fefffff
 800900c:	f014 0310 	ands.w	r3, r4, #16
 8009010:	bf18      	it	ne
 8009012:	236a      	movne	r3, #106	@ 0x6a
 8009014:	4ea9      	ldr	r6, [pc, #676]	@ (80092bc <_strtod_l+0x854>)
 8009016:	9308      	str	r3, [sp, #32]
 8009018:	4650      	mov	r0, sl
 800901a:	4659      	mov	r1, fp
 800901c:	2300      	movs	r3, #0
 800901e:	07e7      	lsls	r7, r4, #31
 8009020:	d504      	bpl.n	800902c <_strtod_l+0x5c4>
 8009022:	e9d6 2300 	ldrd	r2, r3, [r6]
 8009026:	f7f7 faf7 	bl	8000618 <__aeabi_dmul>
 800902a:	2301      	movs	r3, #1
 800902c:	1064      	asrs	r4, r4, #1
 800902e:	f106 0608 	add.w	r6, r6, #8
 8009032:	d1f4      	bne.n	800901e <_strtod_l+0x5b6>
 8009034:	b10b      	cbz	r3, 800903a <_strtod_l+0x5d2>
 8009036:	4682      	mov	sl, r0
 8009038:	468b      	mov	fp, r1
 800903a:	9b08      	ldr	r3, [sp, #32]
 800903c:	b1b3      	cbz	r3, 800906c <_strtod_l+0x604>
 800903e:	f3cb 520a 	ubfx	r2, fp, #20, #11
 8009042:	f1c2 036b 	rsb	r3, r2, #107	@ 0x6b
 8009046:	2b00      	cmp	r3, #0
 8009048:	4659      	mov	r1, fp
 800904a:	dd0f      	ble.n	800906c <_strtod_l+0x604>
 800904c:	2b1f      	cmp	r3, #31
 800904e:	dd56      	ble.n	80090fe <_strtod_l+0x696>
 8009050:	2b34      	cmp	r3, #52	@ 0x34
 8009052:	bfde      	ittt	le
 8009054:	f04f 33ff 	movle.w	r3, #4294967295
 8009058:	f1c2 024b 	rsble	r2, r2, #75	@ 0x4b
 800905c:	4093      	lslle	r3, r2
 800905e:	f04f 0a00 	mov.w	sl, #0
 8009062:	bfcc      	ite	gt
 8009064:	f04f 7b5c 	movgt.w	fp, #57671680	@ 0x3700000
 8009068:	ea03 0b01 	andle.w	fp, r3, r1
 800906c:	2200      	movs	r2, #0
 800906e:	2300      	movs	r3, #0
 8009070:	4650      	mov	r0, sl
 8009072:	4659      	mov	r1, fp
 8009074:	f7f7 fd38 	bl	8000ae8 <__aeabi_dcmpeq>
 8009078:	2800      	cmp	r0, #0
 800907a:	d1a7      	bne.n	8008fcc <_strtod_l+0x564>
 800907c:	9b0b      	ldr	r3, [sp, #44]	@ 0x2c
 800907e:	9300      	str	r3, [sp, #0]
 8009080:	990c      	ldr	r1, [sp, #48]	@ 0x30
 8009082:	9805      	ldr	r0, [sp, #20]
 8009084:	462b      	mov	r3, r5
 8009086:	464a      	mov	r2, r9
 8009088:	f001 f92c 	bl	800a2e4 <__s2b>
 800908c:	900b      	str	r0, [sp, #44]	@ 0x2c
 800908e:	2800      	cmp	r0, #0
 8009090:	f43f af09 	beq.w	8008ea6 <_strtod_l+0x43e>
 8009094:	9a09      	ldr	r2, [sp, #36]	@ 0x24
 8009096:	9b0a      	ldr	r3, [sp, #40]	@ 0x28
 8009098:	2a00      	cmp	r2, #0
 800909a:	eba3 0308 	sub.w	r3, r3, r8
 800909e:	bfa8      	it	ge
 80090a0:	2300      	movge	r3, #0
 80090a2:	9312      	str	r3, [sp, #72]	@ 0x48
 80090a4:	2400      	movs	r4, #0
 80090a6:	ea22 73e2 	bic.w	r3, r2, r2, asr #31
 80090aa:	9316      	str	r3, [sp, #88]	@ 0x58
 80090ac:	46a0      	mov	r8, r4
 80090ae:	9b0b      	ldr	r3, [sp, #44]	@ 0x2c
 80090b0:	9805      	ldr	r0, [sp, #20]
 80090b2:	6859      	ldr	r1, [r3, #4]
 80090b4:	f001 f86e 	bl	800a194 <_Balloc>
 80090b8:	4681      	mov	r9, r0
 80090ba:	2800      	cmp	r0, #0
 80090bc:	f43f aef7 	beq.w	8008eae <_strtod_l+0x446>
 80090c0:	9b0b      	ldr	r3, [sp, #44]	@ 0x2c
 80090c2:	691a      	ldr	r2, [r3, #16]
 80090c4:	3202      	adds	r2, #2
 80090c6:	f103 010c 	add.w	r1, r3, #12
 80090ca:	0092      	lsls	r2, r2, #2
 80090cc:	300c      	adds	r0, #12
 80090ce:	f000 fcb4 	bl	8009a3a <memcpy>
 80090d2:	ec4b ab10 	vmov	d0, sl, fp
 80090d6:	9805      	ldr	r0, [sp, #20]
 80090d8:	aa1c      	add	r2, sp, #112	@ 0x70
 80090da:	a91b      	add	r1, sp, #108	@ 0x6c
 80090dc:	e9cd ab0c 	strd	sl, fp, [sp, #48]	@ 0x30
 80090e0:	f001 fc34 	bl	800a94c <__d2b>
 80090e4:	901a      	str	r0, [sp, #104]	@ 0x68
 80090e6:	2800      	cmp	r0, #0
 80090e8:	f43f aee1 	beq.w	8008eae <_strtod_l+0x446>
 80090ec:	9805      	ldr	r0, [sp, #20]
 80090ee:	2101      	movs	r1, #1
 80090f0:	f001 f98e 	bl	800a410 <__i2b>
 80090f4:	4680      	mov	r8, r0
 80090f6:	b948      	cbnz	r0, 800910c <_strtod_l+0x6a4>
 80090f8:	f04f 0800 	mov.w	r8, #0
 80090fc:	e6d7      	b.n	8008eae <_strtod_l+0x446>
 80090fe:	f04f 32ff 	mov.w	r2, #4294967295
 8009102:	fa02 f303 	lsl.w	r3, r2, r3
 8009106:	ea03 0a0a 	and.w	sl, r3, sl
 800910a:	e7af      	b.n	800906c <_strtod_l+0x604>
 800910c:	9d1b      	ldr	r5, [sp, #108]	@ 0x6c
 800910e:	9a1c      	ldr	r2, [sp, #112]	@ 0x70
 8009110:	2d00      	cmp	r5, #0
 8009112:	bfab      	itete	ge
 8009114:	9b12      	ldrge	r3, [sp, #72]	@ 0x48
 8009116:	9b16      	ldrlt	r3, [sp, #88]	@ 0x58
 8009118:	9e16      	ldrge	r6, [sp, #88]	@ 0x58
 800911a:	9f12      	ldrlt	r7, [sp, #72]	@ 0x48
 800911c:	bfac      	ite	ge
 800911e:	18ef      	addge	r7, r5, r3
 8009120:	1b5e      	sublt	r6, r3, r5
 8009122:	9b08      	ldr	r3, [sp, #32]
 8009124:	1aed      	subs	r5, r5, r3
 8009126:	4415      	add	r5, r2
 8009128:	4b65      	ldr	r3, [pc, #404]	@ (80092c0 <_strtod_l+0x858>)
 800912a:	3d01      	subs	r5, #1
 800912c:	429d      	cmp	r5, r3
 800912e:	f1c2 0236 	rsb	r2, r2, #54	@ 0x36
 8009132:	da50      	bge.n	80091d6 <_strtod_l+0x76e>
 8009134:	1b5b      	subs	r3, r3, r5
 8009136:	2b1f      	cmp	r3, #31
 8009138:	eba2 0203 	sub.w	r2, r2, r3
 800913c:	f04f 0101 	mov.w	r1, #1
 8009140:	dc3d      	bgt.n	80091be <_strtod_l+0x756>
 8009142:	fa01 f303 	lsl.w	r3, r1, r3
 8009146:	9313      	str	r3, [sp, #76]	@ 0x4c
 8009148:	2300      	movs	r3, #0
 800914a:	9310      	str	r3, [sp, #64]	@ 0x40
 800914c:	18bd      	adds	r5, r7, r2
 800914e:	9b08      	ldr	r3, [sp, #32]
 8009150:	42af      	cmp	r7, r5
 8009152:	4416      	add	r6, r2
 8009154:	441e      	add	r6, r3
 8009156:	463b      	mov	r3, r7
 8009158:	bfa8      	it	ge
 800915a:	462b      	movge	r3, r5
 800915c:	42b3      	cmp	r3, r6
 800915e:	bfa8      	it	ge
 8009160:	4633      	movge	r3, r6
 8009162:	2b00      	cmp	r3, #0
 8009164:	bfc2      	ittt	gt
 8009166:	1aed      	subgt	r5, r5, r3
 8009168:	1af6      	subgt	r6, r6, r3
 800916a:	1aff      	subgt	r7, r7, r3
 800916c:	9b12      	ldr	r3, [sp, #72]	@ 0x48
 800916e:	2b00      	cmp	r3, #0
 8009170:	dd16      	ble.n	80091a0 <_strtod_l+0x738>
 8009172:	4641      	mov	r1, r8
 8009174:	9805      	ldr	r0, [sp, #20]
 8009176:	461a      	mov	r2, r3
 8009178:	f001 fa02 	bl	800a580 <__pow5mult>
 800917c:	4680      	mov	r8, r0
 800917e:	2800      	cmp	r0, #0
 8009180:	d0ba      	beq.n	80090f8 <_strtod_l+0x690>
 8009182:	4601      	mov	r1, r0
 8009184:	9a1a      	ldr	r2, [sp, #104]	@ 0x68
 8009186:	9805      	ldr	r0, [sp, #20]
 8009188:	f001 f958 	bl	800a43c <__multiply>
 800918c:	900a      	str	r0, [sp, #40]	@ 0x28
 800918e:	2800      	cmp	r0, #0
 8009190:	f43f ae8d 	beq.w	8008eae <_strtod_l+0x446>
 8009194:	991a      	ldr	r1, [sp, #104]	@ 0x68
 8009196:	9805      	ldr	r0, [sp, #20]
 8009198:	f001 f83c 	bl	800a214 <_Bfree>
 800919c:	9b0a      	ldr	r3, [sp, #40]	@ 0x28
 800919e:	931a      	str	r3, [sp, #104]	@ 0x68
 80091a0:	2d00      	cmp	r5, #0
 80091a2:	dc1d      	bgt.n	80091e0 <_strtod_l+0x778>
 80091a4:	9b09      	ldr	r3, [sp, #36]	@ 0x24
 80091a6:	2b00      	cmp	r3, #0
 80091a8:	dd23      	ble.n	80091f2 <_strtod_l+0x78a>
 80091aa:	4649      	mov	r1, r9
 80091ac:	9a16      	ldr	r2, [sp, #88]	@ 0x58
 80091ae:	9805      	ldr	r0, [sp, #20]
 80091b0:	f001 f9e6 	bl	800a580 <__pow5mult>
 80091b4:	4681      	mov	r9, r0
 80091b6:	b9e0      	cbnz	r0, 80091f2 <_strtod_l+0x78a>
 80091b8:	f04f 0900 	mov.w	r9, #0
 80091bc:	e677      	b.n	8008eae <_strtod_l+0x446>
 80091be:	f1c5 457f 	rsb	r5, r5, #4278190080	@ 0xff000000
 80091c2:	f505 057f 	add.w	r5, r5, #16711680	@ 0xff0000
 80091c6:	f505 457b 	add.w	r5, r5, #64256	@ 0xfb00
 80091ca:	35e2      	adds	r5, #226	@ 0xe2
 80091cc:	fa01 f305 	lsl.w	r3, r1, r5
 80091d0:	9310      	str	r3, [sp, #64]	@ 0x40
 80091d2:	9113      	str	r1, [sp, #76]	@ 0x4c
 80091d4:	e7ba      	b.n	800914c <_strtod_l+0x6e4>
 80091d6:	2300      	movs	r3, #0
 80091d8:	9310      	str	r3, [sp, #64]	@ 0x40
 80091da:	2301      	movs	r3, #1
 80091dc:	9313      	str	r3, [sp, #76]	@ 0x4c
 80091de:	e7b5      	b.n	800914c <_strtod_l+0x6e4>
 80091e0:	991a      	ldr	r1, [sp, #104]	@ 0x68
 80091e2:	9805      	ldr	r0, [sp, #20]
 80091e4:	462a      	mov	r2, r5
 80091e6:	f001 fa25 	bl	800a634 <__lshift>
 80091ea:	901a      	str	r0, [sp, #104]	@ 0x68
 80091ec:	2800      	cmp	r0, #0
 80091ee:	d1d9      	bne.n	80091a4 <_strtod_l+0x73c>
 80091f0:	e65d      	b.n	8008eae <_strtod_l+0x446>
 80091f2:	2e00      	cmp	r6, #0
 80091f4:	dd07      	ble.n	8009206 <_strtod_l+0x79e>
 80091f6:	4649      	mov	r1, r9
 80091f8:	9805      	ldr	r0, [sp, #20]
 80091fa:	4632      	mov	r2, r6
 80091fc:	f001 fa1a 	bl	800a634 <__lshift>
 8009200:	4681      	mov	r9, r0
 8009202:	2800      	cmp	r0, #0
 8009204:	d0d8      	beq.n	80091b8 <_strtod_l+0x750>
 8009206:	2f00      	cmp	r7, #0
 8009208:	dd08      	ble.n	800921c <_strtod_l+0x7b4>
 800920a:	4641      	mov	r1, r8
 800920c:	9805      	ldr	r0, [sp, #20]
 800920e:	463a      	mov	r2, r7
 8009210:	f001 fa10 	bl	800a634 <__lshift>
 8009214:	4680      	mov	r8, r0
 8009216:	2800      	cmp	r0, #0
 8009218:	f43f ae49 	beq.w	8008eae <_strtod_l+0x446>
 800921c:	991a      	ldr	r1, [sp, #104]	@ 0x68
 800921e:	9805      	ldr	r0, [sp, #20]
 8009220:	464a      	mov	r2, r9
 8009222:	f001 fa8f 	bl	800a744 <__mdiff>
 8009226:	4604      	mov	r4, r0
 8009228:	2800      	cmp	r0, #0
 800922a:	f43f ae40 	beq.w	8008eae <_strtod_l+0x446>
 800922e:	68c3      	ldr	r3, [r0, #12]
 8009230:	930f      	str	r3, [sp, #60]	@ 0x3c
 8009232:	2300      	movs	r3, #0
 8009234:	60c3      	str	r3, [r0, #12]
 8009236:	4641      	mov	r1, r8
 8009238:	f001 fa68 	bl	800a70c <__mcmp>
 800923c:	2800      	cmp	r0, #0
 800923e:	da45      	bge.n	80092cc <_strtod_l+0x864>
 8009240:	9b0f      	ldr	r3, [sp, #60]	@ 0x3c
 8009242:	ea53 030a 	orrs.w	r3, r3, sl
 8009246:	d16b      	bne.n	8009320 <_strtod_l+0x8b8>
 8009248:	f3cb 0313 	ubfx	r3, fp, #0, #20
 800924c:	2b00      	cmp	r3, #0
 800924e:	d167      	bne.n	8009320 <_strtod_l+0x8b8>
 8009250:	f02b 4300 	bic.w	r3, fp, #2147483648	@ 0x80000000
 8009254:	0d1b      	lsrs	r3, r3, #20
 8009256:	051b      	lsls	r3, r3, #20
 8009258:	f1b3 6fd6 	cmp.w	r3, #112197632	@ 0x6b00000
 800925c:	d960      	bls.n	8009320 <_strtod_l+0x8b8>
 800925e:	6963      	ldr	r3, [r4, #20]
 8009260:	b913      	cbnz	r3, 8009268 <_strtod_l+0x800>
 8009262:	6923      	ldr	r3, [r4, #16]
 8009264:	2b01      	cmp	r3, #1
 8009266:	dd5b      	ble.n	8009320 <_strtod_l+0x8b8>
 8009268:	4621      	mov	r1, r4
 800926a:	2201      	movs	r2, #1
 800926c:	9805      	ldr	r0, [sp, #20]
 800926e:	f001 f9e1 	bl	800a634 <__lshift>
 8009272:	4641      	mov	r1, r8
 8009274:	4604      	mov	r4, r0
 8009276:	f001 fa49 	bl	800a70c <__mcmp>
 800927a:	2800      	cmp	r0, #0
 800927c:	dd50      	ble.n	8009320 <_strtod_l+0x8b8>
 800927e:	f02b 4300 	bic.w	r3, fp, #2147483648	@ 0x80000000
 8009282:	9a08      	ldr	r2, [sp, #32]
 8009284:	0d1b      	lsrs	r3, r3, #20
 8009286:	051b      	lsls	r3, r3, #20
 8009288:	2a00      	cmp	r2, #0
 800928a:	d06a      	beq.n	8009362 <_strtod_l+0x8fa>
 800928c:	f1b3 6fd6 	cmp.w	r3, #112197632	@ 0x6b00000
 8009290:	d867      	bhi.n	8009362 <_strtod_l+0x8fa>
 8009292:	f1b3 7f5c 	cmp.w	r3, #57671680	@ 0x3700000
 8009296:	f67f ae9d 	bls.w	8008fd4 <_strtod_l+0x56c>
 800929a:	4b0a      	ldr	r3, [pc, #40]	@ (80092c4 <_strtod_l+0x85c>)
 800929c:	4650      	mov	r0, sl
 800929e:	4659      	mov	r1, fp
 80092a0:	2200      	movs	r2, #0
 80092a2:	f7f7 f9b9 	bl	8000618 <__aeabi_dmul>
 80092a6:	4b08      	ldr	r3, [pc, #32]	@ (80092c8 <_strtod_l+0x860>)
 80092a8:	400b      	ands	r3, r1
 80092aa:	4682      	mov	sl, r0
 80092ac:	468b      	mov	fp, r1
 80092ae:	2b00      	cmp	r3, #0
 80092b0:	f47f ae08 	bne.w	8008ec4 <_strtod_l+0x45c>
 80092b4:	9a05      	ldr	r2, [sp, #20]
 80092b6:	2322      	movs	r3, #34	@ 0x22
 80092b8:	6013      	str	r3, [r2, #0]
 80092ba:	e603      	b.n	8008ec4 <_strtod_l+0x45c>
 80092bc:	08033818 	.word	0x08033818
 80092c0:	fffffc02 	.word	0xfffffc02
 80092c4:	39500000 	.word	0x39500000
 80092c8:	7ff00000 	.word	0x7ff00000
 80092cc:	f8cd b028 	str.w	fp, [sp, #40]	@ 0x28
 80092d0:	d165      	bne.n	800939e <_strtod_l+0x936>
 80092d2:	9a0f      	ldr	r2, [sp, #60]	@ 0x3c
 80092d4:	f3cb 0313 	ubfx	r3, fp, #0, #20
 80092d8:	b35a      	cbz	r2, 8009332 <_strtod_l+0x8ca>
 80092da:	4a9f      	ldr	r2, [pc, #636]	@ (8009558 <_strtod_l+0xaf0>)
 80092dc:	4293      	cmp	r3, r2
 80092de:	d12b      	bne.n	8009338 <_strtod_l+0x8d0>
 80092e0:	9b08      	ldr	r3, [sp, #32]
 80092e2:	4651      	mov	r1, sl
 80092e4:	b303      	cbz	r3, 8009328 <_strtod_l+0x8c0>
 80092e6:	4b9d      	ldr	r3, [pc, #628]	@ (800955c <_strtod_l+0xaf4>)
 80092e8:	465a      	mov	r2, fp
 80092ea:	4013      	ands	r3, r2
 80092ec:	f1b3 6fd4 	cmp.w	r3, #111149056	@ 0x6a00000
 80092f0:	f04f 32ff 	mov.w	r2, #4294967295
 80092f4:	d81b      	bhi.n	800932e <_strtod_l+0x8c6>
 80092f6:	0d1b      	lsrs	r3, r3, #20
 80092f8:	f1c3 036b 	rsb	r3, r3, #107	@ 0x6b
 80092fc:	fa02 f303 	lsl.w	r3, r2, r3
 8009300:	4299      	cmp	r1, r3
 8009302:	d119      	bne.n	8009338 <_strtod_l+0x8d0>
 8009304:	4b96      	ldr	r3, [pc, #600]	@ (8009560 <_strtod_l+0xaf8>)
 8009306:	9a0a      	ldr	r2, [sp, #40]	@ 0x28
 8009308:	429a      	cmp	r2, r3
 800930a:	d102      	bne.n	8009312 <_strtod_l+0x8aa>
 800930c:	3101      	adds	r1, #1
 800930e:	f43f adce 	beq.w	8008eae <_strtod_l+0x446>
 8009312:	4b92      	ldr	r3, [pc, #584]	@ (800955c <_strtod_l+0xaf4>)
 8009314:	9a0a      	ldr	r2, [sp, #40]	@ 0x28
 8009316:	401a      	ands	r2, r3
 8009318:	f502 1b80 	add.w	fp, r2, #1048576	@ 0x100000
 800931c:	f04f 0a00 	mov.w	sl, #0
 8009320:	9b08      	ldr	r3, [sp, #32]
 8009322:	2b00      	cmp	r3, #0
 8009324:	d1b9      	bne.n	800929a <_strtod_l+0x832>
 8009326:	e5cd      	b.n	8008ec4 <_strtod_l+0x45c>
 8009328:	f04f 33ff 	mov.w	r3, #4294967295
 800932c:	e7e8      	b.n	8009300 <_strtod_l+0x898>
 800932e:	4613      	mov	r3, r2
 8009330:	e7e6      	b.n	8009300 <_strtod_l+0x898>
 8009332:	ea53 030a 	orrs.w	r3, r3, sl
 8009336:	d0a2      	beq.n	800927e <_strtod_l+0x816>
 8009338:	9b10      	ldr	r3, [sp, #64]	@ 0x40
 800933a:	b1db      	cbz	r3, 8009374 <_strtod_l+0x90c>
 800933c:	9a0a      	ldr	r2, [sp, #40]	@ 0x28
 800933e:	4213      	tst	r3, r2
 8009340:	d0ee      	beq.n	8009320 <_strtod_l+0x8b8>
 8009342:	9b0f      	ldr	r3, [sp, #60]	@ 0x3c
 8009344:	9a08      	ldr	r2, [sp, #32]
 8009346:	4650      	mov	r0, sl
 8009348:	4659      	mov	r1, fp
 800934a:	b1bb      	cbz	r3, 800937c <_strtod_l+0x914>
 800934c:	f7ff fb6c 	bl	8008a28 <sulp>
 8009350:	e9dd 010c 	ldrd	r0, r1, [sp, #48]	@ 0x30
 8009354:	ec53 2b10 	vmov	r2, r3, d0
 8009358:	f7f6 ffa8 	bl	80002ac <__adddf3>
 800935c:	4682      	mov	sl, r0
 800935e:	468b      	mov	fp, r1
 8009360:	e7de      	b.n	8009320 <_strtod_l+0x8b8>
 8009362:	f5a3 1380 	sub.w	r3, r3, #1048576	@ 0x100000
 8009366:	ea6f 5b13 	mvn.w	fp, r3, lsr #20
 800936a:	ea6f 5b0b 	mvn.w	fp, fp, lsl #20
 800936e:	f04f 3aff 	mov.w	sl, #4294967295
 8009372:	e7d5      	b.n	8009320 <_strtod_l+0x8b8>
 8009374:	9b13      	ldr	r3, [sp, #76]	@ 0x4c
 8009376:	ea13 0f0a 	tst.w	r3, sl
 800937a:	e7e1      	b.n	8009340 <_strtod_l+0x8d8>
 800937c:	f7ff fb54 	bl	8008a28 <sulp>
 8009380:	e9dd 010c 	ldrd	r0, r1, [sp, #48]	@ 0x30
 8009384:	ec53 2b10 	vmov	r2, r3, d0
 8009388:	f7f6 ff8e 	bl	80002a8 <__aeabi_dsub>
 800938c:	2200      	movs	r2, #0
 800938e:	2300      	movs	r3, #0
 8009390:	4682      	mov	sl, r0
 8009392:	468b      	mov	fp, r1
 8009394:	f7f7 fba8 	bl	8000ae8 <__aeabi_dcmpeq>
 8009398:	2800      	cmp	r0, #0
 800939a:	d0c1      	beq.n	8009320 <_strtod_l+0x8b8>
 800939c:	e61a      	b.n	8008fd4 <_strtod_l+0x56c>
 800939e:	4641      	mov	r1, r8
 80093a0:	4620      	mov	r0, r4
 80093a2:	f001 fb2b 	bl	800a9fc <__ratio>
 80093a6:	ec57 6b10 	vmov	r6, r7, d0
 80093aa:	2200      	movs	r2, #0
 80093ac:	f04f 4380 	mov.w	r3, #1073741824	@ 0x40000000
 80093b0:	4630      	mov	r0, r6
 80093b2:	4639      	mov	r1, r7
 80093b4:	f7f7 fbac 	bl	8000b10 <__aeabi_dcmple>
 80093b8:	2800      	cmp	r0, #0
 80093ba:	d06f      	beq.n	800949c <_strtod_l+0xa34>
 80093bc:	9b0f      	ldr	r3, [sp, #60]	@ 0x3c
 80093be:	2b00      	cmp	r3, #0
 80093c0:	d17a      	bne.n	80094b8 <_strtod_l+0xa50>
 80093c2:	f1ba 0f00 	cmp.w	sl, #0
 80093c6:	d158      	bne.n	800947a <_strtod_l+0xa12>
 80093c8:	9b0a      	ldr	r3, [sp, #40]	@ 0x28
 80093ca:	f3c3 0313 	ubfx	r3, r3, #0, #20
 80093ce:	2b00      	cmp	r3, #0
 80093d0:	d15a      	bne.n	8009488 <_strtod_l+0xa20>
 80093d2:	4b64      	ldr	r3, [pc, #400]	@ (8009564 <_strtod_l+0xafc>)
 80093d4:	2200      	movs	r2, #0
 80093d6:	4630      	mov	r0, r6
 80093d8:	4639      	mov	r1, r7
 80093da:	f7f7 fb8f 	bl	8000afc <__aeabi_dcmplt>
 80093de:	2800      	cmp	r0, #0
 80093e0:	d159      	bne.n	8009496 <_strtod_l+0xa2e>
 80093e2:	4630      	mov	r0, r6
 80093e4:	4639      	mov	r1, r7
 80093e6:	4b60      	ldr	r3, [pc, #384]	@ (8009568 <_strtod_l+0xb00>)
 80093e8:	2200      	movs	r2, #0
 80093ea:	f7f7 f915 	bl	8000618 <__aeabi_dmul>
 80093ee:	4606      	mov	r6, r0
 80093f0:	460f      	mov	r7, r1
 80093f2:	f107 4300 	add.w	r3, r7, #2147483648	@ 0x80000000
 80093f6:	9606      	str	r6, [sp, #24]
 80093f8:	9307      	str	r3, [sp, #28]
 80093fa:	e9dd 2306 	ldrd	r2, r3, [sp, #24]
 80093fe:	4d57      	ldr	r5, [pc, #348]	@ (800955c <_strtod_l+0xaf4>)
 8009400:	e9cd 2310 	strd	r2, r3, [sp, #64]	@ 0x40
 8009404:	9b0a      	ldr	r3, [sp, #40]	@ 0x28
 8009406:	401d      	ands	r5, r3
 8009408:	4b58      	ldr	r3, [pc, #352]	@ (800956c <_strtod_l+0xb04>)
 800940a:	429d      	cmp	r5, r3
 800940c:	f040 80b2 	bne.w	8009574 <_strtod_l+0xb0c>
 8009410:	9b0a      	ldr	r3, [sp, #40]	@ 0x28
 8009412:	f1a3 7b54 	sub.w	fp, r3, #55574528	@ 0x3500000
 8009416:	ec4b ab10 	vmov	d0, sl, fp
 800941a:	f001 fa27 	bl	800a86c <__ulp>
 800941e:	e9dd 2306 	ldrd	r2, r3, [sp, #24]
 8009422:	ec51 0b10 	vmov	r0, r1, d0
 8009426:	f7f7 f8f7 	bl	8000618 <__aeabi_dmul>
 800942a:	4652      	mov	r2, sl
 800942c:	465b      	mov	r3, fp
 800942e:	f7f6 ff3d 	bl	80002ac <__adddf3>
 8009432:	460b      	mov	r3, r1
 8009434:	4949      	ldr	r1, [pc, #292]	@ (800955c <_strtod_l+0xaf4>)
 8009436:	4a4e      	ldr	r2, [pc, #312]	@ (8009570 <_strtod_l+0xb08>)
 8009438:	4019      	ands	r1, r3
 800943a:	4291      	cmp	r1, r2
 800943c:	4682      	mov	sl, r0
 800943e:	d942      	bls.n	80094c6 <_strtod_l+0xa5e>
 8009440:	9a0d      	ldr	r2, [sp, #52]	@ 0x34
 8009442:	4b47      	ldr	r3, [pc, #284]	@ (8009560 <_strtod_l+0xaf8>)
 8009444:	429a      	cmp	r2, r3
 8009446:	d103      	bne.n	8009450 <_strtod_l+0x9e8>
 8009448:	9b0c      	ldr	r3, [sp, #48]	@ 0x30
 800944a:	3301      	adds	r3, #1
 800944c:	f43f ad2f 	beq.w	8008eae <_strtod_l+0x446>
 8009450:	f8df b10c 	ldr.w	fp, [pc, #268]	@ 8009560 <_strtod_l+0xaf8>
 8009454:	f04f 3aff 	mov.w	sl, #4294967295
 8009458:	991a      	ldr	r1, [sp, #104]	@ 0x68
 800945a:	9805      	ldr	r0, [sp, #20]
 800945c:	f000 feda 	bl	800a214 <_Bfree>
 8009460:	9805      	ldr	r0, [sp, #20]
 8009462:	4649      	mov	r1, r9
 8009464:	f000 fed6 	bl	800a214 <_Bfree>
 8009468:	9805      	ldr	r0, [sp, #20]
 800946a:	4641      	mov	r1, r8
 800946c:	f000 fed2 	bl	800a214 <_Bfree>
 8009470:	9805      	ldr	r0, [sp, #20]
 8009472:	4621      	mov	r1, r4
 8009474:	f000 fece 	bl	800a214 <_Bfree>
 8009478:	e619      	b.n	80090ae <_strtod_l+0x646>
 800947a:	f1ba 0f01 	cmp.w	sl, #1
 800947e:	d103      	bne.n	8009488 <_strtod_l+0xa20>
 8009480:	9b0a      	ldr	r3, [sp, #40]	@ 0x28
 8009482:	2b00      	cmp	r3, #0
 8009484:	f43f ada6 	beq.w	8008fd4 <_strtod_l+0x56c>
 8009488:	ed9f 7b2b 	vldr	d7, [pc, #172]	@ 8009538 <_strtod_l+0xad0>
 800948c:	4f35      	ldr	r7, [pc, #212]	@ (8009564 <_strtod_l+0xafc>)
 800948e:	ed8d 7b06 	vstr	d7, [sp, #24]
 8009492:	2600      	movs	r6, #0
 8009494:	e7b1      	b.n	80093fa <_strtod_l+0x992>
 8009496:	4f34      	ldr	r7, [pc, #208]	@ (8009568 <_strtod_l+0xb00>)
 8009498:	2600      	movs	r6, #0
 800949a:	e7aa      	b.n	80093f2 <_strtod_l+0x98a>
 800949c:	4b32      	ldr	r3, [pc, #200]	@ (8009568 <_strtod_l+0xb00>)
 800949e:	4630      	mov	r0, r6
 80094a0:	4639      	mov	r1, r7
 80094a2:	2200      	movs	r2, #0
 80094a4:	f7f7 f8b8 	bl	8000618 <__aeabi_dmul>
 80094a8:	9b0f      	ldr	r3, [sp, #60]	@ 0x3c
 80094aa:	4606      	mov	r6, r0
 80094ac:	460f      	mov	r7, r1
 80094ae:	2b00      	cmp	r3, #0
 80094b0:	d09f      	beq.n	80093f2 <_strtod_l+0x98a>
 80094b2:	e9cd 6706 	strd	r6, r7, [sp, #24]
 80094b6:	e7a0      	b.n	80093fa <_strtod_l+0x992>
 80094b8:	ed9f 7b21 	vldr	d7, [pc, #132]	@ 8009540 <_strtod_l+0xad8>
 80094bc:	ed8d 7b06 	vstr	d7, [sp, #24]
 80094c0:	ec57 6b17 	vmov	r6, r7, d7
 80094c4:	e799      	b.n	80093fa <_strtod_l+0x992>
 80094c6:	f103 7b54 	add.w	fp, r3, #55574528	@ 0x3500000
 80094ca:	9b08      	ldr	r3, [sp, #32]
 80094cc:	f8cd b028 	str.w	fp, [sp, #40]	@ 0x28
 80094d0:	2b00      	cmp	r3, #0
 80094d2:	d1c1      	bne.n	8009458 <_strtod_l+0x9f0>
 80094d4:	f02b 4300 	bic.w	r3, fp, #2147483648	@ 0x80000000
 80094d8:	0d1b      	lsrs	r3, r3, #20
 80094da:	051b      	lsls	r3, r3, #20
 80094dc:	429d      	cmp	r5, r3
 80094de:	d1bb      	bne.n	8009458 <_strtod_l+0x9f0>
 80094e0:	4630      	mov	r0, r6
 80094e2:	4639      	mov	r1, r7
 80094e4:	f7f7 fb92 	bl	8000c0c <__aeabi_d2lz>
 80094e8:	f7f7 f868 	bl	80005bc <__aeabi_l2d>
 80094ec:	4602      	mov	r2, r0
 80094ee:	460b      	mov	r3, r1
 80094f0:	4630      	mov	r0, r6
 80094f2:	4639      	mov	r1, r7
 80094f4:	f7f6 fed8 	bl	80002a8 <__aeabi_dsub>
 80094f8:	460b      	mov	r3, r1
 80094fa:	4602      	mov	r2, r0
 80094fc:	e9cd 230c 	strd	r2, r3, [sp, #48]	@ 0x30
 8009500:	f3cb 0613 	ubfx	r6, fp, #0, #20
 8009504:	9b0f      	ldr	r3, [sp, #60]	@ 0x3c
 8009506:	ea46 060a 	orr.w	r6, r6, sl
 800950a:	431e      	orrs	r6, r3
 800950c:	d06f      	beq.n	80095ee <_strtod_l+0xb86>
 800950e:	a30e      	add	r3, pc, #56	@ (adr r3, 8009548 <_strtod_l+0xae0>)
 8009510:	e9d3 2300 	ldrd	r2, r3, [r3]
 8009514:	f7f7 faf2 	bl	8000afc <__aeabi_dcmplt>
 8009518:	2800      	cmp	r0, #0
 800951a:	f47f acd3 	bne.w	8008ec4 <_strtod_l+0x45c>
 800951e:	a30c      	add	r3, pc, #48	@ (adr r3, 8009550 <_strtod_l+0xae8>)
 8009520:	e9d3 2300 	ldrd	r2, r3, [r3]
 8009524:	e9dd 010c 	ldrd	r0, r1, [sp, #48]	@ 0x30
 8009528:	f7f7 fb06 	bl	8000b38 <__aeabi_dcmpgt>
 800952c:	2800      	cmp	r0, #0
 800952e:	d093      	beq.n	8009458 <_strtod_l+0x9f0>
 8009530:	e4c8      	b.n	8008ec4 <_strtod_l+0x45c>
 8009532:	bf00      	nop
 8009534:	f3af 8000 	nop.w
 8009538:	00000000 	.word	0x00000000
 800953c:	bff00000 	.word	0xbff00000
 8009540:	00000000 	.word	0x00000000
 8009544:	3ff00000 	.word	0x3ff00000
 8009548:	94a03595 	.word	0x94a03595
 800954c:	3fdfffff 	.word	0x3fdfffff
 8009550:	35afe535 	.word	0x35afe535
 8009554:	3fe00000 	.word	0x3fe00000
 8009558:	000fffff 	.word	0x000fffff
 800955c:	7ff00000 	.word	0x7ff00000
 8009560:	7fefffff 	.word	0x7fefffff
 8009564:	3ff00000 	.word	0x3ff00000
 8009568:	3fe00000 	.word	0x3fe00000
 800956c:	7fe00000 	.word	0x7fe00000
 8009570:	7c9fffff 	.word	0x7c9fffff
 8009574:	9b08      	ldr	r3, [sp, #32]
 8009576:	b323      	cbz	r3, 80095c2 <_strtod_l+0xb5a>
 8009578:	f1b5 6fd4 	cmp.w	r5, #111149056	@ 0x6a00000
 800957c:	d821      	bhi.n	80095c2 <_strtod_l+0xb5a>
 800957e:	a328      	add	r3, pc, #160	@ (adr r3, 8009620 <_strtod_l+0xbb8>)
 8009580:	e9d3 2300 	ldrd	r2, r3, [r3]
 8009584:	4630      	mov	r0, r6
 8009586:	4639      	mov	r1, r7
 8009588:	f7f7 fac2 	bl	8000b10 <__aeabi_dcmple>
 800958c:	b1a0      	cbz	r0, 80095b8 <_strtod_l+0xb50>
 800958e:	4639      	mov	r1, r7
 8009590:	4630      	mov	r0, r6
 8009592:	f7f7 fb03 	bl	8000b9c <__aeabi_d2uiz>
 8009596:	2801      	cmp	r0, #1
 8009598:	bf38      	it	cc
 800959a:	2001      	movcc	r0, #1
 800959c:	f7f6 ffc2 	bl	8000524 <__aeabi_ui2d>
 80095a0:	9b0f      	ldr	r3, [sp, #60]	@ 0x3c
 80095a2:	4606      	mov	r6, r0
 80095a4:	460f      	mov	r7, r1
 80095a6:	b9fb      	cbnz	r3, 80095e8 <_strtod_l+0xb80>
 80095a8:	f101 4300 	add.w	r3, r1, #2147483648	@ 0x80000000
 80095ac:	9014      	str	r0, [sp, #80]	@ 0x50
 80095ae:	9315      	str	r3, [sp, #84]	@ 0x54
 80095b0:	e9dd 2314 	ldrd	r2, r3, [sp, #80]	@ 0x50
 80095b4:	e9cd 2310 	strd	r2, r3, [sp, #64]	@ 0x40
 80095b8:	9b11      	ldr	r3, [sp, #68]	@ 0x44
 80095ba:	f103 63d6 	add.w	r3, r3, #112197632	@ 0x6b00000
 80095be:	1b5b      	subs	r3, r3, r5
 80095c0:	9311      	str	r3, [sp, #68]	@ 0x44
 80095c2:	ed9d 0b0c 	vldr	d0, [sp, #48]	@ 0x30
 80095c6:	e9dd ab10 	ldrd	sl, fp, [sp, #64]	@ 0x40
 80095ca:	f001 f94f 	bl	800a86c <__ulp>
 80095ce:	4650      	mov	r0, sl
 80095d0:	ec53 2b10 	vmov	r2, r3, d0
 80095d4:	4659      	mov	r1, fp
 80095d6:	f7f7 f81f 	bl	8000618 <__aeabi_dmul>
 80095da:	e9dd 230c 	ldrd	r2, r3, [sp, #48]	@ 0x30
 80095de:	f7f6 fe65 	bl	80002ac <__adddf3>
 80095e2:	4682      	mov	sl, r0
 80095e4:	468b      	mov	fp, r1
 80095e6:	e770      	b.n	80094ca <_strtod_l+0xa62>
 80095e8:	e9cd 6714 	strd	r6, r7, [sp, #80]	@ 0x50
 80095ec:	e7e0      	b.n	80095b0 <_strtod_l+0xb48>
 80095ee:	a30e      	add	r3, pc, #56	@ (adr r3, 8009628 <_strtod_l+0xbc0>)
 80095f0:	e9d3 2300 	ldrd	r2, r3, [r3]
 80095f4:	f7f7 fa82 	bl	8000afc <__aeabi_dcmplt>
 80095f8:	e798      	b.n	800952c <_strtod_l+0xac4>
 80095fa:	2300      	movs	r3, #0
 80095fc:	930e      	str	r3, [sp, #56]	@ 0x38
 80095fe:	9a17      	ldr	r2, [sp, #92]	@ 0x5c
 8009600:	9b19      	ldr	r3, [sp, #100]	@ 0x64
 8009602:	6013      	str	r3, [r2, #0]
 8009604:	f7ff ba6d 	b.w	8008ae2 <_strtod_l+0x7a>
 8009608:	2a65      	cmp	r2, #101	@ 0x65
 800960a:	f43f ab68 	beq.w	8008cde <_strtod_l+0x276>
 800960e:	2a45      	cmp	r2, #69	@ 0x45
 8009610:	f43f ab65 	beq.w	8008cde <_strtod_l+0x276>
 8009614:	2301      	movs	r3, #1
 8009616:	f7ff bba0 	b.w	8008d5a <_strtod_l+0x2f2>
 800961a:	bf00      	nop
 800961c:	f3af 8000 	nop.w
 8009620:	ffc00000 	.word	0xffc00000
 8009624:	41dfffff 	.word	0x41dfffff
 8009628:	94a03595 	.word	0x94a03595
 800962c:	3fcfffff 	.word	0x3fcfffff

08009630 <strtod>:
 8009630:	460a      	mov	r2, r1
 8009632:	4601      	mov	r1, r0
 8009634:	4802      	ldr	r0, [pc, #8]	@ (8009640 <strtod+0x10>)
 8009636:	4b03      	ldr	r3, [pc, #12]	@ (8009644 <strtod+0x14>)
 8009638:	6800      	ldr	r0, [r0, #0]
 800963a:	f7ff ba15 	b.w	8008a68 <_strtod_l>
 800963e:	bf00      	nop
 8009640:	20000284 	.word	0x20000284
 8009644:	20000118 	.word	0x20000118

08009648 <std>:
 8009648:	2300      	movs	r3, #0
 800964a:	b510      	push	{r4, lr}
 800964c:	4604      	mov	r4, r0
 800964e:	e9c0 3300 	strd	r3, r3, [r0]
 8009652:	e9c0 3304 	strd	r3, r3, [r0, #16]
 8009656:	6083      	str	r3, [r0, #8]
 8009658:	8181      	strh	r1, [r0, #12]
 800965a:	6643      	str	r3, [r0, #100]	@ 0x64
 800965c:	81c2      	strh	r2, [r0, #14]
 800965e:	6183      	str	r3, [r0, #24]
 8009660:	4619      	mov	r1, r3
 8009662:	2208      	movs	r2, #8
 8009664:	305c      	adds	r0, #92	@ 0x5c
 8009666:	f000 f915 	bl	8009894 <memset>
 800966a:	4b0d      	ldr	r3, [pc, #52]	@ (80096a0 <std+0x58>)
 800966c:	6263      	str	r3, [r4, #36]	@ 0x24
 800966e:	4b0d      	ldr	r3, [pc, #52]	@ (80096a4 <std+0x5c>)
 8009670:	62a3      	str	r3, [r4, #40]	@ 0x28
 8009672:	4b0d      	ldr	r3, [pc, #52]	@ (80096a8 <std+0x60>)
 8009674:	62e3      	str	r3, [r4, #44]	@ 0x2c
 8009676:	4b0d      	ldr	r3, [pc, #52]	@ (80096ac <std+0x64>)
 8009678:	6323      	str	r3, [r4, #48]	@ 0x30
 800967a:	4b0d      	ldr	r3, [pc, #52]	@ (80096b0 <std+0x68>)
 800967c:	6224      	str	r4, [r4, #32]
 800967e:	429c      	cmp	r4, r3
 8009680:	d006      	beq.n	8009690 <std+0x48>
 8009682:	f103 0268 	add.w	r2, r3, #104	@ 0x68
 8009686:	4294      	cmp	r4, r2
 8009688:	d002      	beq.n	8009690 <std+0x48>
 800968a:	33d0      	adds	r3, #208	@ 0xd0
 800968c:	429c      	cmp	r4, r3
 800968e:	d105      	bne.n	800969c <std+0x54>
 8009690:	f104 0058 	add.w	r0, r4, #88	@ 0x58
 8009694:	e8bd 4010 	ldmia.w	sp!, {r4, lr}
 8009698:	f000 b9c4 	b.w	8009a24 <__retarget_lock_init_recursive>
 800969c:	bd10      	pop	{r4, pc}
 800969e:	bf00      	nop
 80096a0:	080097cd 	.word	0x080097cd
 80096a4:	080097ef 	.word	0x080097ef
 80096a8:	08009827 	.word	0x08009827
 80096ac:	0800984b 	.word	0x0800984b
 80096b0:	20000c44 	.word	0x20000c44

080096b4 <stdio_exit_handler>:
 80096b4:	4a02      	ldr	r2, [pc, #8]	@ (80096c0 <stdio_exit_handler+0xc>)
 80096b6:	4903      	ldr	r1, [pc, #12]	@ (80096c4 <stdio_exit_handler+0x10>)
 80096b8:	4803      	ldr	r0, [pc, #12]	@ (80096c8 <stdio_exit_handler+0x14>)
 80096ba:	f000 b869 	b.w	8009790 <_fwalk_sglue>
 80096be:	bf00      	nop
 80096c0:	2000010c 	.word	0x2000010c
 80096c4:	0800b1e1 	.word	0x0800b1e1
 80096c8:	20000288 	.word	0x20000288

080096cc <cleanup_stdio>:
 80096cc:	6841      	ldr	r1, [r0, #4]
 80096ce:	4b0c      	ldr	r3, [pc, #48]	@ (8009700 <cleanup_stdio+0x34>)
 80096d0:	4299      	cmp	r1, r3
 80096d2:	b510      	push	{r4, lr}
 80096d4:	4604      	mov	r4, r0
 80096d6:	d001      	beq.n	80096dc <cleanup_stdio+0x10>
 80096d8:	f001 fd82 	bl	800b1e0 <_fflush_r>
 80096dc:	68a1      	ldr	r1, [r4, #8]
 80096de:	4b09      	ldr	r3, [pc, #36]	@ (8009704 <cleanup_stdio+0x38>)
 80096e0:	4299      	cmp	r1, r3
 80096e2:	d002      	beq.n	80096ea <cleanup_stdio+0x1e>
 80096e4:	4620      	mov	r0, r4
 80096e6:	f001 fd7b 	bl	800b1e0 <_fflush_r>
 80096ea:	68e1      	ldr	r1, [r4, #12]
 80096ec:	4b06      	ldr	r3, [pc, #24]	@ (8009708 <cleanup_stdio+0x3c>)
 80096ee:	4299      	cmp	r1, r3
 80096f0:	d004      	beq.n	80096fc <cleanup_stdio+0x30>
 80096f2:	4620      	mov	r0, r4
 80096f4:	e8bd 4010 	ldmia.w	sp!, {r4, lr}
 80096f8:	f001 bd72 	b.w	800b1e0 <_fflush_r>
 80096fc:	bd10      	pop	{r4, pc}
 80096fe:	bf00      	nop
 8009700:	20000c44 	.word	0x20000c44
 8009704:	20000cac 	.word	0x20000cac
 8009708:	20000d14 	.word	0x20000d14

0800970c <global_stdio_init.part.0>:
 800970c:	b510      	push	{r4, lr}
 800970e:	4b0b      	ldr	r3, [pc, #44]	@ (800973c <global_stdio_init.part.0+0x30>)
 8009710:	4c0b      	ldr	r4, [pc, #44]	@ (8009740 <global_stdio_init.part.0+0x34>)
 8009712:	4a0c      	ldr	r2, [pc, #48]	@ (8009744 <global_stdio_init.part.0+0x38>)
 8009714:	601a      	str	r2, [r3, #0]
 8009716:	4620      	mov	r0, r4
 8009718:	2200      	movs	r2, #0
 800971a:	2104      	movs	r1, #4
 800971c:	f7ff ff94 	bl	8009648 <std>
 8009720:	f104 0068 	add.w	r0, r4, #104	@ 0x68
 8009724:	2201      	movs	r2, #1
 8009726:	2109      	movs	r1, #9
 8009728:	f7ff ff8e 	bl	8009648 <std>
 800972c:	f104 00d0 	add.w	r0, r4, #208	@ 0xd0
 8009730:	2202      	movs	r2, #2
 8009732:	e8bd 4010 	ldmia.w	sp!, {r4, lr}
 8009736:	2112      	movs	r1, #18
 8009738:	f7ff bf86 	b.w	8009648 <std>
 800973c:	20000d7c 	.word	0x20000d7c
 8009740:	20000c44 	.word	0x20000c44
 8009744:	080096b5 	.word	0x080096b5

08009748 <__sfp_lock_acquire>:
 8009748:	4801      	ldr	r0, [pc, #4]	@ (8009750 <__sfp_lock_acquire+0x8>)
 800974a:	f000 b96c 	b.w	8009a26 <__retarget_lock_acquire_recursive>
 800974e:	bf00      	nop
 8009750:	20000d85 	.word	0x20000d85

08009754 <__sfp_lock_release>:
 8009754:	4801      	ldr	r0, [pc, #4]	@ (800975c <__sfp_lock_release+0x8>)
 8009756:	f000 b967 	b.w	8009a28 <__retarget_lock_release_recursive>
 800975a:	bf00      	nop
 800975c:	20000d85 	.word	0x20000d85

08009760 <__sinit>:
 8009760:	b510      	push	{r4, lr}
 8009762:	4604      	mov	r4, r0
 8009764:	f7ff fff0 	bl	8009748 <__sfp_lock_acquire>
 8009768:	6a23      	ldr	r3, [r4, #32]
 800976a:	b11b      	cbz	r3, 8009774 <__sinit+0x14>
 800976c:	e8bd 4010 	ldmia.w	sp!, {r4, lr}
 8009770:	f7ff bff0 	b.w	8009754 <__sfp_lock_release>
 8009774:	4b04      	ldr	r3, [pc, #16]	@ (8009788 <__sinit+0x28>)
 8009776:	6223      	str	r3, [r4, #32]
 8009778:	4b04      	ldr	r3, [pc, #16]	@ (800978c <__sinit+0x2c>)
 800977a:	681b      	ldr	r3, [r3, #0]
 800977c:	2b00      	cmp	r3, #0
 800977e:	d1f5      	bne.n	800976c <__sinit+0xc>
 8009780:	f7ff ffc4 	bl	800970c <global_stdio_init.part.0>
 8009784:	e7f2      	b.n	800976c <__sinit+0xc>
 8009786:	bf00      	nop
 8009788:	080096cd 	.word	0x080096cd
 800978c:	20000d7c 	.word	0x20000d7c

08009790 <_fwalk_sglue>:
 8009790:	e92d 43f8 	stmdb	sp!, {r3, r4, r5, r6, r7, r8, r9, lr}
 8009794:	4607      	mov	r7, r0
 8009796:	4688      	mov	r8, r1
 8009798:	4614      	mov	r4, r2
 800979a:	2600      	movs	r6, #0
 800979c:	e9d4 9501 	ldrd	r9, r5, [r4, #4]
 80097a0:	f1b9 0901 	subs.w	r9, r9, #1
 80097a4:	d505      	bpl.n	80097b2 <_fwalk_sglue+0x22>
 80097a6:	6824      	ldr	r4, [r4, #0]
 80097a8:	2c00      	cmp	r4, #0
 80097aa:	d1f7      	bne.n	800979c <_fwalk_sglue+0xc>
 80097ac:	4630      	mov	r0, r6
 80097ae:	e8bd 83f8 	ldmia.w	sp!, {r3, r4, r5, r6, r7, r8, r9, pc}
 80097b2:	89ab      	ldrh	r3, [r5, #12]
 80097b4:	2b01      	cmp	r3, #1
 80097b6:	d907      	bls.n	80097c8 <_fwalk_sglue+0x38>
 80097b8:	f9b5 300e 	ldrsh.w	r3, [r5, #14]
 80097bc:	3301      	adds	r3, #1
 80097be:	d003      	beq.n	80097c8 <_fwalk_sglue+0x38>
 80097c0:	4629      	mov	r1, r5
 80097c2:	4638      	mov	r0, r7
 80097c4:	47c0      	blx	r8
 80097c6:	4306      	orrs	r6, r0
 80097c8:	3568      	adds	r5, #104	@ 0x68
 80097ca:	e7e9      	b.n	80097a0 <_fwalk_sglue+0x10>

080097cc <__sread>:
 80097cc:	b510      	push	{r4, lr}
 80097ce:	460c      	mov	r4, r1
 80097d0:	f9b1 100e 	ldrsh.w	r1, [r1, #14]
 80097d4:	f000 f8c8 	bl	8009968 <_read_r>
 80097d8:	2800      	cmp	r0, #0
 80097da:	bfab      	itete	ge
 80097dc:	6d63      	ldrge	r3, [r4, #84]	@ 0x54
 80097de:	89a3      	ldrhlt	r3, [r4, #12]
 80097e0:	181b      	addge	r3, r3, r0
 80097e2:	f423 5380 	biclt.w	r3, r3, #4096	@ 0x1000
 80097e6:	bfac      	ite	ge
 80097e8:	6563      	strge	r3, [r4, #84]	@ 0x54
 80097ea:	81a3      	strhlt	r3, [r4, #12]
 80097ec:	bd10      	pop	{r4, pc}

080097ee <__swrite>:
 80097ee:	e92d 41f0 	stmdb	sp!, {r4, r5, r6, r7, r8, lr}
 80097f2:	461f      	mov	r7, r3
 80097f4:	898b      	ldrh	r3, [r1, #12]
 80097f6:	05db      	lsls	r3, r3, #23
 80097f8:	4605      	mov	r5, r0
 80097fa:	460c      	mov	r4, r1
 80097fc:	4616      	mov	r6, r2
 80097fe:	d505      	bpl.n	800980c <__swrite+0x1e>
 8009800:	f9b1 100e 	ldrsh.w	r1, [r1, #14]
 8009804:	2302      	movs	r3, #2
 8009806:	2200      	movs	r2, #0
 8009808:	f000 f89c 	bl	8009944 <_lseek_r>
 800980c:	89a3      	ldrh	r3, [r4, #12]
 800980e:	f9b4 100e 	ldrsh.w	r1, [r4, #14]
 8009812:	f423 5380 	bic.w	r3, r3, #4096	@ 0x1000
 8009816:	81a3      	strh	r3, [r4, #12]
 8009818:	4632      	mov	r2, r6
 800981a:	463b      	mov	r3, r7
 800981c:	4628      	mov	r0, r5
 800981e:	e8bd 41f0 	ldmia.w	sp!, {r4, r5, r6, r7, r8, lr}
 8009822:	f000 b8c3 	b.w	80099ac <_write_r>

08009826 <__sseek>:
 8009826:	b510      	push	{r4, lr}
 8009828:	460c      	mov	r4, r1
 800982a:	f9b1 100e 	ldrsh.w	r1, [r1, #14]
 800982e:	f000 f889 	bl	8009944 <_lseek_r>
 8009832:	1c43      	adds	r3, r0, #1
 8009834:	89a3      	ldrh	r3, [r4, #12]
 8009836:	bf15      	itete	ne
 8009838:	6560      	strne	r0, [r4, #84]	@ 0x54
 800983a:	f423 5380 	biceq.w	r3, r3, #4096	@ 0x1000
 800983e:	f443 5380 	orrne.w	r3, r3, #4096	@ 0x1000
 8009842:	81a3      	strheq	r3, [r4, #12]
 8009844:	bf18      	it	ne
 8009846:	81a3      	strhne	r3, [r4, #12]
 8009848:	bd10      	pop	{r4, pc}

0800984a <__sclose>:
 800984a:	f9b1 100e 	ldrsh.w	r1, [r1, #14]
 800984e:	f000 b869 	b.w	8009924 <_close_r>
	...

08009854 <_vsiprintf_r>:
 8009854:	b510      	push	{r4, lr}
 8009856:	b09a      	sub	sp, #104	@ 0x68
 8009858:	2400      	movs	r4, #0
 800985a:	9100      	str	r1, [sp, #0]
 800985c:	9104      	str	r1, [sp, #16]
 800985e:	f06f 4100 	mvn.w	r1, #2147483648	@ 0x80000000
 8009862:	9105      	str	r1, [sp, #20]
 8009864:	9102      	str	r1, [sp, #8]
 8009866:	4905      	ldr	r1, [pc, #20]	@ (800987c <_vsiprintf_r+0x28>)
 8009868:	9103      	str	r1, [sp, #12]
 800986a:	4669      	mov	r1, sp
 800986c:	9419      	str	r4, [sp, #100]	@ 0x64
 800986e:	f001 f9ab 	bl	800abc8 <_svfiprintf_r>
 8009872:	9b00      	ldr	r3, [sp, #0]
 8009874:	701c      	strb	r4, [r3, #0]
 8009876:	b01a      	add	sp, #104	@ 0x68
 8009878:	bd10      	pop	{r4, pc}
 800987a:	bf00      	nop
 800987c:	ffff0208 	.word	0xffff0208

08009880 <vsiprintf>:
 8009880:	4613      	mov	r3, r2
 8009882:	460a      	mov	r2, r1
 8009884:	4601      	mov	r1, r0
 8009886:	4802      	ldr	r0, [pc, #8]	@ (8009890 <vsiprintf+0x10>)
 8009888:	6800      	ldr	r0, [r0, #0]
 800988a:	f7ff bfe3 	b.w	8009854 <_vsiprintf_r>
 800988e:	bf00      	nop
 8009890:	20000284 	.word	0x20000284

08009894 <memset>:
 8009894:	4402      	add	r2, r0
 8009896:	4603      	mov	r3, r0
 8009898:	4293      	cmp	r3, r2
 800989a:	d100      	bne.n	800989e <memset+0xa>
 800989c:	4770      	bx	lr
 800989e:	f803 1b01 	strb.w	r1, [r3], #1
 80098a2:	e7f9      	b.n	8009898 <memset+0x4>

080098a4 <strdup>:
 80098a4:	4b02      	ldr	r3, [pc, #8]	@ (80098b0 <strdup+0xc>)
 80098a6:	4601      	mov	r1, r0
 80098a8:	6818      	ldr	r0, [r3, #0]
 80098aa:	f000 b803 	b.w	80098b4 <_strdup_r>
 80098ae:	bf00      	nop
 80098b0:	20000284 	.word	0x20000284

080098b4 <_strdup_r>:
 80098b4:	b570      	push	{r4, r5, r6, lr}
 80098b6:	4604      	mov	r4, r0
 80098b8:	4608      	mov	r0, r1
 80098ba:	460d      	mov	r5, r1
 80098bc:	f7f6 fc92 	bl	80001e4 <strlen>
 80098c0:	1c46      	adds	r6, r0, #1
 80098c2:	4631      	mov	r1, r6
 80098c4:	4620      	mov	r0, r4
 80098c6:	f7fe ffed 	bl	80088a4 <_malloc_r>
 80098ca:	4604      	mov	r4, r0
 80098cc:	b118      	cbz	r0, 80098d6 <_strdup_r+0x22>
 80098ce:	4632      	mov	r2, r6
 80098d0:	4629      	mov	r1, r5
 80098d2:	f000 f8b2 	bl	8009a3a <memcpy>
 80098d6:	4620      	mov	r0, r4
 80098d8:	bd70      	pop	{r4, r5, r6, pc}

080098da <strncmp>:
 80098da:	b510      	push	{r4, lr}
 80098dc:	b16a      	cbz	r2, 80098fa <strncmp+0x20>
 80098de:	3901      	subs	r1, #1
 80098e0:	1884      	adds	r4, r0, r2
 80098e2:	f810 2b01 	ldrb.w	r2, [r0], #1
 80098e6:	f811 3f01 	ldrb.w	r3, [r1, #1]!
 80098ea:	429a      	cmp	r2, r3
 80098ec:	d103      	bne.n	80098f6 <strncmp+0x1c>
 80098ee:	42a0      	cmp	r0, r4
 80098f0:	d001      	beq.n	80098f6 <strncmp+0x1c>
 80098f2:	2a00      	cmp	r2, #0
 80098f4:	d1f5      	bne.n	80098e2 <strncmp+0x8>
 80098f6:	1ad0      	subs	r0, r2, r3
 80098f8:	bd10      	pop	{r4, pc}
 80098fa:	4610      	mov	r0, r2
 80098fc:	e7fc      	b.n	80098f8 <strncmp+0x1e>

080098fe <strncpy>:
 80098fe:	b510      	push	{r4, lr}
 8009900:	3901      	subs	r1, #1
 8009902:	4603      	mov	r3, r0
 8009904:	b132      	cbz	r2, 8009914 <strncpy+0x16>
 8009906:	f811 4f01 	ldrb.w	r4, [r1, #1]!
 800990a:	f803 4b01 	strb.w	r4, [r3], #1
 800990e:	3a01      	subs	r2, #1
 8009910:	2c00      	cmp	r4, #0
 8009912:	d1f7      	bne.n	8009904 <strncpy+0x6>
 8009914:	441a      	add	r2, r3
 8009916:	2100      	movs	r1, #0
 8009918:	4293      	cmp	r3, r2
 800991a:	d100      	bne.n	800991e <strncpy+0x20>
 800991c:	bd10      	pop	{r4, pc}
 800991e:	f803 1b01 	strb.w	r1, [r3], #1
 8009922:	e7f9      	b.n	8009918 <strncpy+0x1a>

08009924 <_close_r>:
 8009924:	b538      	push	{r3, r4, r5, lr}
 8009926:	4d06      	ldr	r5, [pc, #24]	@ (8009940 <_close_r+0x1c>)
 8009928:	2300      	movs	r3, #0
 800992a:	4604      	mov	r4, r0
 800992c:	4608      	mov	r0, r1
 800992e:	602b      	str	r3, [r5, #0]
 8009930:	f7fc f860 	bl	80059f4 <_close>
 8009934:	1c43      	adds	r3, r0, #1
 8009936:	d102      	bne.n	800993e <_close_r+0x1a>
 8009938:	682b      	ldr	r3, [r5, #0]
 800993a:	b103      	cbz	r3, 800993e <_close_r+0x1a>
 800993c:	6023      	str	r3, [r4, #0]
 800993e:	bd38      	pop	{r3, r4, r5, pc}
 8009940:	20000d80 	.word	0x20000d80

08009944 <_lseek_r>:
 8009944:	b538      	push	{r3, r4, r5, lr}
 8009946:	4d07      	ldr	r5, [pc, #28]	@ (8009964 <_lseek_r+0x20>)
 8009948:	4604      	mov	r4, r0
 800994a:	4608      	mov	r0, r1
 800994c:	4611      	mov	r1, r2
 800994e:	2200      	movs	r2, #0
 8009950:	602a      	str	r2, [r5, #0]
 8009952:	461a      	mov	r2, r3
 8009954:	f7fc f875 	bl	8005a42 <_lseek>
 8009958:	1c43      	adds	r3, r0, #1
 800995a:	d102      	bne.n	8009962 <_lseek_r+0x1e>
 800995c:	682b      	ldr	r3, [r5, #0]
 800995e:	b103      	cbz	r3, 8009962 <_lseek_r+0x1e>
 8009960:	6023      	str	r3, [r4, #0]
 8009962:	bd38      	pop	{r3, r4, r5, pc}
 8009964:	20000d80 	.word	0x20000d80

08009968 <_read_r>:
 8009968:	b538      	push	{r3, r4, r5, lr}
 800996a:	4d07      	ldr	r5, [pc, #28]	@ (8009988 <_read_r+0x20>)
 800996c:	4604      	mov	r4, r0
 800996e:	4608      	mov	r0, r1
 8009970:	4611      	mov	r1, r2
 8009972:	2200      	movs	r2, #0
 8009974:	602a      	str	r2, [r5, #0]
 8009976:	461a      	mov	r2, r3
 8009978:	f7fc f803 	bl	8005982 <_read>
 800997c:	1c43      	adds	r3, r0, #1
 800997e:	d102      	bne.n	8009986 <_read_r+0x1e>
 8009980:	682b      	ldr	r3, [r5, #0]
 8009982:	b103      	cbz	r3, 8009986 <_read_r+0x1e>
 8009984:	6023      	str	r3, [r4, #0]
 8009986:	bd38      	pop	{r3, r4, r5, pc}
 8009988:	20000d80 	.word	0x20000d80

0800998c <_sbrk_r>:
 800998c:	b538      	push	{r3, r4, r5, lr}
 800998e:	4d06      	ldr	r5, [pc, #24]	@ (80099a8 <_sbrk_r+0x1c>)
 8009990:	2300      	movs	r3, #0
 8009992:	4604      	mov	r4, r0
 8009994:	4608      	mov	r0, r1
 8009996:	602b      	str	r3, [r5, #0]
 8009998:	f7fc f860 	bl	8005a5c <_sbrk>
 800999c:	1c43      	adds	r3, r0, #1
 800999e:	d102      	bne.n	80099a6 <_sbrk_r+0x1a>
 80099a0:	682b      	ldr	r3, [r5, #0]
 80099a2:	b103      	cbz	r3, 80099a6 <_sbrk_r+0x1a>
 80099a4:	6023      	str	r3, [r4, #0]
 80099a6:	bd38      	pop	{r3, r4, r5, pc}
 80099a8:	20000d80 	.word	0x20000d80

080099ac <_write_r>:
 80099ac:	b538      	push	{r3, r4, r5, lr}
 80099ae:	4d07      	ldr	r5, [pc, #28]	@ (80099cc <_write_r+0x20>)
 80099b0:	4604      	mov	r4, r0
 80099b2:	4608      	mov	r0, r1
 80099b4:	4611      	mov	r1, r2
 80099b6:	2200      	movs	r2, #0
 80099b8:	602a      	str	r2, [r5, #0]
 80099ba:	461a      	mov	r2, r3
 80099bc:	f7fb fffe 	bl	80059bc <_write>
 80099c0:	1c43      	adds	r3, r0, #1
 80099c2:	d102      	bne.n	80099ca <_write_r+0x1e>
 80099c4:	682b      	ldr	r3, [r5, #0]
 80099c6:	b103      	cbz	r3, 80099ca <_write_r+0x1e>
 80099c8:	6023      	str	r3, [r4, #0]
 80099ca:	bd38      	pop	{r3, r4, r5, pc}
 80099cc:	20000d80 	.word	0x20000d80

080099d0 <__errno>:
 80099d0:	4b01      	ldr	r3, [pc, #4]	@ (80099d8 <__errno+0x8>)
 80099d2:	6818      	ldr	r0, [r3, #0]
 80099d4:	4770      	bx	lr
 80099d6:	bf00      	nop
 80099d8:	20000284 	.word	0x20000284

080099dc <__libc_init_array>:
 80099dc:	b570      	push	{r4, r5, r6, lr}
 80099de:	4d0d      	ldr	r5, [pc, #52]	@ (8009a14 <__libc_init_array+0x38>)
 80099e0:	4c0d      	ldr	r4, [pc, #52]	@ (8009a18 <__libc_init_array+0x3c>)
 80099e2:	1b64      	subs	r4, r4, r5
 80099e4:	10a4      	asrs	r4, r4, #2
 80099e6:	2600      	movs	r6, #0
 80099e8:	42a6      	cmp	r6, r4
 80099ea:	d109      	bne.n	8009a00 <__libc_init_array+0x24>
 80099ec:	4d0b      	ldr	r5, [pc, #44]	@ (8009a1c <__libc_init_array+0x40>)
 80099ee:	4c0c      	ldr	r4, [pc, #48]	@ (8009a20 <__libc_init_array+0x44>)
 80099f0:	f001 ff20 	bl	800b834 <_init>
 80099f4:	1b64      	subs	r4, r4, r5
 80099f6:	10a4      	asrs	r4, r4, #2
 80099f8:	2600      	movs	r6, #0
 80099fa:	42a6      	cmp	r6, r4
 80099fc:	d105      	bne.n	8009a0a <__libc_init_array+0x2e>
 80099fe:	bd70      	pop	{r4, r5, r6, pc}
 8009a00:	f855 3b04 	ldr.w	r3, [r5], #4
 8009a04:	4798      	blx	r3
 8009a06:	3601      	adds	r6, #1
 8009a08:	e7ee      	b.n	80099e8 <__libc_init_array+0xc>
 8009a0a:	f855 3b04 	ldr.w	r3, [r5], #4
 8009a0e:	4798      	blx	r3
 8009a10:	3601      	adds	r6, #1
 8009a12:	e7f2      	b.n	80099fa <__libc_init_array+0x1e>
 8009a14:	08033a48 	.word	0x08033a48
 8009a18:	08033a48 	.word	0x08033a48
 8009a1c:	08033a48 	.word	0x08033a48
 8009a20:	08033a4c 	.word	0x08033a4c

08009a24 <__retarget_lock_init_recursive>:
 8009a24:	4770      	bx	lr

08009a26 <__retarget_lock_acquire_recursive>:
 8009a26:	4770      	bx	lr

08009a28 <__retarget_lock_release_recursive>:
 8009a28:	4770      	bx	lr

08009a2a <strcpy>:
 8009a2a:	4603      	mov	r3, r0
 8009a2c:	f811 2b01 	ldrb.w	r2, [r1], #1
 8009a30:	f803 2b01 	strb.w	r2, [r3], #1
 8009a34:	2a00      	cmp	r2, #0
 8009a36:	d1f9      	bne.n	8009a2c <strcpy+0x2>
 8009a38:	4770      	bx	lr

08009a3a <memcpy>:
 8009a3a:	440a      	add	r2, r1
 8009a3c:	4291      	cmp	r1, r2
 8009a3e:	f100 33ff 	add.w	r3, r0, #4294967295
 8009a42:	d100      	bne.n	8009a46 <memcpy+0xc>
 8009a44:	4770      	bx	lr
 8009a46:	b510      	push	{r4, lr}
 8009a48:	f811 4b01 	ldrb.w	r4, [r1], #1
 8009a4c:	f803 4f01 	strb.w	r4, [r3, #1]!
 8009a50:	4291      	cmp	r1, r2
 8009a52:	d1f9      	bne.n	8009a48 <memcpy+0xe>
 8009a54:	bd10      	pop	{r4, pc}
	...

08009a58 <nan>:
 8009a58:	ed9f 0b01 	vldr	d0, [pc, #4]	@ 8009a60 <nan+0x8>
 8009a5c:	4770      	bx	lr
 8009a5e:	bf00      	nop
 8009a60:	00000000 	.word	0x00000000
 8009a64:	7ff80000 	.word	0x7ff80000

08009a68 <_free_r>:
 8009a68:	b538      	push	{r3, r4, r5, lr}
 8009a6a:	4605      	mov	r5, r0
 8009a6c:	2900      	cmp	r1, #0
 8009a6e:	d041      	beq.n	8009af4 <_free_r+0x8c>
 8009a70:	f851 3c04 	ldr.w	r3, [r1, #-4]
 8009a74:	1f0c      	subs	r4, r1, #4
 8009a76:	2b00      	cmp	r3, #0
 8009a78:	bfb8      	it	lt
 8009a7a:	18e4      	addlt	r4, r4, r3
 8009a7c:	f7fe ff92 	bl	80089a4 <__malloc_lock>
 8009a80:	4a1d      	ldr	r2, [pc, #116]	@ (8009af8 <_free_r+0x90>)
 8009a82:	6813      	ldr	r3, [r2, #0]
 8009a84:	b933      	cbnz	r3, 8009a94 <_free_r+0x2c>
 8009a86:	6063      	str	r3, [r4, #4]
 8009a88:	6014      	str	r4, [r2, #0]
 8009a8a:	4628      	mov	r0, r5
 8009a8c:	e8bd 4038 	ldmia.w	sp!, {r3, r4, r5, lr}
 8009a90:	f7fe bf8e 	b.w	80089b0 <__malloc_unlock>
 8009a94:	42a3      	cmp	r3, r4
 8009a96:	d908      	bls.n	8009aaa <_free_r+0x42>
 8009a98:	6820      	ldr	r0, [r4, #0]
 8009a9a:	1821      	adds	r1, r4, r0
 8009a9c:	428b      	cmp	r3, r1
 8009a9e:	bf01      	itttt	eq
 8009aa0:	6819      	ldreq	r1, [r3, #0]
 8009aa2:	685b      	ldreq	r3, [r3, #4]
 8009aa4:	1809      	addeq	r1, r1, r0
 8009aa6:	6021      	streq	r1, [r4, #0]
 8009aa8:	e7ed      	b.n	8009a86 <_free_r+0x1e>
 8009aaa:	461a      	mov	r2, r3
 8009aac:	685b      	ldr	r3, [r3, #4]
 8009aae:	b10b      	cbz	r3, 8009ab4 <_free_r+0x4c>
 8009ab0:	42a3      	cmp	r3, r4
 8009ab2:	d9fa      	bls.n	8009aaa <_free_r+0x42>
 8009ab4:	6811      	ldr	r1, [r2, #0]
 8009ab6:	1850      	adds	r0, r2, r1
 8009ab8:	42a0      	cmp	r0, r4
 8009aba:	d10b      	bne.n	8009ad4 <_free_r+0x6c>
 8009abc:	6820      	ldr	r0, [r4, #0]
 8009abe:	4401      	add	r1, r0
 8009ac0:	1850      	adds	r0, r2, r1
 8009ac2:	4283      	cmp	r3, r0
 8009ac4:	6011      	str	r1, [r2, #0]
 8009ac6:	d1e0      	bne.n	8009a8a <_free_r+0x22>
 8009ac8:	6818      	ldr	r0, [r3, #0]
 8009aca:	685b      	ldr	r3, [r3, #4]
 8009acc:	6053      	str	r3, [r2, #4]
 8009ace:	4408      	add	r0, r1
 8009ad0:	6010      	str	r0, [r2, #0]
 8009ad2:	e7da      	b.n	8009a8a <_free_r+0x22>
 8009ad4:	d902      	bls.n	8009adc <_free_r+0x74>
 8009ad6:	230c      	movs	r3, #12
 8009ad8:	602b      	str	r3, [r5, #0]
 8009ada:	e7d6      	b.n	8009a8a <_free_r+0x22>
 8009adc:	6820      	ldr	r0, [r4, #0]
 8009ade:	1821      	adds	r1, r4, r0
 8009ae0:	428b      	cmp	r3, r1
 8009ae2:	bf04      	itt	eq
 8009ae4:	6819      	ldreq	r1, [r3, #0]
 8009ae6:	685b      	ldreq	r3, [r3, #4]
 8009ae8:	6063      	str	r3, [r4, #4]
 8009aea:	bf04      	itt	eq
 8009aec:	1809      	addeq	r1, r1, r0
 8009aee:	6021      	streq	r1, [r4, #0]
 8009af0:	6054      	str	r4, [r2, #4]
 8009af2:	e7ca      	b.n	8009a8a <_free_r+0x22>
 8009af4:	bd38      	pop	{r3, r4, r5, pc}
 8009af6:	bf00      	nop
 8009af8:	20000c40 	.word	0x20000c40

08009afc <rshift>:
 8009afc:	6903      	ldr	r3, [r0, #16]
 8009afe:	ebb3 1f61 	cmp.w	r3, r1, asr #5
 8009b02:	e92d 43f0 	stmdb	sp!, {r4, r5, r6, r7, r8, r9, lr}
 8009b06:	ea4f 1261 	mov.w	r2, r1, asr #5
 8009b0a:	f100 0414 	add.w	r4, r0, #20
 8009b0e:	dd45      	ble.n	8009b9c <rshift+0xa0>
 8009b10:	f011 011f 	ands.w	r1, r1, #31
 8009b14:	eb04 0683 	add.w	r6, r4, r3, lsl #2
 8009b18:	eb04 0582 	add.w	r5, r4, r2, lsl #2
 8009b1c:	d10c      	bne.n	8009b38 <rshift+0x3c>
 8009b1e:	f100 0710 	add.w	r7, r0, #16
 8009b22:	4629      	mov	r1, r5
 8009b24:	42b1      	cmp	r1, r6
 8009b26:	d334      	bcc.n	8009b92 <rshift+0x96>
 8009b28:	1a9b      	subs	r3, r3, r2
 8009b2a:	009b      	lsls	r3, r3, #2
 8009b2c:	1eea      	subs	r2, r5, #3
 8009b2e:	4296      	cmp	r6, r2
 8009b30:	bf38      	it	cc
 8009b32:	2300      	movcc	r3, #0
 8009b34:	4423      	add	r3, r4
 8009b36:	e015      	b.n	8009b64 <rshift+0x68>
 8009b38:	f854 7022 	ldr.w	r7, [r4, r2, lsl #2]
 8009b3c:	f1c1 0820 	rsb	r8, r1, #32
 8009b40:	40cf      	lsrs	r7, r1
 8009b42:	f105 0e04 	add.w	lr, r5, #4
 8009b46:	46a1      	mov	r9, r4
 8009b48:	4576      	cmp	r6, lr
 8009b4a:	46f4      	mov	ip, lr
 8009b4c:	d815      	bhi.n	8009b7a <rshift+0x7e>
 8009b4e:	1a9a      	subs	r2, r3, r2
 8009b50:	0092      	lsls	r2, r2, #2
 8009b52:	3a04      	subs	r2, #4
 8009b54:	3501      	adds	r5, #1
 8009b56:	42ae      	cmp	r6, r5
 8009b58:	bf38      	it	cc
 8009b5a:	2200      	movcc	r2, #0
 8009b5c:	18a3      	adds	r3, r4, r2
 8009b5e:	50a7      	str	r7, [r4, r2]
 8009b60:	b107      	cbz	r7, 8009b64 <rshift+0x68>
 8009b62:	3304      	adds	r3, #4
 8009b64:	1b1a      	subs	r2, r3, r4
 8009b66:	42a3      	cmp	r3, r4
 8009b68:	ea4f 02a2 	mov.w	r2, r2, asr #2
 8009b6c:	bf08      	it	eq
 8009b6e:	2300      	moveq	r3, #0
 8009b70:	6102      	str	r2, [r0, #16]
 8009b72:	bf08      	it	eq
 8009b74:	6143      	streq	r3, [r0, #20]
 8009b76:	e8bd 83f0 	ldmia.w	sp!, {r4, r5, r6, r7, r8, r9, pc}
 8009b7a:	f8dc c000 	ldr.w	ip, [ip]
 8009b7e:	fa0c fc08 	lsl.w	ip, ip, r8
 8009b82:	ea4c 0707 	orr.w	r7, ip, r7
 8009b86:	f849 7b04 	str.w	r7, [r9], #4
 8009b8a:	f85e 7b04 	ldr.w	r7, [lr], #4
 8009b8e:	40cf      	lsrs	r7, r1
 8009b90:	e7da      	b.n	8009b48 <rshift+0x4c>
 8009b92:	f851 cb04 	ldr.w	ip, [r1], #4
 8009b96:	f847 cf04 	str.w	ip, [r7, #4]!
 8009b9a:	e7c3      	b.n	8009b24 <rshift+0x28>
 8009b9c:	4623      	mov	r3, r4
 8009b9e:	e7e1      	b.n	8009b64 <rshift+0x68>

08009ba0 <__hexdig_fun>:
 8009ba0:	f1a0 0330 	sub.w	r3, r0, #48	@ 0x30
 8009ba4:	2b09      	cmp	r3, #9
 8009ba6:	d802      	bhi.n	8009bae <__hexdig_fun+0xe>
 8009ba8:	3820      	subs	r0, #32
 8009baa:	b2c0      	uxtb	r0, r0
 8009bac:	4770      	bx	lr
 8009bae:	f1a0 0361 	sub.w	r3, r0, #97	@ 0x61
 8009bb2:	2b05      	cmp	r3, #5
 8009bb4:	d801      	bhi.n	8009bba <__hexdig_fun+0x1a>
 8009bb6:	3847      	subs	r0, #71	@ 0x47
 8009bb8:	e7f7      	b.n	8009baa <__hexdig_fun+0xa>
 8009bba:	f1a0 0341 	sub.w	r3, r0, #65	@ 0x41
 8009bbe:	2b05      	cmp	r3, #5
 8009bc0:	d801      	bhi.n	8009bc6 <__hexdig_fun+0x26>
 8009bc2:	3827      	subs	r0, #39	@ 0x27
 8009bc4:	e7f1      	b.n	8009baa <__hexdig_fun+0xa>
 8009bc6:	2000      	movs	r0, #0
 8009bc8:	4770      	bx	lr
	...

08009bcc <__gethex>:
 8009bcc:	e92d 4ff0 	stmdb	sp!, {r4, r5, r6, r7, r8, r9, sl, fp, lr}
 8009bd0:	b085      	sub	sp, #20
 8009bd2:	468a      	mov	sl, r1
 8009bd4:	9302      	str	r3, [sp, #8]
 8009bd6:	680b      	ldr	r3, [r1, #0]
 8009bd8:	9001      	str	r0, [sp, #4]
 8009bda:	4690      	mov	r8, r2
 8009bdc:	1c9c      	adds	r4, r3, #2
 8009bde:	46a1      	mov	r9, r4
 8009be0:	f814 0b01 	ldrb.w	r0, [r4], #1
 8009be4:	2830      	cmp	r0, #48	@ 0x30
 8009be6:	d0fa      	beq.n	8009bde <__gethex+0x12>
 8009be8:	eba9 0303 	sub.w	r3, r9, r3
 8009bec:	f1a3 0b02 	sub.w	fp, r3, #2
 8009bf0:	f7ff ffd6 	bl	8009ba0 <__hexdig_fun>
 8009bf4:	4605      	mov	r5, r0
 8009bf6:	2800      	cmp	r0, #0
 8009bf8:	d168      	bne.n	8009ccc <__gethex+0x100>
 8009bfa:	49a0      	ldr	r1, [pc, #640]	@ (8009e7c <__gethex+0x2b0>)
 8009bfc:	2201      	movs	r2, #1
 8009bfe:	4648      	mov	r0, r9
 8009c00:	f7ff fe6b 	bl	80098da <strncmp>
 8009c04:	4607      	mov	r7, r0
 8009c06:	2800      	cmp	r0, #0
 8009c08:	d167      	bne.n	8009cda <__gethex+0x10e>
 8009c0a:	f899 0001 	ldrb.w	r0, [r9, #1]
 8009c0e:	4626      	mov	r6, r4
 8009c10:	f7ff ffc6 	bl	8009ba0 <__hexdig_fun>
 8009c14:	2800      	cmp	r0, #0
 8009c16:	d062      	beq.n	8009cde <__gethex+0x112>
 8009c18:	4623      	mov	r3, r4
 8009c1a:	7818      	ldrb	r0, [r3, #0]
 8009c1c:	2830      	cmp	r0, #48	@ 0x30
 8009c1e:	4699      	mov	r9, r3
 8009c20:	f103 0301 	add.w	r3, r3, #1
 8009c24:	d0f9      	beq.n	8009c1a <__gethex+0x4e>
 8009c26:	f7ff ffbb 	bl	8009ba0 <__hexdig_fun>
 8009c2a:	fab0 f580 	clz	r5, r0
 8009c2e:	096d      	lsrs	r5, r5, #5
 8009c30:	f04f 0b01 	mov.w	fp, #1
 8009c34:	464a      	mov	r2, r9
 8009c36:	4616      	mov	r6, r2
 8009c38:	3201      	adds	r2, #1
 8009c3a:	7830      	ldrb	r0, [r6, #0]
 8009c3c:	f7ff ffb0 	bl	8009ba0 <__hexdig_fun>
 8009c40:	2800      	cmp	r0, #0
 8009c42:	d1f8      	bne.n	8009c36 <__gethex+0x6a>
 8009c44:	498d      	ldr	r1, [pc, #564]	@ (8009e7c <__gethex+0x2b0>)
 8009c46:	2201      	movs	r2, #1
 8009c48:	4630      	mov	r0, r6
 8009c4a:	f7ff fe46 	bl	80098da <strncmp>
 8009c4e:	2800      	cmp	r0, #0
 8009c50:	d13f      	bne.n	8009cd2 <__gethex+0x106>
 8009c52:	b944      	cbnz	r4, 8009c66 <__gethex+0x9a>
 8009c54:	1c74      	adds	r4, r6, #1
 8009c56:	4622      	mov	r2, r4
 8009c58:	4616      	mov	r6, r2
 8009c5a:	3201      	adds	r2, #1
 8009c5c:	7830      	ldrb	r0, [r6, #0]
 8009c5e:	f7ff ff9f 	bl	8009ba0 <__hexdig_fun>
 8009c62:	2800      	cmp	r0, #0
 8009c64:	d1f8      	bne.n	8009c58 <__gethex+0x8c>
 8009c66:	1ba4      	subs	r4, r4, r6
 8009c68:	00a7      	lsls	r7, r4, #2
 8009c6a:	7833      	ldrb	r3, [r6, #0]
 8009c6c:	f003 03df 	and.w	r3, r3, #223	@ 0xdf
 8009c70:	2b50      	cmp	r3, #80	@ 0x50
 8009c72:	d13e      	bne.n	8009cf2 <__gethex+0x126>
 8009c74:	7873      	ldrb	r3, [r6, #1]
 8009c76:	2b2b      	cmp	r3, #43	@ 0x2b
 8009c78:	d033      	beq.n	8009ce2 <__gethex+0x116>
 8009c7a:	2b2d      	cmp	r3, #45	@ 0x2d
 8009c7c:	d034      	beq.n	8009ce8 <__gethex+0x11c>
 8009c7e:	1c71      	adds	r1, r6, #1
 8009c80:	2400      	movs	r4, #0
 8009c82:	7808      	ldrb	r0, [r1, #0]
 8009c84:	f7ff ff8c 	bl	8009ba0 <__hexdig_fun>
 8009c88:	1e43      	subs	r3, r0, #1
 8009c8a:	b2db      	uxtb	r3, r3
 8009c8c:	2b18      	cmp	r3, #24
 8009c8e:	d830      	bhi.n	8009cf2 <__gethex+0x126>
 8009c90:	f1a0 0210 	sub.w	r2, r0, #16
 8009c94:	f811 0f01 	ldrb.w	r0, [r1, #1]!
 8009c98:	f7ff ff82 	bl	8009ba0 <__hexdig_fun>
 8009c9c:	f100 3cff 	add.w	ip, r0, #4294967295
 8009ca0:	fa5f fc8c 	uxtb.w	ip, ip
 8009ca4:	f1bc 0f18 	cmp.w	ip, #24
 8009ca8:	f04f 030a 	mov.w	r3, #10
 8009cac:	d91e      	bls.n	8009cec <__gethex+0x120>
 8009cae:	b104      	cbz	r4, 8009cb2 <__gethex+0xe6>
 8009cb0:	4252      	negs	r2, r2
 8009cb2:	4417      	add	r7, r2
 8009cb4:	f8ca 1000 	str.w	r1, [sl]
 8009cb8:	b1ed      	cbz	r5, 8009cf6 <__gethex+0x12a>
 8009cba:	f1bb 0f00 	cmp.w	fp, #0
 8009cbe:	bf0c      	ite	eq
 8009cc0:	2506      	moveq	r5, #6
 8009cc2:	2500      	movne	r5, #0
 8009cc4:	4628      	mov	r0, r5
 8009cc6:	b005      	add	sp, #20
 8009cc8:	e8bd 8ff0 	ldmia.w	sp!, {r4, r5, r6, r7, r8, r9, sl, fp, pc}
 8009ccc:	2500      	movs	r5, #0
 8009cce:	462c      	mov	r4, r5
 8009cd0:	e7b0      	b.n	8009c34 <__gethex+0x68>
 8009cd2:	2c00      	cmp	r4, #0
 8009cd4:	d1c7      	bne.n	8009c66 <__gethex+0x9a>
 8009cd6:	4627      	mov	r7, r4
 8009cd8:	e7c7      	b.n	8009c6a <__gethex+0x9e>
 8009cda:	464e      	mov	r6, r9
 8009cdc:	462f      	mov	r7, r5
 8009cde:	2501      	movs	r5, #1
 8009ce0:	e7c3      	b.n	8009c6a <__gethex+0x9e>
 8009ce2:	2400      	movs	r4, #0
 8009ce4:	1cb1      	adds	r1, r6, #2
 8009ce6:	e7cc      	b.n	8009c82 <__gethex+0xb6>
 8009ce8:	2401      	movs	r4, #1
 8009cea:	e7fb      	b.n	8009ce4 <__gethex+0x118>
 8009cec:	fb03 0002 	mla	r0, r3, r2, r0
 8009cf0:	e7ce      	b.n	8009c90 <__gethex+0xc4>
 8009cf2:	4631      	mov	r1, r6
 8009cf4:	e7de      	b.n	8009cb4 <__gethex+0xe8>
 8009cf6:	eba6 0309 	sub.w	r3, r6, r9
 8009cfa:	3b01      	subs	r3, #1
 8009cfc:	4629      	mov	r1, r5
 8009cfe:	2b07      	cmp	r3, #7
 8009d00:	dc0a      	bgt.n	8009d18 <__gethex+0x14c>
 8009d02:	9801      	ldr	r0, [sp, #4]
 8009d04:	f000 fa46 	bl	800a194 <_Balloc>
 8009d08:	4604      	mov	r4, r0
 8009d0a:	b940      	cbnz	r0, 8009d1e <__gethex+0x152>
 8009d0c:	4b5c      	ldr	r3, [pc, #368]	@ (8009e80 <__gethex+0x2b4>)
 8009d0e:	4602      	mov	r2, r0
 8009d10:	21e4      	movs	r1, #228	@ 0xe4
 8009d12:	485c      	ldr	r0, [pc, #368]	@ (8009e84 <__gethex+0x2b8>)
 8009d14:	f001 faa6 	bl	800b264 <__assert_func>
 8009d18:	3101      	adds	r1, #1
 8009d1a:	105b      	asrs	r3, r3, #1
 8009d1c:	e7ef      	b.n	8009cfe <__gethex+0x132>
 8009d1e:	f100 0a14 	add.w	sl, r0, #20
 8009d22:	2300      	movs	r3, #0
 8009d24:	4655      	mov	r5, sl
 8009d26:	469b      	mov	fp, r3
 8009d28:	45b1      	cmp	r9, r6
 8009d2a:	d337      	bcc.n	8009d9c <__gethex+0x1d0>
 8009d2c:	f845 bb04 	str.w	fp, [r5], #4
 8009d30:	eba5 050a 	sub.w	r5, r5, sl
 8009d34:	10ad      	asrs	r5, r5, #2
 8009d36:	6125      	str	r5, [r4, #16]
 8009d38:	4658      	mov	r0, fp
 8009d3a:	f000 fb1d 	bl	800a378 <__hi0bits>
 8009d3e:	016d      	lsls	r5, r5, #5
 8009d40:	f8d8 6000 	ldr.w	r6, [r8]
 8009d44:	1a2d      	subs	r5, r5, r0
 8009d46:	42b5      	cmp	r5, r6
 8009d48:	dd54      	ble.n	8009df4 <__gethex+0x228>
 8009d4a:	1bad      	subs	r5, r5, r6
 8009d4c:	4629      	mov	r1, r5
 8009d4e:	4620      	mov	r0, r4
 8009d50:	f000 fea9 	bl	800aaa6 <__any_on>
 8009d54:	4681      	mov	r9, r0
 8009d56:	b178      	cbz	r0, 8009d78 <__gethex+0x1ac>
 8009d58:	1e6b      	subs	r3, r5, #1
 8009d5a:	1159      	asrs	r1, r3, #5
 8009d5c:	f003 021f 	and.w	r2, r3, #31
 8009d60:	f85a 1021 	ldr.w	r1, [sl, r1, lsl #2]
 8009d64:	f04f 0901 	mov.w	r9, #1
 8009d68:	fa09 f202 	lsl.w	r2, r9, r2
 8009d6c:	420a      	tst	r2, r1
 8009d6e:	d003      	beq.n	8009d78 <__gethex+0x1ac>
 8009d70:	454b      	cmp	r3, r9
 8009d72:	dc36      	bgt.n	8009de2 <__gethex+0x216>
 8009d74:	f04f 0902 	mov.w	r9, #2
 8009d78:	4629      	mov	r1, r5
 8009d7a:	4620      	mov	r0, r4
 8009d7c:	f7ff febe 	bl	8009afc <rshift>
 8009d80:	442f      	add	r7, r5
 8009d82:	f8d8 3008 	ldr.w	r3, [r8, #8]
 8009d86:	42bb      	cmp	r3, r7
 8009d88:	da42      	bge.n	8009e10 <__gethex+0x244>
 8009d8a:	9801      	ldr	r0, [sp, #4]
 8009d8c:	4621      	mov	r1, r4
 8009d8e:	f000 fa41 	bl	800a214 <_Bfree>
 8009d92:	9a0e      	ldr	r2, [sp, #56]	@ 0x38
 8009d94:	2300      	movs	r3, #0
 8009d96:	6013      	str	r3, [r2, #0]
 8009d98:	25a3      	movs	r5, #163	@ 0xa3
 8009d9a:	e793      	b.n	8009cc4 <__gethex+0xf8>
 8009d9c:	f816 2d01 	ldrb.w	r2, [r6, #-1]!
 8009da0:	2a2e      	cmp	r2, #46	@ 0x2e
 8009da2:	d012      	beq.n	8009dca <__gethex+0x1fe>
 8009da4:	2b20      	cmp	r3, #32
 8009da6:	d104      	bne.n	8009db2 <__gethex+0x1e6>
 8009da8:	f845 bb04 	str.w	fp, [r5], #4
 8009dac:	f04f 0b00 	mov.w	fp, #0
 8009db0:	465b      	mov	r3, fp
 8009db2:	7830      	ldrb	r0, [r6, #0]
 8009db4:	9303      	str	r3, [sp, #12]
 8009db6:	f7ff fef3 	bl	8009ba0 <__hexdig_fun>
 8009dba:	9b03      	ldr	r3, [sp, #12]
 8009dbc:	f000 000f 	and.w	r0, r0, #15
 8009dc0:	4098      	lsls	r0, r3
 8009dc2:	ea4b 0b00 	orr.w	fp, fp, r0
 8009dc6:	3304      	adds	r3, #4
 8009dc8:	e7ae      	b.n	8009d28 <__gethex+0x15c>
 8009dca:	45b1      	cmp	r9, r6
 8009dcc:	d8ea      	bhi.n	8009da4 <__gethex+0x1d8>
 8009dce:	492b      	ldr	r1, [pc, #172]	@ (8009e7c <__gethex+0x2b0>)
 8009dd0:	9303      	str	r3, [sp, #12]
 8009dd2:	2201      	movs	r2, #1
 8009dd4:	4630      	mov	r0, r6
 8009dd6:	f7ff fd80 	bl	80098da <strncmp>
 8009dda:	9b03      	ldr	r3, [sp, #12]
 8009ddc:	2800      	cmp	r0, #0
 8009dde:	d1e1      	bne.n	8009da4 <__gethex+0x1d8>
 8009de0:	e7a2      	b.n	8009d28 <__gethex+0x15c>
 8009de2:	1ea9      	subs	r1, r5, #2
 8009de4:	4620      	mov	r0, r4
 8009de6:	f000 fe5e 	bl	800aaa6 <__any_on>
 8009dea:	2800      	cmp	r0, #0
 8009dec:	d0c2      	beq.n	8009d74 <__gethex+0x1a8>
 8009dee:	f04f 0903 	mov.w	r9, #3
 8009df2:	e7c1      	b.n	8009d78 <__gethex+0x1ac>
 8009df4:	da09      	bge.n	8009e0a <__gethex+0x23e>
 8009df6:	1b75      	subs	r5, r6, r5
 8009df8:	4621      	mov	r1, r4
 8009dfa:	9801      	ldr	r0, [sp, #4]
 8009dfc:	462a      	mov	r2, r5
 8009dfe:	f000 fc19 	bl	800a634 <__lshift>
 8009e02:	1b7f      	subs	r7, r7, r5
 8009e04:	4604      	mov	r4, r0
 8009e06:	f100 0a14 	add.w	sl, r0, #20
 8009e0a:	f04f 0900 	mov.w	r9, #0
 8009e0e:	e7b8      	b.n	8009d82 <__gethex+0x1b6>
 8009e10:	f8d8 5004 	ldr.w	r5, [r8, #4]
 8009e14:	42bd      	cmp	r5, r7
 8009e16:	dd6f      	ble.n	8009ef8 <__gethex+0x32c>
 8009e18:	1bed      	subs	r5, r5, r7
 8009e1a:	42ae      	cmp	r6, r5
 8009e1c:	dc34      	bgt.n	8009e88 <__gethex+0x2bc>
 8009e1e:	f8d8 300c 	ldr.w	r3, [r8, #12]
 8009e22:	2b02      	cmp	r3, #2
 8009e24:	d022      	beq.n	8009e6c <__gethex+0x2a0>
 8009e26:	2b03      	cmp	r3, #3
 8009e28:	d024      	beq.n	8009e74 <__gethex+0x2a8>
 8009e2a:	2b01      	cmp	r3, #1
 8009e2c:	d115      	bne.n	8009e5a <__gethex+0x28e>
 8009e2e:	42ae      	cmp	r6, r5
 8009e30:	d113      	bne.n	8009e5a <__gethex+0x28e>
 8009e32:	2e01      	cmp	r6, #1
 8009e34:	d10b      	bne.n	8009e4e <__gethex+0x282>
 8009e36:	9a02      	ldr	r2, [sp, #8]
 8009e38:	f8d8 3004 	ldr.w	r3, [r8, #4]
 8009e3c:	6013      	str	r3, [r2, #0]
 8009e3e:	2301      	movs	r3, #1
 8009e40:	6123      	str	r3, [r4, #16]
 8009e42:	f8ca 3000 	str.w	r3, [sl]
 8009e46:	9b0e      	ldr	r3, [sp, #56]	@ 0x38
 8009e48:	2562      	movs	r5, #98	@ 0x62
 8009e4a:	601c      	str	r4, [r3, #0]
 8009e4c:	e73a      	b.n	8009cc4 <__gethex+0xf8>
 8009e4e:	1e71      	subs	r1, r6, #1
 8009e50:	4620      	mov	r0, r4
 8009e52:	f000 fe28 	bl	800aaa6 <__any_on>
 8009e56:	2800      	cmp	r0, #0
 8009e58:	d1ed      	bne.n	8009e36 <__gethex+0x26a>
 8009e5a:	9801      	ldr	r0, [sp, #4]
 8009e5c:	4621      	mov	r1, r4
 8009e5e:	f000 f9d9 	bl	800a214 <_Bfree>
 8009e62:	9a0e      	ldr	r2, [sp, #56]	@ 0x38
 8009e64:	2300      	movs	r3, #0
 8009e66:	6013      	str	r3, [r2, #0]
 8009e68:	2550      	movs	r5, #80	@ 0x50
 8009e6a:	e72b      	b.n	8009cc4 <__gethex+0xf8>
 8009e6c:	9b0f      	ldr	r3, [sp, #60]	@ 0x3c
 8009e6e:	2b00      	cmp	r3, #0
 8009e70:	d1f3      	bne.n	8009e5a <__gethex+0x28e>
 8009e72:	e7e0      	b.n	8009e36 <__gethex+0x26a>
 8009e74:	9b0f      	ldr	r3, [sp, #60]	@ 0x3c
 8009e76:	2b00      	cmp	r3, #0
 8009e78:	d1dd      	bne.n	8009e36 <__gethex+0x26a>
 8009e7a:	e7ee      	b.n	8009e5a <__gethex+0x28e>
 8009e7c:	08033684 	.word	0x08033684
 8009e80:	0803369a 	.word	0x0803369a
 8009e84:	080336ab 	.word	0x080336ab
 8009e88:	1e6f      	subs	r7, r5, #1
 8009e8a:	f1b9 0f00 	cmp.w	r9, #0
 8009e8e:	d130      	bne.n	8009ef2 <__gethex+0x326>
 8009e90:	b127      	cbz	r7, 8009e9c <__gethex+0x2d0>
 8009e92:	4639      	mov	r1, r7
 8009e94:	4620      	mov	r0, r4
 8009e96:	f000 fe06 	bl	800aaa6 <__any_on>
 8009e9a:	4681      	mov	r9, r0
 8009e9c:	117a      	asrs	r2, r7, #5
 8009e9e:	2301      	movs	r3, #1
 8009ea0:	f85a 2022 	ldr.w	r2, [sl, r2, lsl #2]
 8009ea4:	f007 071f 	and.w	r7, r7, #31
 8009ea8:	40bb      	lsls	r3, r7
 8009eaa:	4213      	tst	r3, r2
 8009eac:	4629      	mov	r1, r5
 8009eae:	4620      	mov	r0, r4
 8009eb0:	bf18      	it	ne
 8009eb2:	f049 0902 	orrne.w	r9, r9, #2
 8009eb6:	f7ff fe21 	bl	8009afc <rshift>
 8009eba:	f8d8 7004 	ldr.w	r7, [r8, #4]
 8009ebe:	1b76      	subs	r6, r6, r5
 8009ec0:	2502      	movs	r5, #2
 8009ec2:	f1b9 0f00 	cmp.w	r9, #0
 8009ec6:	d047      	beq.n	8009f58 <__gethex+0x38c>
 8009ec8:	f8d8 300c 	ldr.w	r3, [r8, #12]
 8009ecc:	2b02      	cmp	r3, #2
 8009ece:	d015      	beq.n	8009efc <__gethex+0x330>
 8009ed0:	2b03      	cmp	r3, #3
 8009ed2:	d017      	beq.n	8009f04 <__gethex+0x338>
 8009ed4:	2b01      	cmp	r3, #1
 8009ed6:	d109      	bne.n	8009eec <__gethex+0x320>
 8009ed8:	f019 0f02 	tst.w	r9, #2
 8009edc:	d006      	beq.n	8009eec <__gethex+0x320>
 8009ede:	f8da 3000 	ldr.w	r3, [sl]
 8009ee2:	ea49 0903 	orr.w	r9, r9, r3
 8009ee6:	f019 0f01 	tst.w	r9, #1
 8009eea:	d10e      	bne.n	8009f0a <__gethex+0x33e>
 8009eec:	f045 0510 	orr.w	r5, r5, #16
 8009ef0:	e032      	b.n	8009f58 <__gethex+0x38c>
 8009ef2:	f04f 0901 	mov.w	r9, #1
 8009ef6:	e7d1      	b.n	8009e9c <__gethex+0x2d0>
 8009ef8:	2501      	movs	r5, #1
 8009efa:	e7e2      	b.n	8009ec2 <__gethex+0x2f6>
 8009efc:	9b0f      	ldr	r3, [sp, #60]	@ 0x3c
 8009efe:	f1c3 0301 	rsb	r3, r3, #1
 8009f02:	930f      	str	r3, [sp, #60]	@ 0x3c
 8009f04:	9b0f      	ldr	r3, [sp, #60]	@ 0x3c
 8009f06:	2b00      	cmp	r3, #0
 8009f08:	d0f0      	beq.n	8009eec <__gethex+0x320>
 8009f0a:	f8d4 b010 	ldr.w	fp, [r4, #16]
 8009f0e:	f104 0314 	add.w	r3, r4, #20
 8009f12:	ea4f 0a8b 	mov.w	sl, fp, lsl #2
 8009f16:	eb03 018b 	add.w	r1, r3, fp, lsl #2
 8009f1a:	f04f 0c00 	mov.w	ip, #0
 8009f1e:	4618      	mov	r0, r3
 8009f20:	f853 2b04 	ldr.w	r2, [r3], #4
 8009f24:	f1b2 3fff 	cmp.w	r2, #4294967295
 8009f28:	d01b      	beq.n	8009f62 <__gethex+0x396>
 8009f2a:	3201      	adds	r2, #1
 8009f2c:	6002      	str	r2, [r0, #0]
 8009f2e:	2d02      	cmp	r5, #2
 8009f30:	f104 0314 	add.w	r3, r4, #20
 8009f34:	d13c      	bne.n	8009fb0 <__gethex+0x3e4>
 8009f36:	f8d8 2000 	ldr.w	r2, [r8]
 8009f3a:	3a01      	subs	r2, #1
 8009f3c:	42b2      	cmp	r2, r6
 8009f3e:	d109      	bne.n	8009f54 <__gethex+0x388>
 8009f40:	1171      	asrs	r1, r6, #5
 8009f42:	2201      	movs	r2, #1
 8009f44:	f853 3021 	ldr.w	r3, [r3, r1, lsl #2]
 8009f48:	f006 061f 	and.w	r6, r6, #31
 8009f4c:	fa02 f606 	lsl.w	r6, r2, r6
 8009f50:	421e      	tst	r6, r3
 8009f52:	d13a      	bne.n	8009fca <__gethex+0x3fe>
 8009f54:	f045 0520 	orr.w	r5, r5, #32
 8009f58:	9b0e      	ldr	r3, [sp, #56]	@ 0x38
 8009f5a:	601c      	str	r4, [r3, #0]
 8009f5c:	9b02      	ldr	r3, [sp, #8]
 8009f5e:	601f      	str	r7, [r3, #0]
 8009f60:	e6b0      	b.n	8009cc4 <__gethex+0xf8>
 8009f62:	4299      	cmp	r1, r3
 8009f64:	f843 cc04 	str.w	ip, [r3, #-4]
 8009f68:	d8d9      	bhi.n	8009f1e <__gethex+0x352>
 8009f6a:	68a3      	ldr	r3, [r4, #8]
 8009f6c:	459b      	cmp	fp, r3
 8009f6e:	db17      	blt.n	8009fa0 <__gethex+0x3d4>
 8009f70:	6861      	ldr	r1, [r4, #4]
 8009f72:	9801      	ldr	r0, [sp, #4]
 8009f74:	3101      	adds	r1, #1
 8009f76:	f000 f90d 	bl	800a194 <_Balloc>
 8009f7a:	4681      	mov	r9, r0
 8009f7c:	b918      	cbnz	r0, 8009f86 <__gethex+0x3ba>
 8009f7e:	4b1a      	ldr	r3, [pc, #104]	@ (8009fe8 <__gethex+0x41c>)
 8009f80:	4602      	mov	r2, r0
 8009f82:	2184      	movs	r1, #132	@ 0x84
 8009f84:	e6c5      	b.n	8009d12 <__gethex+0x146>
 8009f86:	6922      	ldr	r2, [r4, #16]
 8009f88:	3202      	adds	r2, #2
 8009f8a:	f104 010c 	add.w	r1, r4, #12
 8009f8e:	0092      	lsls	r2, r2, #2
 8009f90:	300c      	adds	r0, #12
 8009f92:	f7ff fd52 	bl	8009a3a <memcpy>
 8009f96:	4621      	mov	r1, r4
 8009f98:	9801      	ldr	r0, [sp, #4]
 8009f9a:	f000 f93b 	bl	800a214 <_Bfree>
 8009f9e:	464c      	mov	r4, r9
 8009fa0:	6923      	ldr	r3, [r4, #16]
 8009fa2:	1c5a      	adds	r2, r3, #1
 8009fa4:	eb04 0383 	add.w	r3, r4, r3, lsl #2
 8009fa8:	6122      	str	r2, [r4, #16]
 8009faa:	2201      	movs	r2, #1
 8009fac:	615a      	str	r2, [r3, #20]
 8009fae:	e7be      	b.n	8009f2e <__gethex+0x362>
 8009fb0:	6922      	ldr	r2, [r4, #16]
 8009fb2:	455a      	cmp	r2, fp
 8009fb4:	dd0b      	ble.n	8009fce <__gethex+0x402>
 8009fb6:	2101      	movs	r1, #1
 8009fb8:	4620      	mov	r0, r4
 8009fba:	f7ff fd9f 	bl	8009afc <rshift>
 8009fbe:	f8d8 3008 	ldr.w	r3, [r8, #8]
 8009fc2:	3701      	adds	r7, #1
 8009fc4:	42bb      	cmp	r3, r7
 8009fc6:	f6ff aee0 	blt.w	8009d8a <__gethex+0x1be>
 8009fca:	2501      	movs	r5, #1
 8009fcc:	e7c2      	b.n	8009f54 <__gethex+0x388>
 8009fce:	f016 061f 	ands.w	r6, r6, #31
 8009fd2:	d0fa      	beq.n	8009fca <__gethex+0x3fe>
 8009fd4:	4453      	add	r3, sl
 8009fd6:	f1c6 0620 	rsb	r6, r6, #32
 8009fda:	f853 0c04 	ldr.w	r0, [r3, #-4]
 8009fde:	f000 f9cb 	bl	800a378 <__hi0bits>
 8009fe2:	42b0      	cmp	r0, r6
 8009fe4:	dbe7      	blt.n	8009fb6 <__gethex+0x3ea>
 8009fe6:	e7f0      	b.n	8009fca <__gethex+0x3fe>
 8009fe8:	0803369a 	.word	0x0803369a

08009fec <L_shift>:
 8009fec:	f1c2 0208 	rsb	r2, r2, #8
 8009ff0:	0092      	lsls	r2, r2, #2
 8009ff2:	b570      	push	{r4, r5, r6, lr}
 8009ff4:	f1c2 0620 	rsb	r6, r2, #32
 8009ff8:	6843      	ldr	r3, [r0, #4]
 8009ffa:	6804      	ldr	r4, [r0, #0]
 8009ffc:	fa03 f506 	lsl.w	r5, r3, r6
 800a000:	432c      	orrs	r4, r5
 800a002:	40d3      	lsrs	r3, r2
 800a004:	6004      	str	r4, [r0, #0]
 800a006:	f840 3f04 	str.w	r3, [r0, #4]!
 800a00a:	4288      	cmp	r0, r1
 800a00c:	d3f4      	bcc.n	8009ff8 <L_shift+0xc>
 800a00e:	bd70      	pop	{r4, r5, r6, pc}

0800a010 <__match>:
 800a010:	b530      	push	{r4, r5, lr}
 800a012:	6803      	ldr	r3, [r0, #0]
 800a014:	3301      	adds	r3, #1
 800a016:	f811 4b01 	ldrb.w	r4, [r1], #1
 800a01a:	b914      	cbnz	r4, 800a022 <__match+0x12>
 800a01c:	6003      	str	r3, [r0, #0]
 800a01e:	2001      	movs	r0, #1
 800a020:	bd30      	pop	{r4, r5, pc}
 800a022:	f813 2b01 	ldrb.w	r2, [r3], #1
 800a026:	f1a2 0541 	sub.w	r5, r2, #65	@ 0x41
 800a02a:	2d19      	cmp	r5, #25
 800a02c:	bf98      	it	ls
 800a02e:	3220      	addls	r2, #32
 800a030:	42a2      	cmp	r2, r4
 800a032:	d0f0      	beq.n	800a016 <__match+0x6>
 800a034:	2000      	movs	r0, #0
 800a036:	e7f3      	b.n	800a020 <__match+0x10>

0800a038 <__hexnan>:
 800a038:	e92d 4ff0 	stmdb	sp!, {r4, r5, r6, r7, r8, r9, sl, fp, lr}
 800a03c:	680b      	ldr	r3, [r1, #0]
 800a03e:	6801      	ldr	r1, [r0, #0]
 800a040:	115e      	asrs	r6, r3, #5
 800a042:	eb02 0686 	add.w	r6, r2, r6, lsl #2
 800a046:	f013 031f 	ands.w	r3, r3, #31
 800a04a:	b087      	sub	sp, #28
 800a04c:	bf18      	it	ne
 800a04e:	3604      	addne	r6, #4
 800a050:	2500      	movs	r5, #0
 800a052:	1f37      	subs	r7, r6, #4
 800a054:	4682      	mov	sl, r0
 800a056:	4690      	mov	r8, r2
 800a058:	9301      	str	r3, [sp, #4]
 800a05a:	f846 5c04 	str.w	r5, [r6, #-4]
 800a05e:	46b9      	mov	r9, r7
 800a060:	463c      	mov	r4, r7
 800a062:	9502      	str	r5, [sp, #8]
 800a064:	46ab      	mov	fp, r5
 800a066:	784a      	ldrb	r2, [r1, #1]
 800a068:	1c4b      	adds	r3, r1, #1
 800a06a:	9303      	str	r3, [sp, #12]
 800a06c:	b342      	cbz	r2, 800a0c0 <__hexnan+0x88>
 800a06e:	4610      	mov	r0, r2
 800a070:	9105      	str	r1, [sp, #20]
 800a072:	9204      	str	r2, [sp, #16]
 800a074:	f7ff fd94 	bl	8009ba0 <__hexdig_fun>
 800a078:	2800      	cmp	r0, #0
 800a07a:	d151      	bne.n	800a120 <__hexnan+0xe8>
 800a07c:	9a04      	ldr	r2, [sp, #16]
 800a07e:	9905      	ldr	r1, [sp, #20]
 800a080:	2a20      	cmp	r2, #32
 800a082:	d818      	bhi.n	800a0b6 <__hexnan+0x7e>
 800a084:	9b02      	ldr	r3, [sp, #8]
 800a086:	459b      	cmp	fp, r3
 800a088:	dd13      	ble.n	800a0b2 <__hexnan+0x7a>
 800a08a:	454c      	cmp	r4, r9
 800a08c:	d206      	bcs.n	800a09c <__hexnan+0x64>
 800a08e:	2d07      	cmp	r5, #7
 800a090:	dc04      	bgt.n	800a09c <__hexnan+0x64>
 800a092:	462a      	mov	r2, r5
 800a094:	4649      	mov	r1, r9
 800a096:	4620      	mov	r0, r4
 800a098:	f7ff ffa8 	bl	8009fec <L_shift>
 800a09c:	4544      	cmp	r4, r8
 800a09e:	d952      	bls.n	800a146 <__hexnan+0x10e>
 800a0a0:	2300      	movs	r3, #0
 800a0a2:	f1a4 0904 	sub.w	r9, r4, #4
 800a0a6:	f844 3c04 	str.w	r3, [r4, #-4]
 800a0aa:	f8cd b008 	str.w	fp, [sp, #8]
 800a0ae:	464c      	mov	r4, r9
 800a0b0:	461d      	mov	r5, r3
 800a0b2:	9903      	ldr	r1, [sp, #12]
 800a0b4:	e7d7      	b.n	800a066 <__hexnan+0x2e>
 800a0b6:	2a29      	cmp	r2, #41	@ 0x29
 800a0b8:	d157      	bne.n	800a16a <__hexnan+0x132>
 800a0ba:	3102      	adds	r1, #2
 800a0bc:	f8ca 1000 	str.w	r1, [sl]
 800a0c0:	f1bb 0f00 	cmp.w	fp, #0
 800a0c4:	d051      	beq.n	800a16a <__hexnan+0x132>
 800a0c6:	454c      	cmp	r4, r9
 800a0c8:	d206      	bcs.n	800a0d8 <__hexnan+0xa0>
 800a0ca:	2d07      	cmp	r5, #7
 800a0cc:	dc04      	bgt.n	800a0d8 <__hexnan+0xa0>
 800a0ce:	462a      	mov	r2, r5
 800a0d0:	4649      	mov	r1, r9
 800a0d2:	4620      	mov	r0, r4
 800a0d4:	f7ff ff8a 	bl	8009fec <L_shift>
 800a0d8:	4544      	cmp	r4, r8
 800a0da:	d936      	bls.n	800a14a <__hexnan+0x112>
 800a0dc:	f1a8 0204 	sub.w	r2, r8, #4
 800a0e0:	4623      	mov	r3, r4
 800a0e2:	f853 1b04 	ldr.w	r1, [r3], #4
 800a0e6:	f842 1f04 	str.w	r1, [r2, #4]!
 800a0ea:	429f      	cmp	r7, r3
 800a0ec:	d2f9      	bcs.n	800a0e2 <__hexnan+0xaa>
 800a0ee:	1b3b      	subs	r3, r7, r4
 800a0f0:	f023 0303 	bic.w	r3, r3, #3
 800a0f4:	3304      	adds	r3, #4
 800a0f6:	3401      	adds	r4, #1
 800a0f8:	3e03      	subs	r6, #3
 800a0fa:	42b4      	cmp	r4, r6
 800a0fc:	bf88      	it	hi
 800a0fe:	2304      	movhi	r3, #4
 800a100:	4443      	add	r3, r8
 800a102:	2200      	movs	r2, #0
 800a104:	f843 2b04 	str.w	r2, [r3], #4
 800a108:	429f      	cmp	r7, r3
 800a10a:	d2fb      	bcs.n	800a104 <__hexnan+0xcc>
 800a10c:	683b      	ldr	r3, [r7, #0]
 800a10e:	b91b      	cbnz	r3, 800a118 <__hexnan+0xe0>
 800a110:	4547      	cmp	r7, r8
 800a112:	d128      	bne.n	800a166 <__hexnan+0x12e>
 800a114:	2301      	movs	r3, #1
 800a116:	603b      	str	r3, [r7, #0]
 800a118:	2005      	movs	r0, #5
 800a11a:	b007      	add	sp, #28
 800a11c:	e8bd 8ff0 	ldmia.w	sp!, {r4, r5, r6, r7, r8, r9, sl, fp, pc}
 800a120:	3501      	adds	r5, #1
 800a122:	2d08      	cmp	r5, #8
 800a124:	f10b 0b01 	add.w	fp, fp, #1
 800a128:	dd06      	ble.n	800a138 <__hexnan+0x100>
 800a12a:	4544      	cmp	r4, r8
 800a12c:	d9c1      	bls.n	800a0b2 <__hexnan+0x7a>
 800a12e:	2300      	movs	r3, #0
 800a130:	f844 3c04 	str.w	r3, [r4, #-4]
 800a134:	2501      	movs	r5, #1
 800a136:	3c04      	subs	r4, #4
 800a138:	6822      	ldr	r2, [r4, #0]
 800a13a:	f000 000f 	and.w	r0, r0, #15
 800a13e:	ea40 1002 	orr.w	r0, r0, r2, lsl #4
 800a142:	6020      	str	r0, [r4, #0]
 800a144:	e7b5      	b.n	800a0b2 <__hexnan+0x7a>
 800a146:	2508      	movs	r5, #8
 800a148:	e7b3      	b.n	800a0b2 <__hexnan+0x7a>
 800a14a:	9b01      	ldr	r3, [sp, #4]
 800a14c:	2b00      	cmp	r3, #0
 800a14e:	d0dd      	beq.n	800a10c <__hexnan+0xd4>
 800a150:	f1c3 0320 	rsb	r3, r3, #32
 800a154:	f04f 32ff 	mov.w	r2, #4294967295
 800a158:	40da      	lsrs	r2, r3
 800a15a:	f856 3c04 	ldr.w	r3, [r6, #-4]
 800a15e:	4013      	ands	r3, r2
 800a160:	f846 3c04 	str.w	r3, [r6, #-4]
 800a164:	e7d2      	b.n	800a10c <__hexnan+0xd4>
 800a166:	3f04      	subs	r7, #4
 800a168:	e7d0      	b.n	800a10c <__hexnan+0xd4>
 800a16a:	2004      	movs	r0, #4
 800a16c:	e7d5      	b.n	800a11a <__hexnan+0xe2>

0800a16e <__ascii_mbtowc>:
 800a16e:	b082      	sub	sp, #8
 800a170:	b901      	cbnz	r1, 800a174 <__ascii_mbtowc+0x6>
 800a172:	a901      	add	r1, sp, #4
 800a174:	b142      	cbz	r2, 800a188 <__ascii_mbtowc+0x1a>
 800a176:	b14b      	cbz	r3, 800a18c <__ascii_mbtowc+0x1e>
 800a178:	7813      	ldrb	r3, [r2, #0]
 800a17a:	600b      	str	r3, [r1, #0]
 800a17c:	7812      	ldrb	r2, [r2, #0]
 800a17e:	1e10      	subs	r0, r2, #0
 800a180:	bf18      	it	ne
 800a182:	2001      	movne	r0, #1
 800a184:	b002      	add	sp, #8
 800a186:	4770      	bx	lr
 800a188:	4610      	mov	r0, r2
 800a18a:	e7fb      	b.n	800a184 <__ascii_mbtowc+0x16>
 800a18c:	f06f 0001 	mvn.w	r0, #1
 800a190:	e7f8      	b.n	800a184 <__ascii_mbtowc+0x16>
	...

0800a194 <_Balloc>:
 800a194:	b570      	push	{r4, r5, r6, lr}
 800a196:	69c6      	ldr	r6, [r0, #28]
 800a198:	4604      	mov	r4, r0
 800a19a:	460d      	mov	r5, r1
 800a19c:	b976      	cbnz	r6, 800a1bc <_Balloc+0x28>
 800a19e:	2010      	movs	r0, #16
 800a1a0:	f7fe fb4e 	bl	8008840 <malloc>
 800a1a4:	4602      	mov	r2, r0
 800a1a6:	61e0      	str	r0, [r4, #28]
 800a1a8:	b920      	cbnz	r0, 800a1b4 <_Balloc+0x20>
 800a1aa:	4b18      	ldr	r3, [pc, #96]	@ (800a20c <_Balloc+0x78>)
 800a1ac:	4818      	ldr	r0, [pc, #96]	@ (800a210 <_Balloc+0x7c>)
 800a1ae:	216b      	movs	r1, #107	@ 0x6b
 800a1b0:	f001 f858 	bl	800b264 <__assert_func>
 800a1b4:	e9c0 6601 	strd	r6, r6, [r0, #4]
 800a1b8:	6006      	str	r6, [r0, #0]
 800a1ba:	60c6      	str	r6, [r0, #12]
 800a1bc:	69e6      	ldr	r6, [r4, #28]
 800a1be:	68f3      	ldr	r3, [r6, #12]
 800a1c0:	b183      	cbz	r3, 800a1e4 <_Balloc+0x50>
 800a1c2:	69e3      	ldr	r3, [r4, #28]
 800a1c4:	68db      	ldr	r3, [r3, #12]
 800a1c6:	f853 0025 	ldr.w	r0, [r3, r5, lsl #2]
 800a1ca:	b9b8      	cbnz	r0, 800a1fc <_Balloc+0x68>
 800a1cc:	2101      	movs	r1, #1
 800a1ce:	fa01 f605 	lsl.w	r6, r1, r5
 800a1d2:	1d72      	adds	r2, r6, #5
 800a1d4:	0092      	lsls	r2, r2, #2
 800a1d6:	4620      	mov	r0, r4
 800a1d8:	f001 f862 	bl	800b2a0 <_calloc_r>
 800a1dc:	b160      	cbz	r0, 800a1f8 <_Balloc+0x64>
 800a1de:	e9c0 5601 	strd	r5, r6, [r0, #4]
 800a1e2:	e00e      	b.n	800a202 <_Balloc+0x6e>
 800a1e4:	2221      	movs	r2, #33	@ 0x21
 800a1e6:	2104      	movs	r1, #4
 800a1e8:	4620      	mov	r0, r4
 800a1ea:	f001 f859 	bl	800b2a0 <_calloc_r>
 800a1ee:	69e3      	ldr	r3, [r4, #28]
 800a1f0:	60f0      	str	r0, [r6, #12]
 800a1f2:	68db      	ldr	r3, [r3, #12]
 800a1f4:	2b00      	cmp	r3, #0
 800a1f6:	d1e4      	bne.n	800a1c2 <_Balloc+0x2e>
 800a1f8:	2000      	movs	r0, #0
 800a1fa:	bd70      	pop	{r4, r5, r6, pc}
 800a1fc:	6802      	ldr	r2, [r0, #0]
 800a1fe:	f843 2025 	str.w	r2, [r3, r5, lsl #2]
 800a202:	2300      	movs	r3, #0
 800a204:	e9c0 3303 	strd	r3, r3, [r0, #12]
 800a208:	e7f7      	b.n	800a1fa <_Balloc+0x66>
 800a20a:	bf00      	nop
 800a20c:	0803370b 	.word	0x0803370b
 800a210:	08033722 	.word	0x08033722

0800a214 <_Bfree>:
 800a214:	b570      	push	{r4, r5, r6, lr}
 800a216:	69c6      	ldr	r6, [r0, #28]
 800a218:	4605      	mov	r5, r0
 800a21a:	460c      	mov	r4, r1
 800a21c:	b976      	cbnz	r6, 800a23c <_Bfree+0x28>
 800a21e:	2010      	movs	r0, #16
 800a220:	f7fe fb0e 	bl	8008840 <malloc>
 800a224:	4602      	mov	r2, r0
 800a226:	61e8      	str	r0, [r5, #28]
 800a228:	b920      	cbnz	r0, 800a234 <_Bfree+0x20>
 800a22a:	4b09      	ldr	r3, [pc, #36]	@ (800a250 <_Bfree+0x3c>)
 800a22c:	4809      	ldr	r0, [pc, #36]	@ (800a254 <_Bfree+0x40>)
 800a22e:	218f      	movs	r1, #143	@ 0x8f
 800a230:	f001 f818 	bl	800b264 <__assert_func>
 800a234:	e9c0 6601 	strd	r6, r6, [r0, #4]
 800a238:	6006      	str	r6, [r0, #0]
 800a23a:	60c6      	str	r6, [r0, #12]
 800a23c:	b13c      	cbz	r4, 800a24e <_Bfree+0x3a>
 800a23e:	69eb      	ldr	r3, [r5, #28]
 800a240:	6862      	ldr	r2, [r4, #4]
 800a242:	68db      	ldr	r3, [r3, #12]
 800a244:	f853 1022 	ldr.w	r1, [r3, r2, lsl #2]
 800a248:	6021      	str	r1, [r4, #0]
 800a24a:	f843 4022 	str.w	r4, [r3, r2, lsl #2]
 800a24e:	bd70      	pop	{r4, r5, r6, pc}
 800a250:	0803370b 	.word	0x0803370b
 800a254:	08033722 	.word	0x08033722

0800a258 <__multadd>:
 800a258:	e92d 41f0 	stmdb	sp!, {r4, r5, r6, r7, r8, lr}
 800a25c:	690d      	ldr	r5, [r1, #16]
 800a25e:	4607      	mov	r7, r0
 800a260:	460c      	mov	r4, r1
 800a262:	461e      	mov	r6, r3
 800a264:	f101 0c14 	add.w	ip, r1, #20
 800a268:	2000      	movs	r0, #0
 800a26a:	f8dc 3000 	ldr.w	r3, [ip]
 800a26e:	b299      	uxth	r1, r3
 800a270:	fb02 6101 	mla	r1, r2, r1, r6
 800a274:	0c1e      	lsrs	r6, r3, #16
 800a276:	0c0b      	lsrs	r3, r1, #16
 800a278:	fb02 3306 	mla	r3, r2, r6, r3
 800a27c:	b289      	uxth	r1, r1
 800a27e:	3001      	adds	r0, #1
 800a280:	eb01 4103 	add.w	r1, r1, r3, lsl #16
 800a284:	4285      	cmp	r5, r0
 800a286:	f84c 1b04 	str.w	r1, [ip], #4
 800a28a:	ea4f 4613 	mov.w	r6, r3, lsr #16
 800a28e:	dcec      	bgt.n	800a26a <__multadd+0x12>
 800a290:	b30e      	cbz	r6, 800a2d6 <__multadd+0x7e>
 800a292:	68a3      	ldr	r3, [r4, #8]
 800a294:	42ab      	cmp	r3, r5
 800a296:	dc19      	bgt.n	800a2cc <__multadd+0x74>
 800a298:	6861      	ldr	r1, [r4, #4]
 800a29a:	4638      	mov	r0, r7
 800a29c:	3101      	adds	r1, #1
 800a29e:	f7ff ff79 	bl	800a194 <_Balloc>
 800a2a2:	4680      	mov	r8, r0
 800a2a4:	b928      	cbnz	r0, 800a2b2 <__multadd+0x5a>
 800a2a6:	4602      	mov	r2, r0
 800a2a8:	4b0c      	ldr	r3, [pc, #48]	@ (800a2dc <__multadd+0x84>)
 800a2aa:	480d      	ldr	r0, [pc, #52]	@ (800a2e0 <__multadd+0x88>)
 800a2ac:	21ba      	movs	r1, #186	@ 0xba
 800a2ae:	f000 ffd9 	bl	800b264 <__assert_func>
 800a2b2:	6922      	ldr	r2, [r4, #16]
 800a2b4:	3202      	adds	r2, #2
 800a2b6:	f104 010c 	add.w	r1, r4, #12
 800a2ba:	0092      	lsls	r2, r2, #2
 800a2bc:	300c      	adds	r0, #12
 800a2be:	f7ff fbbc 	bl	8009a3a <memcpy>
 800a2c2:	4621      	mov	r1, r4
 800a2c4:	4638      	mov	r0, r7
 800a2c6:	f7ff ffa5 	bl	800a214 <_Bfree>
 800a2ca:	4644      	mov	r4, r8
 800a2cc:	eb04 0385 	add.w	r3, r4, r5, lsl #2
 800a2d0:	3501      	adds	r5, #1
 800a2d2:	615e      	str	r6, [r3, #20]
 800a2d4:	6125      	str	r5, [r4, #16]
 800a2d6:	4620      	mov	r0, r4
 800a2d8:	e8bd 81f0 	ldmia.w	sp!, {r4, r5, r6, r7, r8, pc}
 800a2dc:	0803369a 	.word	0x0803369a
 800a2e0:	08033722 	.word	0x08033722

0800a2e4 <__s2b>:
 800a2e4:	e92d 43f8 	stmdb	sp!, {r3, r4, r5, r6, r7, r8, r9, lr}
 800a2e8:	460c      	mov	r4, r1
 800a2ea:	4615      	mov	r5, r2
 800a2ec:	461f      	mov	r7, r3
 800a2ee:	2209      	movs	r2, #9
 800a2f0:	3308      	adds	r3, #8
 800a2f2:	4606      	mov	r6, r0
 800a2f4:	fb93 f3f2 	sdiv	r3, r3, r2
 800a2f8:	2100      	movs	r1, #0
 800a2fa:	2201      	movs	r2, #1
 800a2fc:	429a      	cmp	r2, r3
 800a2fe:	db09      	blt.n	800a314 <__s2b+0x30>
 800a300:	4630      	mov	r0, r6
 800a302:	f7ff ff47 	bl	800a194 <_Balloc>
 800a306:	b940      	cbnz	r0, 800a31a <__s2b+0x36>
 800a308:	4602      	mov	r2, r0
 800a30a:	4b19      	ldr	r3, [pc, #100]	@ (800a370 <__s2b+0x8c>)
 800a30c:	4819      	ldr	r0, [pc, #100]	@ (800a374 <__s2b+0x90>)
 800a30e:	21d3      	movs	r1, #211	@ 0xd3
 800a310:	f000 ffa8 	bl	800b264 <__assert_func>
 800a314:	0052      	lsls	r2, r2, #1
 800a316:	3101      	adds	r1, #1
 800a318:	e7f0      	b.n	800a2fc <__s2b+0x18>
 800a31a:	9b08      	ldr	r3, [sp, #32]
 800a31c:	6143      	str	r3, [r0, #20]
 800a31e:	2d09      	cmp	r5, #9
 800a320:	f04f 0301 	mov.w	r3, #1
 800a324:	6103      	str	r3, [r0, #16]
 800a326:	dd16      	ble.n	800a356 <__s2b+0x72>
 800a328:	f104 0909 	add.w	r9, r4, #9
 800a32c:	46c8      	mov	r8, r9
 800a32e:	442c      	add	r4, r5
 800a330:	f818 3b01 	ldrb.w	r3, [r8], #1
 800a334:	4601      	mov	r1, r0
 800a336:	3b30      	subs	r3, #48	@ 0x30
 800a338:	220a      	movs	r2, #10
 800a33a:	4630      	mov	r0, r6
 800a33c:	f7ff ff8c 	bl	800a258 <__multadd>
 800a340:	45a0      	cmp	r8, r4
 800a342:	d1f5      	bne.n	800a330 <__s2b+0x4c>
 800a344:	f1a5 0408 	sub.w	r4, r5, #8
 800a348:	444c      	add	r4, r9
 800a34a:	1b2d      	subs	r5, r5, r4
 800a34c:	1963      	adds	r3, r4, r5
 800a34e:	42bb      	cmp	r3, r7
 800a350:	db04      	blt.n	800a35c <__s2b+0x78>
 800a352:	e8bd 83f8 	ldmia.w	sp!, {r3, r4, r5, r6, r7, r8, r9, pc}
 800a356:	340a      	adds	r4, #10
 800a358:	2509      	movs	r5, #9
 800a35a:	e7f6      	b.n	800a34a <__s2b+0x66>
 800a35c:	f814 3b01 	ldrb.w	r3, [r4], #1
 800a360:	4601      	mov	r1, r0
 800a362:	3b30      	subs	r3, #48	@ 0x30
 800a364:	220a      	movs	r2, #10
 800a366:	4630      	mov	r0, r6
 800a368:	f7ff ff76 	bl	800a258 <__multadd>
 800a36c:	e7ee      	b.n	800a34c <__s2b+0x68>
 800a36e:	bf00      	nop
 800a370:	0803369a 	.word	0x0803369a
 800a374:	08033722 	.word	0x08033722

0800a378 <__hi0bits>:
 800a378:	f5b0 3f80 	cmp.w	r0, #65536	@ 0x10000
 800a37c:	4603      	mov	r3, r0
 800a37e:	bf36      	itet	cc
 800a380:	0403      	lslcc	r3, r0, #16
 800a382:	2000      	movcs	r0, #0
 800a384:	2010      	movcc	r0, #16
 800a386:	f1b3 7f80 	cmp.w	r3, #16777216	@ 0x1000000
 800a38a:	bf3c      	itt	cc
 800a38c:	021b      	lslcc	r3, r3, #8
 800a38e:	3008      	addcc	r0, #8
 800a390:	f1b3 5f80 	cmp.w	r3, #268435456	@ 0x10000000
 800a394:	bf3c      	itt	cc
 800a396:	011b      	lslcc	r3, r3, #4
 800a398:	3004      	addcc	r0, #4
 800a39a:	f1b3 4f80 	cmp.w	r3, #1073741824	@ 0x40000000
 800a39e:	bf3c      	itt	cc
 800a3a0:	009b      	lslcc	r3, r3, #2
 800a3a2:	3002      	addcc	r0, #2
 800a3a4:	2b00      	cmp	r3, #0
 800a3a6:	db05      	blt.n	800a3b4 <__hi0bits+0x3c>
 800a3a8:	f013 4f80 	tst.w	r3, #1073741824	@ 0x40000000
 800a3ac:	f100 0001 	add.w	r0, r0, #1
 800a3b0:	bf08      	it	eq
 800a3b2:	2020      	moveq	r0, #32
 800a3b4:	4770      	bx	lr

0800a3b6 <__lo0bits>:
 800a3b6:	6803      	ldr	r3, [r0, #0]
 800a3b8:	4602      	mov	r2, r0
 800a3ba:	f013 0007 	ands.w	r0, r3, #7
 800a3be:	d00b      	beq.n	800a3d8 <__lo0bits+0x22>
 800a3c0:	07d9      	lsls	r1, r3, #31
 800a3c2:	d421      	bmi.n	800a408 <__lo0bits+0x52>
 800a3c4:	0798      	lsls	r0, r3, #30
 800a3c6:	bf49      	itett	mi
 800a3c8:	085b      	lsrmi	r3, r3, #1
 800a3ca:	089b      	lsrpl	r3, r3, #2
 800a3cc:	2001      	movmi	r0, #1
 800a3ce:	6013      	strmi	r3, [r2, #0]
 800a3d0:	bf5c      	itt	pl
 800a3d2:	6013      	strpl	r3, [r2, #0]
 800a3d4:	2002      	movpl	r0, #2
 800a3d6:	4770      	bx	lr
 800a3d8:	b299      	uxth	r1, r3
 800a3da:	b909      	cbnz	r1, 800a3e0 <__lo0bits+0x2a>
 800a3dc:	0c1b      	lsrs	r3, r3, #16
 800a3de:	2010      	movs	r0, #16
 800a3e0:	b2d9      	uxtb	r1, r3
 800a3e2:	b909      	cbnz	r1, 800a3e8 <__lo0bits+0x32>
 800a3e4:	3008      	adds	r0, #8
 800a3e6:	0a1b      	lsrs	r3, r3, #8
 800a3e8:	0719      	lsls	r1, r3, #28
 800a3ea:	bf04      	itt	eq
 800a3ec:	091b      	lsreq	r3, r3, #4
 800a3ee:	3004      	addeq	r0, #4
 800a3f0:	0799      	lsls	r1, r3, #30
 800a3f2:	bf04      	itt	eq
 800a3f4:	089b      	lsreq	r3, r3, #2
 800a3f6:	3002      	addeq	r0, #2
 800a3f8:	07d9      	lsls	r1, r3, #31
 800a3fa:	d403      	bmi.n	800a404 <__lo0bits+0x4e>
 800a3fc:	085b      	lsrs	r3, r3, #1
 800a3fe:	f100 0001 	add.w	r0, r0, #1
 800a402:	d003      	beq.n	800a40c <__lo0bits+0x56>
 800a404:	6013      	str	r3, [r2, #0]
 800a406:	4770      	bx	lr
 800a408:	2000      	movs	r0, #0
 800a40a:	4770      	bx	lr
 800a40c:	2020      	movs	r0, #32
 800a40e:	4770      	bx	lr

0800a410 <__i2b>:
 800a410:	b510      	push	{r4, lr}
 800a412:	460c      	mov	r4, r1
 800a414:	2101      	movs	r1, #1
 800a416:	f7ff febd 	bl	800a194 <_Balloc>
 800a41a:	4602      	mov	r2, r0
 800a41c:	b928      	cbnz	r0, 800a42a <__i2b+0x1a>
 800a41e:	4b05      	ldr	r3, [pc, #20]	@ (800a434 <__i2b+0x24>)
 800a420:	4805      	ldr	r0, [pc, #20]	@ (800a438 <__i2b+0x28>)
 800a422:	f240 1145 	movw	r1, #325	@ 0x145
 800a426:	f000 ff1d 	bl	800b264 <__assert_func>
 800a42a:	2301      	movs	r3, #1
 800a42c:	6144      	str	r4, [r0, #20]
 800a42e:	6103      	str	r3, [r0, #16]
 800a430:	bd10      	pop	{r4, pc}
 800a432:	bf00      	nop
 800a434:	0803369a 	.word	0x0803369a
 800a438:	08033722 	.word	0x08033722

0800a43c <__multiply>:
 800a43c:	e92d 4ff0 	stmdb	sp!, {r4, r5, r6, r7, r8, r9, sl, fp, lr}
 800a440:	4617      	mov	r7, r2
 800a442:	690a      	ldr	r2, [r1, #16]
 800a444:	693b      	ldr	r3, [r7, #16]
 800a446:	429a      	cmp	r2, r3
 800a448:	bfa8      	it	ge
 800a44a:	463b      	movge	r3, r7
 800a44c:	4689      	mov	r9, r1
 800a44e:	bfa4      	itt	ge
 800a450:	460f      	movge	r7, r1
 800a452:	4699      	movge	r9, r3
 800a454:	693d      	ldr	r5, [r7, #16]
 800a456:	f8d9 a010 	ldr.w	sl, [r9, #16]
 800a45a:	68bb      	ldr	r3, [r7, #8]
 800a45c:	6879      	ldr	r1, [r7, #4]
 800a45e:	eb05 060a 	add.w	r6, r5, sl
 800a462:	42b3      	cmp	r3, r6
 800a464:	b085      	sub	sp, #20
 800a466:	bfb8      	it	lt
 800a468:	3101      	addlt	r1, #1
 800a46a:	f7ff fe93 	bl	800a194 <_Balloc>
 800a46e:	b930      	cbnz	r0, 800a47e <__multiply+0x42>
 800a470:	4602      	mov	r2, r0
 800a472:	4b41      	ldr	r3, [pc, #260]	@ (800a578 <__multiply+0x13c>)
 800a474:	4841      	ldr	r0, [pc, #260]	@ (800a57c <__multiply+0x140>)
 800a476:	f44f 71b1 	mov.w	r1, #354	@ 0x162
 800a47a:	f000 fef3 	bl	800b264 <__assert_func>
 800a47e:	f100 0414 	add.w	r4, r0, #20
 800a482:	eb04 0e86 	add.w	lr, r4, r6, lsl #2
 800a486:	4623      	mov	r3, r4
 800a488:	2200      	movs	r2, #0
 800a48a:	4573      	cmp	r3, lr
 800a48c:	d320      	bcc.n	800a4d0 <__multiply+0x94>
 800a48e:	f107 0814 	add.w	r8, r7, #20
 800a492:	f109 0114 	add.w	r1, r9, #20
 800a496:	eb08 0585 	add.w	r5, r8, r5, lsl #2
 800a49a:	eb01 038a 	add.w	r3, r1, sl, lsl #2
 800a49e:	9302      	str	r3, [sp, #8]
 800a4a0:	1beb      	subs	r3, r5, r7
 800a4a2:	3b15      	subs	r3, #21
 800a4a4:	f023 0303 	bic.w	r3, r3, #3
 800a4a8:	3304      	adds	r3, #4
 800a4aa:	3715      	adds	r7, #21
 800a4ac:	42bd      	cmp	r5, r7
 800a4ae:	bf38      	it	cc
 800a4b0:	2304      	movcc	r3, #4
 800a4b2:	9301      	str	r3, [sp, #4]
 800a4b4:	9b02      	ldr	r3, [sp, #8]
 800a4b6:	9103      	str	r1, [sp, #12]
 800a4b8:	428b      	cmp	r3, r1
 800a4ba:	d80c      	bhi.n	800a4d6 <__multiply+0x9a>
 800a4bc:	2e00      	cmp	r6, #0
 800a4be:	dd03      	ble.n	800a4c8 <__multiply+0x8c>
 800a4c0:	f85e 3d04 	ldr.w	r3, [lr, #-4]!
 800a4c4:	2b00      	cmp	r3, #0
 800a4c6:	d055      	beq.n	800a574 <__multiply+0x138>
 800a4c8:	6106      	str	r6, [r0, #16]
 800a4ca:	b005      	add	sp, #20
 800a4cc:	e8bd 8ff0 	ldmia.w	sp!, {r4, r5, r6, r7, r8, r9, sl, fp, pc}
 800a4d0:	f843 2b04 	str.w	r2, [r3], #4
 800a4d4:	e7d9      	b.n	800a48a <__multiply+0x4e>
 800a4d6:	f8b1 a000 	ldrh.w	sl, [r1]
 800a4da:	f1ba 0f00 	cmp.w	sl, #0
 800a4de:	d01f      	beq.n	800a520 <__multiply+0xe4>
 800a4e0:	46c4      	mov	ip, r8
 800a4e2:	46a1      	mov	r9, r4
 800a4e4:	2700      	movs	r7, #0
 800a4e6:	f85c 2b04 	ldr.w	r2, [ip], #4
 800a4ea:	f8d9 3000 	ldr.w	r3, [r9]
 800a4ee:	fa1f fb82 	uxth.w	fp, r2
 800a4f2:	b29b      	uxth	r3, r3
 800a4f4:	fb0a 330b 	mla	r3, sl, fp, r3
 800a4f8:	443b      	add	r3, r7
 800a4fa:	f8d9 7000 	ldr.w	r7, [r9]
 800a4fe:	0c12      	lsrs	r2, r2, #16
 800a500:	0c3f      	lsrs	r7, r7, #16
 800a502:	fb0a 7202 	mla	r2, sl, r2, r7
 800a506:	eb02 4213 	add.w	r2, r2, r3, lsr #16
 800a50a:	b29b      	uxth	r3, r3
 800a50c:	ea43 4302 	orr.w	r3, r3, r2, lsl #16
 800a510:	4565      	cmp	r5, ip
 800a512:	f849 3b04 	str.w	r3, [r9], #4
 800a516:	ea4f 4712 	mov.w	r7, r2, lsr #16
 800a51a:	d8e4      	bhi.n	800a4e6 <__multiply+0xaa>
 800a51c:	9b01      	ldr	r3, [sp, #4]
 800a51e:	50e7      	str	r7, [r4, r3]
 800a520:	9b03      	ldr	r3, [sp, #12]
 800a522:	f8b3 9002 	ldrh.w	r9, [r3, #2]
 800a526:	3104      	adds	r1, #4
 800a528:	f1b9 0f00 	cmp.w	r9, #0
 800a52c:	d020      	beq.n	800a570 <__multiply+0x134>
 800a52e:	6823      	ldr	r3, [r4, #0]
 800a530:	4647      	mov	r7, r8
 800a532:	46a4      	mov	ip, r4
 800a534:	f04f 0a00 	mov.w	sl, #0
 800a538:	f8b7 b000 	ldrh.w	fp, [r7]
 800a53c:	f8bc 2002 	ldrh.w	r2, [ip, #2]
 800a540:	fb09 220b 	mla	r2, r9, fp, r2
 800a544:	4452      	add	r2, sl
 800a546:	b29b      	uxth	r3, r3
 800a548:	ea43 4302 	orr.w	r3, r3, r2, lsl #16
 800a54c:	f84c 3b04 	str.w	r3, [ip], #4
 800a550:	f857 3b04 	ldr.w	r3, [r7], #4
 800a554:	ea4f 4a13 	mov.w	sl, r3, lsr #16
 800a558:	f8bc 3000 	ldrh.w	r3, [ip]
 800a55c:	fb09 330a 	mla	r3, r9, sl, r3
 800a560:	eb03 4312 	add.w	r3, r3, r2, lsr #16
 800a564:	42bd      	cmp	r5, r7
 800a566:	ea4f 4a13 	mov.w	sl, r3, lsr #16
 800a56a:	d8e5      	bhi.n	800a538 <__multiply+0xfc>
 800a56c:	9a01      	ldr	r2, [sp, #4]
 800a56e:	50a3      	str	r3, [r4, r2]
 800a570:	3404      	adds	r4, #4
 800a572:	e79f      	b.n	800a4b4 <__multiply+0x78>
 800a574:	3e01      	subs	r6, #1
 800a576:	e7a1      	b.n	800a4bc <__multiply+0x80>
 800a578:	0803369a 	.word	0x0803369a
 800a57c:	08033722 	.word	0x08033722

0800a580 <__pow5mult>:
 800a580:	e92d 43f8 	stmdb	sp!, {r3, r4, r5, r6, r7, r8, r9, lr}
 800a584:	4615      	mov	r5, r2
 800a586:	f012 0203 	ands.w	r2, r2, #3
 800a58a:	4607      	mov	r7, r0
 800a58c:	460e      	mov	r6, r1
 800a58e:	d007      	beq.n	800a5a0 <__pow5mult+0x20>
 800a590:	4c25      	ldr	r4, [pc, #148]	@ (800a628 <__pow5mult+0xa8>)
 800a592:	3a01      	subs	r2, #1
 800a594:	2300      	movs	r3, #0
 800a596:	f854 2022 	ldr.w	r2, [r4, r2, lsl #2]
 800a59a:	f7ff fe5d 	bl	800a258 <__multadd>
 800a59e:	4606      	mov	r6, r0
 800a5a0:	10ad      	asrs	r5, r5, #2
 800a5a2:	d03d      	beq.n	800a620 <__pow5mult+0xa0>
 800a5a4:	69fc      	ldr	r4, [r7, #28]
 800a5a6:	b97c      	cbnz	r4, 800a5c8 <__pow5mult+0x48>
 800a5a8:	2010      	movs	r0, #16
 800a5aa:	f7fe f949 	bl	8008840 <malloc>
 800a5ae:	4602      	mov	r2, r0
 800a5b0:	61f8      	str	r0, [r7, #28]
 800a5b2:	b928      	cbnz	r0, 800a5c0 <__pow5mult+0x40>
 800a5b4:	4b1d      	ldr	r3, [pc, #116]	@ (800a62c <__pow5mult+0xac>)
 800a5b6:	481e      	ldr	r0, [pc, #120]	@ (800a630 <__pow5mult+0xb0>)
 800a5b8:	f240 11b3 	movw	r1, #435	@ 0x1b3
 800a5bc:	f000 fe52 	bl	800b264 <__assert_func>
 800a5c0:	e9c0 4401 	strd	r4, r4, [r0, #4]
 800a5c4:	6004      	str	r4, [r0, #0]
 800a5c6:	60c4      	str	r4, [r0, #12]
 800a5c8:	f8d7 801c 	ldr.w	r8, [r7, #28]
 800a5cc:	f8d8 4008 	ldr.w	r4, [r8, #8]
 800a5d0:	b94c      	cbnz	r4, 800a5e6 <__pow5mult+0x66>
 800a5d2:	f240 2171 	movw	r1, #625	@ 0x271
 800a5d6:	4638      	mov	r0, r7
 800a5d8:	f7ff ff1a 	bl	800a410 <__i2b>
 800a5dc:	2300      	movs	r3, #0
 800a5de:	f8c8 0008 	str.w	r0, [r8, #8]
 800a5e2:	4604      	mov	r4, r0
 800a5e4:	6003      	str	r3, [r0, #0]
 800a5e6:	f04f 0900 	mov.w	r9, #0
 800a5ea:	07eb      	lsls	r3, r5, #31
 800a5ec:	d50a      	bpl.n	800a604 <__pow5mult+0x84>
 800a5ee:	4631      	mov	r1, r6
 800a5f0:	4622      	mov	r2, r4
 800a5f2:	4638      	mov	r0, r7
 800a5f4:	f7ff ff22 	bl	800a43c <__multiply>
 800a5f8:	4631      	mov	r1, r6
 800a5fa:	4680      	mov	r8, r0
 800a5fc:	4638      	mov	r0, r7
 800a5fe:	f7ff fe09 	bl	800a214 <_Bfree>
 800a602:	4646      	mov	r6, r8
 800a604:	106d      	asrs	r5, r5, #1
 800a606:	d00b      	beq.n	800a620 <__pow5mult+0xa0>
 800a608:	6820      	ldr	r0, [r4, #0]
 800a60a:	b938      	cbnz	r0, 800a61c <__pow5mult+0x9c>
 800a60c:	4622      	mov	r2, r4
 800a60e:	4621      	mov	r1, r4
 800a610:	4638      	mov	r0, r7
 800a612:	f7ff ff13 	bl	800a43c <__multiply>
 800a616:	6020      	str	r0, [r4, #0]
 800a618:	f8c0 9000 	str.w	r9, [r0]
 800a61c:	4604      	mov	r4, r0
 800a61e:	e7e4      	b.n	800a5ea <__pow5mult+0x6a>
 800a620:	4630      	mov	r0, r6
 800a622:	e8bd 83f8 	ldmia.w	sp!, {r3, r4, r5, r6, r7, r8, r9, pc}
 800a626:	bf00      	nop
 800a628:	08033944 	.word	0x08033944
 800a62c:	0803370b 	.word	0x0803370b
 800a630:	08033722 	.word	0x08033722

0800a634 <__lshift>:
 800a634:	e92d 47f0 	stmdb	sp!, {r4, r5, r6, r7, r8, r9, sl, lr}
 800a638:	460c      	mov	r4, r1
 800a63a:	6849      	ldr	r1, [r1, #4]
 800a63c:	6923      	ldr	r3, [r4, #16]
 800a63e:	eb03 1862 	add.w	r8, r3, r2, asr #5
 800a642:	68a3      	ldr	r3, [r4, #8]
 800a644:	4607      	mov	r7, r0
 800a646:	4691      	mov	r9, r2
 800a648:	ea4f 1a62 	mov.w	sl, r2, asr #5
 800a64c:	f108 0601 	add.w	r6, r8, #1
 800a650:	42b3      	cmp	r3, r6
 800a652:	db0b      	blt.n	800a66c <__lshift+0x38>
 800a654:	4638      	mov	r0, r7
 800a656:	f7ff fd9d 	bl	800a194 <_Balloc>
 800a65a:	4605      	mov	r5, r0
 800a65c:	b948      	cbnz	r0, 800a672 <__lshift+0x3e>
 800a65e:	4602      	mov	r2, r0
 800a660:	4b28      	ldr	r3, [pc, #160]	@ (800a704 <__lshift+0xd0>)
 800a662:	4829      	ldr	r0, [pc, #164]	@ (800a708 <__lshift+0xd4>)
 800a664:	f44f 71ef 	mov.w	r1, #478	@ 0x1de
 800a668:	f000 fdfc 	bl	800b264 <__assert_func>
 800a66c:	3101      	adds	r1, #1
 800a66e:	005b      	lsls	r3, r3, #1
 800a670:	e7ee      	b.n	800a650 <__lshift+0x1c>
 800a672:	2300      	movs	r3, #0
 800a674:	f100 0114 	add.w	r1, r0, #20
 800a678:	f100 0210 	add.w	r2, r0, #16
 800a67c:	4618      	mov	r0, r3
 800a67e:	4553      	cmp	r3, sl
 800a680:	db33      	blt.n	800a6ea <__lshift+0xb6>
 800a682:	6920      	ldr	r0, [r4, #16]
 800a684:	ea2a 7aea 	bic.w	sl, sl, sl, asr #31
 800a688:	f104 0314 	add.w	r3, r4, #20
 800a68c:	f019 091f 	ands.w	r9, r9, #31
 800a690:	eb01 018a 	add.w	r1, r1, sl, lsl #2
 800a694:	eb03 0c80 	add.w	ip, r3, r0, lsl #2
 800a698:	d02b      	beq.n	800a6f2 <__lshift+0xbe>
 800a69a:	f1c9 0e20 	rsb	lr, r9, #32
 800a69e:	468a      	mov	sl, r1
 800a6a0:	2200      	movs	r2, #0
 800a6a2:	6818      	ldr	r0, [r3, #0]
 800a6a4:	fa00 f009 	lsl.w	r0, r0, r9
 800a6a8:	4310      	orrs	r0, r2
 800a6aa:	f84a 0b04 	str.w	r0, [sl], #4
 800a6ae:	f853 2b04 	ldr.w	r2, [r3], #4
 800a6b2:	459c      	cmp	ip, r3
 800a6b4:	fa22 f20e 	lsr.w	r2, r2, lr
 800a6b8:	d8f3      	bhi.n	800a6a2 <__lshift+0x6e>
 800a6ba:	ebac 0304 	sub.w	r3, ip, r4
 800a6be:	3b15      	subs	r3, #21
 800a6c0:	f023 0303 	bic.w	r3, r3, #3
 800a6c4:	3304      	adds	r3, #4
 800a6c6:	f104 0015 	add.w	r0, r4, #21
 800a6ca:	4560      	cmp	r0, ip
 800a6cc:	bf88      	it	hi
 800a6ce:	2304      	movhi	r3, #4
 800a6d0:	50ca      	str	r2, [r1, r3]
 800a6d2:	b10a      	cbz	r2, 800a6d8 <__lshift+0xa4>
 800a6d4:	f108 0602 	add.w	r6, r8, #2
 800a6d8:	3e01      	subs	r6, #1
 800a6da:	4638      	mov	r0, r7
 800a6dc:	612e      	str	r6, [r5, #16]
 800a6de:	4621      	mov	r1, r4
 800a6e0:	f7ff fd98 	bl	800a214 <_Bfree>
 800a6e4:	4628      	mov	r0, r5
 800a6e6:	e8bd 87f0 	ldmia.w	sp!, {r4, r5, r6, r7, r8, r9, sl, pc}
 800a6ea:	f842 0f04 	str.w	r0, [r2, #4]!
 800a6ee:	3301      	adds	r3, #1
 800a6f0:	e7c5      	b.n	800a67e <__lshift+0x4a>
 800a6f2:	3904      	subs	r1, #4
 800a6f4:	f853 2b04 	ldr.w	r2, [r3], #4
 800a6f8:	f841 2f04 	str.w	r2, [r1, #4]!
 800a6fc:	459c      	cmp	ip, r3
 800a6fe:	d8f9      	bhi.n	800a6f4 <__lshift+0xc0>
 800a700:	e7ea      	b.n	800a6d8 <__lshift+0xa4>
 800a702:	bf00      	nop
 800a704:	0803369a 	.word	0x0803369a
 800a708:	08033722 	.word	0x08033722

0800a70c <__mcmp>:
 800a70c:	690a      	ldr	r2, [r1, #16]
 800a70e:	4603      	mov	r3, r0
 800a710:	6900      	ldr	r0, [r0, #16]
 800a712:	1a80      	subs	r0, r0, r2
 800a714:	b530      	push	{r4, r5, lr}
 800a716:	d10e      	bne.n	800a736 <__mcmp+0x2a>
 800a718:	3314      	adds	r3, #20
 800a71a:	3114      	adds	r1, #20
 800a71c:	eb03 0482 	add.w	r4, r3, r2, lsl #2
 800a720:	eb01 0182 	add.w	r1, r1, r2, lsl #2
 800a724:	f854 5d04 	ldr.w	r5, [r4, #-4]!
 800a728:	f851 2d04 	ldr.w	r2, [r1, #-4]!
 800a72c:	4295      	cmp	r5, r2
 800a72e:	d003      	beq.n	800a738 <__mcmp+0x2c>
 800a730:	d205      	bcs.n	800a73e <__mcmp+0x32>
 800a732:	f04f 30ff 	mov.w	r0, #4294967295
 800a736:	bd30      	pop	{r4, r5, pc}
 800a738:	42a3      	cmp	r3, r4
 800a73a:	d3f3      	bcc.n	800a724 <__mcmp+0x18>
 800a73c:	e7fb      	b.n	800a736 <__mcmp+0x2a>
 800a73e:	2001      	movs	r0, #1
 800a740:	e7f9      	b.n	800a736 <__mcmp+0x2a>
	...

0800a744 <__mdiff>:
 800a744:	e92d 4ff7 	stmdb	sp!, {r0, r1, r2, r4, r5, r6, r7, r8, r9, sl, fp, lr}
 800a748:	4689      	mov	r9, r1
 800a74a:	4606      	mov	r6, r0
 800a74c:	4611      	mov	r1, r2
 800a74e:	4648      	mov	r0, r9
 800a750:	4614      	mov	r4, r2
 800a752:	f7ff ffdb 	bl	800a70c <__mcmp>
 800a756:	1e05      	subs	r5, r0, #0
 800a758:	d112      	bne.n	800a780 <__mdiff+0x3c>
 800a75a:	4629      	mov	r1, r5
 800a75c:	4630      	mov	r0, r6
 800a75e:	f7ff fd19 	bl	800a194 <_Balloc>
 800a762:	4602      	mov	r2, r0
 800a764:	b928      	cbnz	r0, 800a772 <__mdiff+0x2e>
 800a766:	4b3f      	ldr	r3, [pc, #252]	@ (800a864 <__mdiff+0x120>)
 800a768:	f240 2137 	movw	r1, #567	@ 0x237
 800a76c:	483e      	ldr	r0, [pc, #248]	@ (800a868 <__mdiff+0x124>)
 800a76e:	f000 fd79 	bl	800b264 <__assert_func>
 800a772:	2301      	movs	r3, #1
 800a774:	e9c0 3504 	strd	r3, r5, [r0, #16]
 800a778:	4610      	mov	r0, r2
 800a77a:	b003      	add	sp, #12
 800a77c:	e8bd 8ff0 	ldmia.w	sp!, {r4, r5, r6, r7, r8, r9, sl, fp, pc}
 800a780:	bfbc      	itt	lt
 800a782:	464b      	movlt	r3, r9
 800a784:	46a1      	movlt	r9, r4
 800a786:	4630      	mov	r0, r6
 800a788:	f8d9 1004 	ldr.w	r1, [r9, #4]
 800a78c:	bfba      	itte	lt
 800a78e:	461c      	movlt	r4, r3
 800a790:	2501      	movlt	r5, #1
 800a792:	2500      	movge	r5, #0
 800a794:	f7ff fcfe 	bl	800a194 <_Balloc>
 800a798:	4602      	mov	r2, r0
 800a79a:	b918      	cbnz	r0, 800a7a4 <__mdiff+0x60>
 800a79c:	4b31      	ldr	r3, [pc, #196]	@ (800a864 <__mdiff+0x120>)
 800a79e:	f240 2145 	movw	r1, #581	@ 0x245
 800a7a2:	e7e3      	b.n	800a76c <__mdiff+0x28>
 800a7a4:	f8d9 7010 	ldr.w	r7, [r9, #16]
 800a7a8:	6926      	ldr	r6, [r4, #16]
 800a7aa:	60c5      	str	r5, [r0, #12]
 800a7ac:	f109 0310 	add.w	r3, r9, #16
 800a7b0:	f109 0514 	add.w	r5, r9, #20
 800a7b4:	f104 0e14 	add.w	lr, r4, #20
 800a7b8:	f100 0b14 	add.w	fp, r0, #20
 800a7bc:	eb05 0887 	add.w	r8, r5, r7, lsl #2
 800a7c0:	eb0e 0686 	add.w	r6, lr, r6, lsl #2
 800a7c4:	9301      	str	r3, [sp, #4]
 800a7c6:	46d9      	mov	r9, fp
 800a7c8:	f04f 0c00 	mov.w	ip, #0
 800a7cc:	9b01      	ldr	r3, [sp, #4]
 800a7ce:	f85e 0b04 	ldr.w	r0, [lr], #4
 800a7d2:	f853 af04 	ldr.w	sl, [r3, #4]!
 800a7d6:	9301      	str	r3, [sp, #4]
 800a7d8:	fa1f f38a 	uxth.w	r3, sl
 800a7dc:	4619      	mov	r1, r3
 800a7de:	b283      	uxth	r3, r0
 800a7e0:	1acb      	subs	r3, r1, r3
 800a7e2:	0c00      	lsrs	r0, r0, #16
 800a7e4:	4463      	add	r3, ip
 800a7e6:	ebc0 401a 	rsb	r0, r0, sl, lsr #16
 800a7ea:	eb00 4023 	add.w	r0, r0, r3, asr #16
 800a7ee:	b29b      	uxth	r3, r3
 800a7f0:	ea43 4300 	orr.w	r3, r3, r0, lsl #16
 800a7f4:	4576      	cmp	r6, lr
 800a7f6:	f849 3b04 	str.w	r3, [r9], #4
 800a7fa:	ea4f 4c20 	mov.w	ip, r0, asr #16
 800a7fe:	d8e5      	bhi.n	800a7cc <__mdiff+0x88>
 800a800:	1b33      	subs	r3, r6, r4
 800a802:	3b15      	subs	r3, #21
 800a804:	f023 0303 	bic.w	r3, r3, #3
 800a808:	3415      	adds	r4, #21
 800a80a:	3304      	adds	r3, #4
 800a80c:	42a6      	cmp	r6, r4
 800a80e:	bf38      	it	cc
 800a810:	2304      	movcc	r3, #4
 800a812:	441d      	add	r5, r3
 800a814:	445b      	add	r3, fp
 800a816:	461e      	mov	r6, r3
 800a818:	462c      	mov	r4, r5
 800a81a:	4544      	cmp	r4, r8
 800a81c:	d30e      	bcc.n	800a83c <__mdiff+0xf8>
 800a81e:	f108 0103 	add.w	r1, r8, #3
 800a822:	1b49      	subs	r1, r1, r5
 800a824:	f021 0103 	bic.w	r1, r1, #3
 800a828:	3d03      	subs	r5, #3
 800a82a:	45a8      	cmp	r8, r5
 800a82c:	bf38      	it	cc
 800a82e:	2100      	movcc	r1, #0
 800a830:	440b      	add	r3, r1
 800a832:	f853 1d04 	ldr.w	r1, [r3, #-4]!
 800a836:	b191      	cbz	r1, 800a85e <__mdiff+0x11a>
 800a838:	6117      	str	r7, [r2, #16]
 800a83a:	e79d      	b.n	800a778 <__mdiff+0x34>
 800a83c:	f854 1b04 	ldr.w	r1, [r4], #4
 800a840:	46e6      	mov	lr, ip
 800a842:	0c08      	lsrs	r0, r1, #16
 800a844:	fa1c fc81 	uxtah	ip, ip, r1
 800a848:	4471      	add	r1, lr
 800a84a:	eb00 402c 	add.w	r0, r0, ip, asr #16
 800a84e:	b289      	uxth	r1, r1
 800a850:	ea41 4100 	orr.w	r1, r1, r0, lsl #16
 800a854:	f846 1b04 	str.w	r1, [r6], #4
 800a858:	ea4f 4c20 	mov.w	ip, r0, asr #16
 800a85c:	e7dd      	b.n	800a81a <__mdiff+0xd6>
 800a85e:	3f01      	subs	r7, #1
 800a860:	e7e7      	b.n	800a832 <__mdiff+0xee>
 800a862:	bf00      	nop
 800a864:	0803369a 	.word	0x0803369a
 800a868:	08033722 	.word	0x08033722

0800a86c <__ulp>:
 800a86c:	b082      	sub	sp, #8
 800a86e:	ed8d 0b00 	vstr	d0, [sp]
 800a872:	9a01      	ldr	r2, [sp, #4]
 800a874:	4b0f      	ldr	r3, [pc, #60]	@ (800a8b4 <__ulp+0x48>)
 800a876:	4013      	ands	r3, r2
 800a878:	f1a3 7350 	sub.w	r3, r3, #54525952	@ 0x3400000
 800a87c:	2b00      	cmp	r3, #0
 800a87e:	dc08      	bgt.n	800a892 <__ulp+0x26>
 800a880:	425b      	negs	r3, r3
 800a882:	f1b3 7fa0 	cmp.w	r3, #20971520	@ 0x1400000
 800a886:	ea4f 5223 	mov.w	r2, r3, asr #20
 800a88a:	da04      	bge.n	800a896 <__ulp+0x2a>
 800a88c:	f44f 2300 	mov.w	r3, #524288	@ 0x80000
 800a890:	4113      	asrs	r3, r2
 800a892:	2200      	movs	r2, #0
 800a894:	e008      	b.n	800a8a8 <__ulp+0x3c>
 800a896:	f1a2 0314 	sub.w	r3, r2, #20
 800a89a:	2b1e      	cmp	r3, #30
 800a89c:	bfda      	itte	le
 800a89e:	f04f 4200 	movle.w	r2, #2147483648	@ 0x80000000
 800a8a2:	40da      	lsrle	r2, r3
 800a8a4:	2201      	movgt	r2, #1
 800a8a6:	2300      	movs	r3, #0
 800a8a8:	4619      	mov	r1, r3
 800a8aa:	4610      	mov	r0, r2
 800a8ac:	ec41 0b10 	vmov	d0, r0, r1
 800a8b0:	b002      	add	sp, #8
 800a8b2:	4770      	bx	lr
 800a8b4:	7ff00000 	.word	0x7ff00000

0800a8b8 <__b2d>:
 800a8b8:	e92d 41f0 	stmdb	sp!, {r4, r5, r6, r7, r8, lr}
 800a8bc:	6906      	ldr	r6, [r0, #16]
 800a8be:	f100 0814 	add.w	r8, r0, #20
 800a8c2:	eb08 0686 	add.w	r6, r8, r6, lsl #2
 800a8c6:	1f37      	subs	r7, r6, #4
 800a8c8:	f856 2c04 	ldr.w	r2, [r6, #-4]
 800a8cc:	4610      	mov	r0, r2
 800a8ce:	f7ff fd53 	bl	800a378 <__hi0bits>
 800a8d2:	f1c0 0320 	rsb	r3, r0, #32
 800a8d6:	280a      	cmp	r0, #10
 800a8d8:	600b      	str	r3, [r1, #0]
 800a8da:	491b      	ldr	r1, [pc, #108]	@ (800a948 <__b2d+0x90>)
 800a8dc:	dc15      	bgt.n	800a90a <__b2d+0x52>
 800a8de:	f1c0 0c0b 	rsb	ip, r0, #11
 800a8e2:	fa22 f30c 	lsr.w	r3, r2, ip
 800a8e6:	45b8      	cmp	r8, r7
 800a8e8:	ea43 0501 	orr.w	r5, r3, r1
 800a8ec:	bf34      	ite	cc
 800a8ee:	f856 3c08 	ldrcc.w	r3, [r6, #-8]
 800a8f2:	2300      	movcs	r3, #0
 800a8f4:	3015      	adds	r0, #21
 800a8f6:	fa02 f000 	lsl.w	r0, r2, r0
 800a8fa:	fa23 f30c 	lsr.w	r3, r3, ip
 800a8fe:	4303      	orrs	r3, r0
 800a900:	461c      	mov	r4, r3
 800a902:	ec45 4b10 	vmov	d0, r4, r5
 800a906:	e8bd 81f0 	ldmia.w	sp!, {r4, r5, r6, r7, r8, pc}
 800a90a:	45b8      	cmp	r8, r7
 800a90c:	bf3a      	itte	cc
 800a90e:	f856 3c08 	ldrcc.w	r3, [r6, #-8]
 800a912:	f1a6 0708 	subcc.w	r7, r6, #8
 800a916:	2300      	movcs	r3, #0
 800a918:	380b      	subs	r0, #11
 800a91a:	d012      	beq.n	800a942 <__b2d+0x8a>
 800a91c:	f1c0 0120 	rsb	r1, r0, #32
 800a920:	fa23 f401 	lsr.w	r4, r3, r1
 800a924:	4082      	lsls	r2, r0
 800a926:	4322      	orrs	r2, r4
 800a928:	4547      	cmp	r7, r8
 800a92a:	f042 557f 	orr.w	r5, r2, #1069547520	@ 0x3fc00000
 800a92e:	bf8c      	ite	hi
 800a930:	f857 2c04 	ldrhi.w	r2, [r7, #-4]
 800a934:	2200      	movls	r2, #0
 800a936:	4083      	lsls	r3, r0
 800a938:	40ca      	lsrs	r2, r1
 800a93a:	f445 1540 	orr.w	r5, r5, #3145728	@ 0x300000
 800a93e:	4313      	orrs	r3, r2
 800a940:	e7de      	b.n	800a900 <__b2d+0x48>
 800a942:	ea42 0501 	orr.w	r5, r2, r1
 800a946:	e7db      	b.n	800a900 <__b2d+0x48>
 800a948:	3ff00000 	.word	0x3ff00000

0800a94c <__d2b>:
 800a94c:	e92d 43f7 	stmdb	sp!, {r0, r1, r2, r4, r5, r6, r7, r8, r9, lr}
 800a950:	460f      	mov	r7, r1
 800a952:	2101      	movs	r1, #1
 800a954:	ec59 8b10 	vmov	r8, r9, d0
 800a958:	4616      	mov	r6, r2
 800a95a:	f7ff fc1b 	bl	800a194 <_Balloc>
 800a95e:	4604      	mov	r4, r0
 800a960:	b930      	cbnz	r0, 800a970 <__d2b+0x24>
 800a962:	4602      	mov	r2, r0
 800a964:	4b23      	ldr	r3, [pc, #140]	@ (800a9f4 <__d2b+0xa8>)
 800a966:	4824      	ldr	r0, [pc, #144]	@ (800a9f8 <__d2b+0xac>)
 800a968:	f240 310f 	movw	r1, #783	@ 0x30f
 800a96c:	f000 fc7a 	bl	800b264 <__assert_func>
 800a970:	f3c9 550a 	ubfx	r5, r9, #20, #11
 800a974:	f3c9 0313 	ubfx	r3, r9, #0, #20
 800a978:	b10d      	cbz	r5, 800a97e <__d2b+0x32>
 800a97a:	f443 1380 	orr.w	r3, r3, #1048576	@ 0x100000
 800a97e:	9301      	str	r3, [sp, #4]
 800a980:	f1b8 0300 	subs.w	r3, r8, #0
 800a984:	d023      	beq.n	800a9ce <__d2b+0x82>
 800a986:	4668      	mov	r0, sp
 800a988:	9300      	str	r3, [sp, #0]
 800a98a:	f7ff fd14 	bl	800a3b6 <__lo0bits>
 800a98e:	e9dd 1200 	ldrd	r1, r2, [sp]
 800a992:	b1d0      	cbz	r0, 800a9ca <__d2b+0x7e>
 800a994:	f1c0 0320 	rsb	r3, r0, #32
 800a998:	fa02 f303 	lsl.w	r3, r2, r3
 800a99c:	430b      	orrs	r3, r1
 800a99e:	40c2      	lsrs	r2, r0
 800a9a0:	6163      	str	r3, [r4, #20]
 800a9a2:	9201      	str	r2, [sp, #4]
 800a9a4:	9b01      	ldr	r3, [sp, #4]
 800a9a6:	61a3      	str	r3, [r4, #24]
 800a9a8:	2b00      	cmp	r3, #0
 800a9aa:	bf0c      	ite	eq
 800a9ac:	2201      	moveq	r2, #1
 800a9ae:	2202      	movne	r2, #2
 800a9b0:	6122      	str	r2, [r4, #16]
 800a9b2:	b1a5      	cbz	r5, 800a9de <__d2b+0x92>
 800a9b4:	f2a5 4533 	subw	r5, r5, #1075	@ 0x433
 800a9b8:	4405      	add	r5, r0
 800a9ba:	603d      	str	r5, [r7, #0]
 800a9bc:	f1c0 0035 	rsb	r0, r0, #53	@ 0x35
 800a9c0:	6030      	str	r0, [r6, #0]
 800a9c2:	4620      	mov	r0, r4
 800a9c4:	b003      	add	sp, #12
 800a9c6:	e8bd 83f0 	ldmia.w	sp!, {r4, r5, r6, r7, r8, r9, pc}
 800a9ca:	6161      	str	r1, [r4, #20]
 800a9cc:	e7ea      	b.n	800a9a4 <__d2b+0x58>
 800a9ce:	a801      	add	r0, sp, #4
 800a9d0:	f7ff fcf1 	bl	800a3b6 <__lo0bits>
 800a9d4:	9b01      	ldr	r3, [sp, #4]
 800a9d6:	6163      	str	r3, [r4, #20]
 800a9d8:	3020      	adds	r0, #32
 800a9da:	2201      	movs	r2, #1
 800a9dc:	e7e8      	b.n	800a9b0 <__d2b+0x64>
 800a9de:	eb04 0382 	add.w	r3, r4, r2, lsl #2
 800a9e2:	f2a0 4032 	subw	r0, r0, #1074	@ 0x432
 800a9e6:	6038      	str	r0, [r7, #0]
 800a9e8:	6918      	ldr	r0, [r3, #16]
 800a9ea:	f7ff fcc5 	bl	800a378 <__hi0bits>
 800a9ee:	ebc0 1042 	rsb	r0, r0, r2, lsl #5
 800a9f2:	e7e5      	b.n	800a9c0 <__d2b+0x74>
 800a9f4:	0803369a 	.word	0x0803369a
 800a9f8:	08033722 	.word	0x08033722

0800a9fc <__ratio>:
 800a9fc:	e92d 4ff0 	stmdb	sp!, {r4, r5, r6, r7, r8, r9, sl, fp, lr}
 800aa00:	b085      	sub	sp, #20
 800aa02:	e9cd 1000 	strd	r1, r0, [sp]
 800aa06:	a902      	add	r1, sp, #8
 800aa08:	f7ff ff56 	bl	800a8b8 <__b2d>
 800aa0c:	9800      	ldr	r0, [sp, #0]
 800aa0e:	a903      	add	r1, sp, #12
 800aa10:	ec55 4b10 	vmov	r4, r5, d0
 800aa14:	f7ff ff50 	bl	800a8b8 <__b2d>
 800aa18:	9b01      	ldr	r3, [sp, #4]
 800aa1a:	6919      	ldr	r1, [r3, #16]
 800aa1c:	9b00      	ldr	r3, [sp, #0]
 800aa1e:	691b      	ldr	r3, [r3, #16]
 800aa20:	1ac9      	subs	r1, r1, r3
 800aa22:	e9dd 3202 	ldrd	r3, r2, [sp, #8]
 800aa26:	1a9b      	subs	r3, r3, r2
 800aa28:	ec5b ab10 	vmov	sl, fp, d0
 800aa2c:	eb03 1341 	add.w	r3, r3, r1, lsl #5
 800aa30:	2b00      	cmp	r3, #0
 800aa32:	bfce      	itee	gt
 800aa34:	462a      	movgt	r2, r5
 800aa36:	ebc3 3303 	rsble	r3, r3, r3, lsl #12
 800aa3a:	465a      	movle	r2, fp
 800aa3c:	462f      	mov	r7, r5
 800aa3e:	46d9      	mov	r9, fp
 800aa40:	bfcc      	ite	gt
 800aa42:	eb02 5703 	addgt.w	r7, r2, r3, lsl #20
 800aa46:	eb02 5903 	addle.w	r9, r2, r3, lsl #20
 800aa4a:	464b      	mov	r3, r9
 800aa4c:	4652      	mov	r2, sl
 800aa4e:	4620      	mov	r0, r4
 800aa50:	4639      	mov	r1, r7
 800aa52:	f7f5 ff0b 	bl	800086c <__aeabi_ddiv>
 800aa56:	ec41 0b10 	vmov	d0, r0, r1
 800aa5a:	b005      	add	sp, #20
 800aa5c:	e8bd 8ff0 	ldmia.w	sp!, {r4, r5, r6, r7, r8, r9, sl, fp, pc}

0800aa60 <__copybits>:
 800aa60:	3901      	subs	r1, #1
 800aa62:	b570      	push	{r4, r5, r6, lr}
 800aa64:	1149      	asrs	r1, r1, #5
 800aa66:	6914      	ldr	r4, [r2, #16]
 800aa68:	3101      	adds	r1, #1
 800aa6a:	f102 0314 	add.w	r3, r2, #20
 800aa6e:	eb00 0181 	add.w	r1, r0, r1, lsl #2
 800aa72:	eb03 0484 	add.w	r4, r3, r4, lsl #2
 800aa76:	1f05      	subs	r5, r0, #4
 800aa78:	42a3      	cmp	r3, r4
 800aa7a:	d30c      	bcc.n	800aa96 <__copybits+0x36>
 800aa7c:	1aa3      	subs	r3, r4, r2
 800aa7e:	3b11      	subs	r3, #17
 800aa80:	f023 0303 	bic.w	r3, r3, #3
 800aa84:	3211      	adds	r2, #17
 800aa86:	42a2      	cmp	r2, r4
 800aa88:	bf88      	it	hi
 800aa8a:	2300      	movhi	r3, #0
 800aa8c:	4418      	add	r0, r3
 800aa8e:	2300      	movs	r3, #0
 800aa90:	4288      	cmp	r0, r1
 800aa92:	d305      	bcc.n	800aaa0 <__copybits+0x40>
 800aa94:	bd70      	pop	{r4, r5, r6, pc}
 800aa96:	f853 6b04 	ldr.w	r6, [r3], #4
 800aa9a:	f845 6f04 	str.w	r6, [r5, #4]!
 800aa9e:	e7eb      	b.n	800aa78 <__copybits+0x18>
 800aaa0:	f840 3b04 	str.w	r3, [r0], #4
 800aaa4:	e7f4      	b.n	800aa90 <__copybits+0x30>

0800aaa6 <__any_on>:
 800aaa6:	f100 0214 	add.w	r2, r0, #20
 800aaaa:	6900      	ldr	r0, [r0, #16]
 800aaac:	114b      	asrs	r3, r1, #5
 800aaae:	4298      	cmp	r0, r3
 800aab0:	b510      	push	{r4, lr}
 800aab2:	db11      	blt.n	800aad8 <__any_on+0x32>
 800aab4:	dd0a      	ble.n	800aacc <__any_on+0x26>
 800aab6:	f011 011f 	ands.w	r1, r1, #31
 800aaba:	d007      	beq.n	800aacc <__any_on+0x26>
 800aabc:	f852 4023 	ldr.w	r4, [r2, r3, lsl #2]
 800aac0:	fa24 f001 	lsr.w	r0, r4, r1
 800aac4:	fa00 f101 	lsl.w	r1, r0, r1
 800aac8:	428c      	cmp	r4, r1
 800aaca:	d10b      	bne.n	800aae4 <__any_on+0x3e>
 800aacc:	eb02 0383 	add.w	r3, r2, r3, lsl #2
 800aad0:	4293      	cmp	r3, r2
 800aad2:	d803      	bhi.n	800aadc <__any_on+0x36>
 800aad4:	2000      	movs	r0, #0
 800aad6:	bd10      	pop	{r4, pc}
 800aad8:	4603      	mov	r3, r0
 800aada:	e7f7      	b.n	800aacc <__any_on+0x26>
 800aadc:	f853 1d04 	ldr.w	r1, [r3, #-4]!
 800aae0:	2900      	cmp	r1, #0
 800aae2:	d0f5      	beq.n	800aad0 <__any_on+0x2a>
 800aae4:	2001      	movs	r0, #1
 800aae6:	e7f6      	b.n	800aad6 <__any_on+0x30>

0800aae8 <_malloc_usable_size_r>:
 800aae8:	f851 3c04 	ldr.w	r3, [r1, #-4]
 800aaec:	1f18      	subs	r0, r3, #4
 800aaee:	2b00      	cmp	r3, #0
 800aaf0:	bfbc      	itt	lt
 800aaf2:	580b      	ldrlt	r3, [r1, r0]
 800aaf4:	18c0      	addlt	r0, r0, r3
 800aaf6:	4770      	bx	lr

0800aaf8 <__ascii_wctomb>:
 800aaf8:	4603      	mov	r3, r0
 800aafa:	4608      	mov	r0, r1
 800aafc:	b141      	cbz	r1, 800ab10 <__ascii_wctomb+0x18>
 800aafe:	2aff      	cmp	r2, #255	@ 0xff
 800ab00:	d904      	bls.n	800ab0c <__ascii_wctomb+0x14>
 800ab02:	228a      	movs	r2, #138	@ 0x8a
 800ab04:	601a      	str	r2, [r3, #0]
 800ab06:	f04f 30ff 	mov.w	r0, #4294967295
 800ab0a:	4770      	bx	lr
 800ab0c:	700a      	strb	r2, [r1, #0]
 800ab0e:	2001      	movs	r0, #1
 800ab10:	4770      	bx	lr

0800ab12 <__ssputs_r>:
 800ab12:	e92d 47f0 	stmdb	sp!, {r4, r5, r6, r7, r8, r9, sl, lr}
 800ab16:	688e      	ldr	r6, [r1, #8]
 800ab18:	461f      	mov	r7, r3
 800ab1a:	42be      	cmp	r6, r7
 800ab1c:	680b      	ldr	r3, [r1, #0]
 800ab1e:	4682      	mov	sl, r0
 800ab20:	460c      	mov	r4, r1
 800ab22:	4690      	mov	r8, r2
 800ab24:	d82d      	bhi.n	800ab82 <__ssputs_r+0x70>
 800ab26:	f9b1 200c 	ldrsh.w	r2, [r1, #12]
 800ab2a:	f412 6f90 	tst.w	r2, #1152	@ 0x480
 800ab2e:	d026      	beq.n	800ab7e <__ssputs_r+0x6c>
 800ab30:	6965      	ldr	r5, [r4, #20]
 800ab32:	6909      	ldr	r1, [r1, #16]
 800ab34:	eb05 0545 	add.w	r5, r5, r5, lsl #1
 800ab38:	eba3 0901 	sub.w	r9, r3, r1
 800ab3c:	eb05 75d5 	add.w	r5, r5, r5, lsr #31
 800ab40:	1c7b      	adds	r3, r7, #1
 800ab42:	444b      	add	r3, r9
 800ab44:	106d      	asrs	r5, r5, #1
 800ab46:	429d      	cmp	r5, r3
 800ab48:	bf38      	it	cc
 800ab4a:	461d      	movcc	r5, r3
 800ab4c:	0553      	lsls	r3, r2, #21
 800ab4e:	d527      	bpl.n	800aba0 <__ssputs_r+0x8e>
 800ab50:	4629      	mov	r1, r5
 800ab52:	f7fd fea7 	bl	80088a4 <_malloc_r>
 800ab56:	4606      	mov	r6, r0
 800ab58:	b360      	cbz	r0, 800abb4 <__ssputs_r+0xa2>
 800ab5a:	6921      	ldr	r1, [r4, #16]
 800ab5c:	464a      	mov	r2, r9
 800ab5e:	f7fe ff6c 	bl	8009a3a <memcpy>
 800ab62:	89a3      	ldrh	r3, [r4, #12]
 800ab64:	f423 6390 	bic.w	r3, r3, #1152	@ 0x480
 800ab68:	f043 0380 	orr.w	r3, r3, #128	@ 0x80
 800ab6c:	81a3      	strh	r3, [r4, #12]
 800ab6e:	6126      	str	r6, [r4, #16]
 800ab70:	6165      	str	r5, [r4, #20]
 800ab72:	444e      	add	r6, r9
 800ab74:	eba5 0509 	sub.w	r5, r5, r9
 800ab78:	6026      	str	r6, [r4, #0]
 800ab7a:	60a5      	str	r5, [r4, #8]
 800ab7c:	463e      	mov	r6, r7
 800ab7e:	42be      	cmp	r6, r7
 800ab80:	d900      	bls.n	800ab84 <__ssputs_r+0x72>
 800ab82:	463e      	mov	r6, r7
 800ab84:	6820      	ldr	r0, [r4, #0]
 800ab86:	4632      	mov	r2, r6
 800ab88:	4641      	mov	r1, r8
 800ab8a:	f000 fb51 	bl	800b230 <memmove>
 800ab8e:	68a3      	ldr	r3, [r4, #8]
 800ab90:	1b9b      	subs	r3, r3, r6
 800ab92:	60a3      	str	r3, [r4, #8]
 800ab94:	6823      	ldr	r3, [r4, #0]
 800ab96:	4433      	add	r3, r6
 800ab98:	6023      	str	r3, [r4, #0]
 800ab9a:	2000      	movs	r0, #0
 800ab9c:	e8bd 87f0 	ldmia.w	sp!, {r4, r5, r6, r7, r8, r9, sl, pc}
 800aba0:	462a      	mov	r2, r5
 800aba2:	f7fd ff13 	bl	80089cc <_realloc_r>
 800aba6:	4606      	mov	r6, r0
 800aba8:	2800      	cmp	r0, #0
 800abaa:	d1e0      	bne.n	800ab6e <__ssputs_r+0x5c>
 800abac:	6921      	ldr	r1, [r4, #16]
 800abae:	4650      	mov	r0, sl
 800abb0:	f7fe ff5a 	bl	8009a68 <_free_r>
 800abb4:	230c      	movs	r3, #12
 800abb6:	f8ca 3000 	str.w	r3, [sl]
 800abba:	89a3      	ldrh	r3, [r4, #12]
 800abbc:	f043 0340 	orr.w	r3, r3, #64	@ 0x40
 800abc0:	81a3      	strh	r3, [r4, #12]
 800abc2:	f04f 30ff 	mov.w	r0, #4294967295
 800abc6:	e7e9      	b.n	800ab9c <__ssputs_r+0x8a>

0800abc8 <_svfiprintf_r>:
 800abc8:	e92d 4ff0 	stmdb	sp!, {r4, r5, r6, r7, r8, r9, sl, fp, lr}
 800abcc:	4698      	mov	r8, r3
 800abce:	898b      	ldrh	r3, [r1, #12]
 800abd0:	061b      	lsls	r3, r3, #24
 800abd2:	b09d      	sub	sp, #116	@ 0x74
 800abd4:	4607      	mov	r7, r0
 800abd6:	460d      	mov	r5, r1
 800abd8:	4614      	mov	r4, r2
 800abda:	d510      	bpl.n	800abfe <_svfiprintf_r+0x36>
 800abdc:	690b      	ldr	r3, [r1, #16]
 800abde:	b973      	cbnz	r3, 800abfe <_svfiprintf_r+0x36>
 800abe0:	2140      	movs	r1, #64	@ 0x40
 800abe2:	f7fd fe5f 	bl	80088a4 <_malloc_r>
 800abe6:	6028      	str	r0, [r5, #0]
 800abe8:	6128      	str	r0, [r5, #16]
 800abea:	b930      	cbnz	r0, 800abfa <_svfiprintf_r+0x32>
 800abec:	230c      	movs	r3, #12
 800abee:	603b      	str	r3, [r7, #0]
 800abf0:	f04f 30ff 	mov.w	r0, #4294967295
 800abf4:	b01d      	add	sp, #116	@ 0x74
 800abf6:	e8bd 8ff0 	ldmia.w	sp!, {r4, r5, r6, r7, r8, r9, sl, fp, pc}
 800abfa:	2340      	movs	r3, #64	@ 0x40
 800abfc:	616b      	str	r3, [r5, #20]
 800abfe:	2300      	movs	r3, #0
 800ac00:	9309      	str	r3, [sp, #36]	@ 0x24
 800ac02:	2320      	movs	r3, #32
 800ac04:	f88d 3029 	strb.w	r3, [sp, #41]	@ 0x29
 800ac08:	f8cd 800c 	str.w	r8, [sp, #12]
 800ac0c:	2330      	movs	r3, #48	@ 0x30
 800ac0e:	f8df 819c 	ldr.w	r8, [pc, #412]	@ 800adac <_svfiprintf_r+0x1e4>
 800ac12:	f88d 302a 	strb.w	r3, [sp, #42]	@ 0x2a
 800ac16:	f04f 0901 	mov.w	r9, #1
 800ac1a:	4623      	mov	r3, r4
 800ac1c:	469a      	mov	sl, r3
 800ac1e:	f813 2b01 	ldrb.w	r2, [r3], #1
 800ac22:	b10a      	cbz	r2, 800ac28 <_svfiprintf_r+0x60>
 800ac24:	2a25      	cmp	r2, #37	@ 0x25
 800ac26:	d1f9      	bne.n	800ac1c <_svfiprintf_r+0x54>
 800ac28:	ebba 0b04 	subs.w	fp, sl, r4
 800ac2c:	d00b      	beq.n	800ac46 <_svfiprintf_r+0x7e>
 800ac2e:	465b      	mov	r3, fp
 800ac30:	4622      	mov	r2, r4
 800ac32:	4629      	mov	r1, r5
 800ac34:	4638      	mov	r0, r7
 800ac36:	f7ff ff6c 	bl	800ab12 <__ssputs_r>
 800ac3a:	3001      	adds	r0, #1
 800ac3c:	f000 80a7 	beq.w	800ad8e <_svfiprintf_r+0x1c6>
 800ac40:	9a09      	ldr	r2, [sp, #36]	@ 0x24
 800ac42:	445a      	add	r2, fp
 800ac44:	9209      	str	r2, [sp, #36]	@ 0x24
 800ac46:	f89a 3000 	ldrb.w	r3, [sl]
 800ac4a:	2b00      	cmp	r3, #0
 800ac4c:	f000 809f 	beq.w	800ad8e <_svfiprintf_r+0x1c6>
 800ac50:	2300      	movs	r3, #0
 800ac52:	f04f 32ff 	mov.w	r2, #4294967295
 800ac56:	e9cd 2305 	strd	r2, r3, [sp, #20]
 800ac5a:	f10a 0a01 	add.w	sl, sl, #1
 800ac5e:	9304      	str	r3, [sp, #16]
 800ac60:	9307      	str	r3, [sp, #28]
 800ac62:	f88d 3053 	strb.w	r3, [sp, #83]	@ 0x53
 800ac66:	931a      	str	r3, [sp, #104]	@ 0x68
 800ac68:	4654      	mov	r4, sl
 800ac6a:	2205      	movs	r2, #5
 800ac6c:	f814 1b01 	ldrb.w	r1, [r4], #1
 800ac70:	484e      	ldr	r0, [pc, #312]	@ (800adac <_svfiprintf_r+0x1e4>)
 800ac72:	f7f5 fac5 	bl	8000200 <memchr>
 800ac76:	9a04      	ldr	r2, [sp, #16]
 800ac78:	b9d8      	cbnz	r0, 800acb2 <_svfiprintf_r+0xea>
 800ac7a:	06d0      	lsls	r0, r2, #27
 800ac7c:	bf44      	itt	mi
 800ac7e:	2320      	movmi	r3, #32
 800ac80:	f88d 3053 	strbmi.w	r3, [sp, #83]	@ 0x53
 800ac84:	0711      	lsls	r1, r2, #28
 800ac86:	bf44      	itt	mi
 800ac88:	232b      	movmi	r3, #43	@ 0x2b
 800ac8a:	f88d 3053 	strbmi.w	r3, [sp, #83]	@ 0x53
 800ac8e:	f89a 3000 	ldrb.w	r3, [sl]
 800ac92:	2b2a      	cmp	r3, #42	@ 0x2a
 800ac94:	d015      	beq.n	800acc2 <_svfiprintf_r+0xfa>
 800ac96:	9a07      	ldr	r2, [sp, #28]
 800ac98:	4654      	mov	r4, sl
 800ac9a:	2000      	movs	r0, #0
 800ac9c:	f04f 0c0a 	mov.w	ip, #10
 800aca0:	4621      	mov	r1, r4
 800aca2:	f811 3b01 	ldrb.w	r3, [r1], #1
 800aca6:	3b30      	subs	r3, #48	@ 0x30
 800aca8:	2b09      	cmp	r3, #9
 800acaa:	d94b      	bls.n	800ad44 <_svfiprintf_r+0x17c>
 800acac:	b1b0      	cbz	r0, 800acdc <_svfiprintf_r+0x114>
 800acae:	9207      	str	r2, [sp, #28]
 800acb0:	e014      	b.n	800acdc <_svfiprintf_r+0x114>
 800acb2:	eba0 0308 	sub.w	r3, r0, r8
 800acb6:	fa09 f303 	lsl.w	r3, r9, r3
 800acba:	4313      	orrs	r3, r2
 800acbc:	9304      	str	r3, [sp, #16]
 800acbe:	46a2      	mov	sl, r4
 800acc0:	e7d2      	b.n	800ac68 <_svfiprintf_r+0xa0>
 800acc2:	9b03      	ldr	r3, [sp, #12]
 800acc4:	1d19      	adds	r1, r3, #4
 800acc6:	681b      	ldr	r3, [r3, #0]
 800acc8:	9103      	str	r1, [sp, #12]
 800acca:	2b00      	cmp	r3, #0
 800accc:	bfbb      	ittet	lt
 800acce:	425b      	neglt	r3, r3
 800acd0:	f042 0202 	orrlt.w	r2, r2, #2
 800acd4:	9307      	strge	r3, [sp, #28]
 800acd6:	9307      	strlt	r3, [sp, #28]
 800acd8:	bfb8      	it	lt
 800acda:	9204      	strlt	r2, [sp, #16]
 800acdc:	7823      	ldrb	r3, [r4, #0]
 800acde:	2b2e      	cmp	r3, #46	@ 0x2e
 800ace0:	d10a      	bne.n	800acf8 <_svfiprintf_r+0x130>
 800ace2:	7863      	ldrb	r3, [r4, #1]
 800ace4:	2b2a      	cmp	r3, #42	@ 0x2a
 800ace6:	d132      	bne.n	800ad4e <_svfiprintf_r+0x186>
 800ace8:	9b03      	ldr	r3, [sp, #12]
 800acea:	1d1a      	adds	r2, r3, #4
 800acec:	681b      	ldr	r3, [r3, #0]
 800acee:	9203      	str	r2, [sp, #12]
 800acf0:	ea43 73e3 	orr.w	r3, r3, r3, asr #31
 800acf4:	3402      	adds	r4, #2
 800acf6:	9305      	str	r3, [sp, #20]
 800acf8:	f8df a0c0 	ldr.w	sl, [pc, #192]	@ 800adbc <_svfiprintf_r+0x1f4>
 800acfc:	7821      	ldrb	r1, [r4, #0]
 800acfe:	2203      	movs	r2, #3
 800ad00:	4650      	mov	r0, sl
 800ad02:	f7f5 fa7d 	bl	8000200 <memchr>
 800ad06:	b138      	cbz	r0, 800ad18 <_svfiprintf_r+0x150>
 800ad08:	9b04      	ldr	r3, [sp, #16]
 800ad0a:	eba0 000a 	sub.w	r0, r0, sl
 800ad0e:	2240      	movs	r2, #64	@ 0x40
 800ad10:	4082      	lsls	r2, r0
 800ad12:	4313      	orrs	r3, r2
 800ad14:	3401      	adds	r4, #1
 800ad16:	9304      	str	r3, [sp, #16]
 800ad18:	f814 1b01 	ldrb.w	r1, [r4], #1
 800ad1c:	4824      	ldr	r0, [pc, #144]	@ (800adb0 <_svfiprintf_r+0x1e8>)
 800ad1e:	f88d 1028 	strb.w	r1, [sp, #40]	@ 0x28
 800ad22:	2206      	movs	r2, #6
 800ad24:	f7f5 fa6c 	bl	8000200 <memchr>
 800ad28:	2800      	cmp	r0, #0
 800ad2a:	d036      	beq.n	800ad9a <_svfiprintf_r+0x1d2>
 800ad2c:	4b21      	ldr	r3, [pc, #132]	@ (800adb4 <_svfiprintf_r+0x1ec>)
 800ad2e:	bb1b      	cbnz	r3, 800ad78 <_svfiprintf_r+0x1b0>
 800ad30:	9b03      	ldr	r3, [sp, #12]
 800ad32:	3307      	adds	r3, #7
 800ad34:	f023 0307 	bic.w	r3, r3, #7
 800ad38:	3308      	adds	r3, #8
 800ad3a:	9303      	str	r3, [sp, #12]
 800ad3c:	9b09      	ldr	r3, [sp, #36]	@ 0x24
 800ad3e:	4433      	add	r3, r6
 800ad40:	9309      	str	r3, [sp, #36]	@ 0x24
 800ad42:	e76a      	b.n	800ac1a <_svfiprintf_r+0x52>
 800ad44:	fb0c 3202 	mla	r2, ip, r2, r3
 800ad48:	460c      	mov	r4, r1
 800ad4a:	2001      	movs	r0, #1
 800ad4c:	e7a8      	b.n	800aca0 <_svfiprintf_r+0xd8>
 800ad4e:	2300      	movs	r3, #0
 800ad50:	3401      	adds	r4, #1
 800ad52:	9305      	str	r3, [sp, #20]
 800ad54:	4619      	mov	r1, r3
 800ad56:	f04f 0c0a 	mov.w	ip, #10
 800ad5a:	4620      	mov	r0, r4
 800ad5c:	f810 2b01 	ldrb.w	r2, [r0], #1
 800ad60:	3a30      	subs	r2, #48	@ 0x30
 800ad62:	2a09      	cmp	r2, #9
 800ad64:	d903      	bls.n	800ad6e <_svfiprintf_r+0x1a6>
 800ad66:	2b00      	cmp	r3, #0
 800ad68:	d0c6      	beq.n	800acf8 <_svfiprintf_r+0x130>
 800ad6a:	9105      	str	r1, [sp, #20]
 800ad6c:	e7c4      	b.n	800acf8 <_svfiprintf_r+0x130>
 800ad6e:	fb0c 2101 	mla	r1, ip, r1, r2
 800ad72:	4604      	mov	r4, r0
 800ad74:	2301      	movs	r3, #1
 800ad76:	e7f0      	b.n	800ad5a <_svfiprintf_r+0x192>
 800ad78:	ab03      	add	r3, sp, #12
 800ad7a:	9300      	str	r3, [sp, #0]
 800ad7c:	462a      	mov	r2, r5
 800ad7e:	4b0e      	ldr	r3, [pc, #56]	@ (800adb8 <_svfiprintf_r+0x1f0>)
 800ad80:	a904      	add	r1, sp, #16
 800ad82:	4638      	mov	r0, r7
 800ad84:	f3af 8000 	nop.w
 800ad88:	1c42      	adds	r2, r0, #1
 800ad8a:	4606      	mov	r6, r0
 800ad8c:	d1d6      	bne.n	800ad3c <_svfiprintf_r+0x174>
 800ad8e:	89ab      	ldrh	r3, [r5, #12]
 800ad90:	065b      	lsls	r3, r3, #25
 800ad92:	f53f af2d 	bmi.w	800abf0 <_svfiprintf_r+0x28>
 800ad96:	9809      	ldr	r0, [sp, #36]	@ 0x24
 800ad98:	e72c      	b.n	800abf4 <_svfiprintf_r+0x2c>
 800ad9a:	ab03      	add	r3, sp, #12
 800ad9c:	9300      	str	r3, [sp, #0]
 800ad9e:	462a      	mov	r2, r5
 800ada0:	4b05      	ldr	r3, [pc, #20]	@ (800adb8 <_svfiprintf_r+0x1f0>)
 800ada2:	a904      	add	r1, sp, #16
 800ada4:	4638      	mov	r0, r7
 800ada6:	f000 f879 	bl	800ae9c <_printf_i>
 800adaa:	e7ed      	b.n	800ad88 <_svfiprintf_r+0x1c0>
 800adac:	0803377b 	.word	0x0803377b
 800adb0:	08033785 	.word	0x08033785
 800adb4:	00000000 	.word	0x00000000
 800adb8:	0800ab13 	.word	0x0800ab13
 800adbc:	08033781 	.word	0x08033781

0800adc0 <_printf_common>:
 800adc0:	e92d 47f0 	stmdb	sp!, {r4, r5, r6, r7, r8, r9, sl, lr}
 800adc4:	4616      	mov	r6, r2
 800adc6:	4698      	mov	r8, r3
 800adc8:	688a      	ldr	r2, [r1, #8]
 800adca:	690b      	ldr	r3, [r1, #16]
 800adcc:	f8dd 9020 	ldr.w	r9, [sp, #32]
 800add0:	4293      	cmp	r3, r2
 800add2:	bfb8      	it	lt
 800add4:	4613      	movlt	r3, r2
 800add6:	6033      	str	r3, [r6, #0]
 800add8:	f891 2043 	ldrb.w	r2, [r1, #67]	@ 0x43
 800addc:	4607      	mov	r7, r0
 800adde:	460c      	mov	r4, r1
 800ade0:	b10a      	cbz	r2, 800ade6 <_printf_common+0x26>
 800ade2:	3301      	adds	r3, #1
 800ade4:	6033      	str	r3, [r6, #0]
 800ade6:	6823      	ldr	r3, [r4, #0]
 800ade8:	0699      	lsls	r1, r3, #26
 800adea:	bf42      	ittt	mi
 800adec:	6833      	ldrmi	r3, [r6, #0]
 800adee:	3302      	addmi	r3, #2
 800adf0:	6033      	strmi	r3, [r6, #0]
 800adf2:	6825      	ldr	r5, [r4, #0]
 800adf4:	f015 0506 	ands.w	r5, r5, #6
 800adf8:	d106      	bne.n	800ae08 <_printf_common+0x48>
 800adfa:	f104 0a19 	add.w	sl, r4, #25
 800adfe:	68e3      	ldr	r3, [r4, #12]
 800ae00:	6832      	ldr	r2, [r6, #0]
 800ae02:	1a9b      	subs	r3, r3, r2
 800ae04:	42ab      	cmp	r3, r5
 800ae06:	dc26      	bgt.n	800ae56 <_printf_common+0x96>
 800ae08:	f894 3043 	ldrb.w	r3, [r4, #67]	@ 0x43
 800ae0c:	6822      	ldr	r2, [r4, #0]
 800ae0e:	3b00      	subs	r3, #0
 800ae10:	bf18      	it	ne
 800ae12:	2301      	movne	r3, #1
 800ae14:	0692      	lsls	r2, r2, #26
 800ae16:	d42b      	bmi.n	800ae70 <_printf_common+0xb0>
 800ae18:	f104 0243 	add.w	r2, r4, #67	@ 0x43
 800ae1c:	4641      	mov	r1, r8
 800ae1e:	4638      	mov	r0, r7
 800ae20:	47c8      	blx	r9
 800ae22:	3001      	adds	r0, #1
 800ae24:	d01e      	beq.n	800ae64 <_printf_common+0xa4>
 800ae26:	6823      	ldr	r3, [r4, #0]
 800ae28:	6922      	ldr	r2, [r4, #16]
 800ae2a:	f003 0306 	and.w	r3, r3, #6
 800ae2e:	2b04      	cmp	r3, #4
 800ae30:	bf02      	ittt	eq
 800ae32:	68e5      	ldreq	r5, [r4, #12]
 800ae34:	6833      	ldreq	r3, [r6, #0]
 800ae36:	1aed      	subeq	r5, r5, r3
 800ae38:	68a3      	ldr	r3, [r4, #8]
 800ae3a:	bf0c      	ite	eq
 800ae3c:	ea25 75e5 	biceq.w	r5, r5, r5, asr #31
 800ae40:	2500      	movne	r5, #0
 800ae42:	4293      	cmp	r3, r2
 800ae44:	bfc4      	itt	gt
 800ae46:	1a9b      	subgt	r3, r3, r2
 800ae48:	18ed      	addgt	r5, r5, r3
 800ae4a:	2600      	movs	r6, #0
 800ae4c:	341a      	adds	r4, #26
 800ae4e:	42b5      	cmp	r5, r6
 800ae50:	d11a      	bne.n	800ae88 <_printf_common+0xc8>
 800ae52:	2000      	movs	r0, #0
 800ae54:	e008      	b.n	800ae68 <_printf_common+0xa8>
 800ae56:	2301      	movs	r3, #1
 800ae58:	4652      	mov	r2, sl
 800ae5a:	4641      	mov	r1, r8
 800ae5c:	4638      	mov	r0, r7
 800ae5e:	47c8      	blx	r9
 800ae60:	3001      	adds	r0, #1
 800ae62:	d103      	bne.n	800ae6c <_printf_common+0xac>
 800ae64:	f04f 30ff 	mov.w	r0, #4294967295
 800ae68:	e8bd 87f0 	ldmia.w	sp!, {r4, r5, r6, r7, r8, r9, sl, pc}
 800ae6c:	3501      	adds	r5, #1
 800ae6e:	e7c6      	b.n	800adfe <_printf_common+0x3e>
 800ae70:	18e1      	adds	r1, r4, r3
 800ae72:	1c5a      	adds	r2, r3, #1
 800ae74:	2030      	movs	r0, #48	@ 0x30
 800ae76:	f881 0043 	strb.w	r0, [r1, #67]	@ 0x43
 800ae7a:	4422      	add	r2, r4
 800ae7c:	f894 1045 	ldrb.w	r1, [r4, #69]	@ 0x45
 800ae80:	f882 1043 	strb.w	r1, [r2, #67]	@ 0x43
 800ae84:	3302      	adds	r3, #2
 800ae86:	e7c7      	b.n	800ae18 <_printf_common+0x58>
 800ae88:	2301      	movs	r3, #1
 800ae8a:	4622      	mov	r2, r4
 800ae8c:	4641      	mov	r1, r8
 800ae8e:	4638      	mov	r0, r7
 800ae90:	47c8      	blx	r9
 800ae92:	3001      	adds	r0, #1
 800ae94:	d0e6      	beq.n	800ae64 <_printf_common+0xa4>
 800ae96:	3601      	adds	r6, #1
 800ae98:	e7d9      	b.n	800ae4e <_printf_common+0x8e>
	...

0800ae9c <_printf_i>:
 800ae9c:	e92d 47ff 	stmdb	sp!, {r0, r1, r2, r3, r4, r5, r6, r7, r8, r9, sl, lr}
 800aea0:	7e0f      	ldrb	r7, [r1, #24]
 800aea2:	9e0c      	ldr	r6, [sp, #48]	@ 0x30
 800aea4:	2f78      	cmp	r7, #120	@ 0x78
 800aea6:	4691      	mov	r9, r2
 800aea8:	4680      	mov	r8, r0
 800aeaa:	460c      	mov	r4, r1
 800aeac:	469a      	mov	sl, r3
 800aeae:	f101 0243 	add.w	r2, r1, #67	@ 0x43
 800aeb2:	d807      	bhi.n	800aec4 <_printf_i+0x28>
 800aeb4:	2f62      	cmp	r7, #98	@ 0x62
 800aeb6:	d80a      	bhi.n	800aece <_printf_i+0x32>
 800aeb8:	2f00      	cmp	r7, #0
 800aeba:	f000 80d1 	beq.w	800b060 <_printf_i+0x1c4>
 800aebe:	2f58      	cmp	r7, #88	@ 0x58
 800aec0:	f000 80b8 	beq.w	800b034 <_printf_i+0x198>
 800aec4:	f104 0642 	add.w	r6, r4, #66	@ 0x42
 800aec8:	f884 7042 	strb.w	r7, [r4, #66]	@ 0x42
 800aecc:	e03a      	b.n	800af44 <_printf_i+0xa8>
 800aece:	f1a7 0363 	sub.w	r3, r7, #99	@ 0x63
 800aed2:	2b15      	cmp	r3, #21
 800aed4:	d8f6      	bhi.n	800aec4 <_printf_i+0x28>
 800aed6:	a101      	add	r1, pc, #4	@ (adr r1, 800aedc <_printf_i+0x40>)
 800aed8:	f851 f023 	ldr.w	pc, [r1, r3, lsl #2]
 800aedc:	0800af35 	.word	0x0800af35
 800aee0:	0800af49 	.word	0x0800af49
 800aee4:	0800aec5 	.word	0x0800aec5
 800aee8:	0800aec5 	.word	0x0800aec5
 800aeec:	0800aec5 	.word	0x0800aec5
 800aef0:	0800aec5 	.word	0x0800aec5
 800aef4:	0800af49 	.word	0x0800af49
 800aef8:	0800aec5 	.word	0x0800aec5
 800aefc:	0800aec5 	.word	0x0800aec5
 800af00:	0800aec5 	.word	0x0800aec5
 800af04:	0800aec5 	.word	0x0800aec5
 800af08:	0800b047 	.word	0x0800b047
 800af0c:	0800af73 	.word	0x0800af73
 800af10:	0800b001 	.word	0x0800b001
 800af14:	0800aec5 	.word	0x0800aec5
 800af18:	0800aec5 	.word	0x0800aec5
 800af1c:	0800b069 	.word	0x0800b069
 800af20:	0800aec5 	.word	0x0800aec5
 800af24:	0800af73 	.word	0x0800af73
 800af28:	0800aec5 	.word	0x0800aec5
 800af2c:	0800aec5 	.word	0x0800aec5
 800af30:	0800b009 	.word	0x0800b009
 800af34:	6833      	ldr	r3, [r6, #0]
 800af36:	1d1a      	adds	r2, r3, #4
 800af38:	681b      	ldr	r3, [r3, #0]
 800af3a:	6032      	str	r2, [r6, #0]
 800af3c:	f104 0642 	add.w	r6, r4, #66	@ 0x42
 800af40:	f884 3042 	strb.w	r3, [r4, #66]	@ 0x42
 800af44:	2301      	movs	r3, #1
 800af46:	e09c      	b.n	800b082 <_printf_i+0x1e6>
 800af48:	6833      	ldr	r3, [r6, #0]
 800af4a:	6820      	ldr	r0, [r4, #0]
 800af4c:	1d19      	adds	r1, r3, #4
 800af4e:	6031      	str	r1, [r6, #0]
 800af50:	0606      	lsls	r6, r0, #24
 800af52:	d501      	bpl.n	800af58 <_printf_i+0xbc>
 800af54:	681d      	ldr	r5, [r3, #0]
 800af56:	e003      	b.n	800af60 <_printf_i+0xc4>
 800af58:	0645      	lsls	r5, r0, #25
 800af5a:	d5fb      	bpl.n	800af54 <_printf_i+0xb8>
 800af5c:	f9b3 5000 	ldrsh.w	r5, [r3]
 800af60:	2d00      	cmp	r5, #0
 800af62:	da03      	bge.n	800af6c <_printf_i+0xd0>
 800af64:	232d      	movs	r3, #45	@ 0x2d
 800af66:	426d      	negs	r5, r5
 800af68:	f884 3043 	strb.w	r3, [r4, #67]	@ 0x43
 800af6c:	4858      	ldr	r0, [pc, #352]	@ (800b0d0 <_printf_i+0x234>)
 800af6e:	230a      	movs	r3, #10
 800af70:	e011      	b.n	800af96 <_printf_i+0xfa>
 800af72:	6821      	ldr	r1, [r4, #0]
 800af74:	6833      	ldr	r3, [r6, #0]
 800af76:	0608      	lsls	r0, r1, #24
 800af78:	f853 5b04 	ldr.w	r5, [r3], #4
 800af7c:	d402      	bmi.n	800af84 <_printf_i+0xe8>
 800af7e:	0649      	lsls	r1, r1, #25
 800af80:	bf48      	it	mi
 800af82:	b2ad      	uxthmi	r5, r5
 800af84:	2f6f      	cmp	r7, #111	@ 0x6f
 800af86:	4852      	ldr	r0, [pc, #328]	@ (800b0d0 <_printf_i+0x234>)
 800af88:	6033      	str	r3, [r6, #0]
 800af8a:	bf14      	ite	ne
 800af8c:	230a      	movne	r3, #10
 800af8e:	2308      	moveq	r3, #8
 800af90:	2100      	movs	r1, #0
 800af92:	f884 1043 	strb.w	r1, [r4, #67]	@ 0x43
 800af96:	6866      	ldr	r6, [r4, #4]
 800af98:	60a6      	str	r6, [r4, #8]
 800af9a:	2e00      	cmp	r6, #0
 800af9c:	db05      	blt.n	800afaa <_printf_i+0x10e>
 800af9e:	6821      	ldr	r1, [r4, #0]
 800afa0:	432e      	orrs	r6, r5
 800afa2:	f021 0104 	bic.w	r1, r1, #4
 800afa6:	6021      	str	r1, [r4, #0]
 800afa8:	d04b      	beq.n	800b042 <_printf_i+0x1a6>
 800afaa:	4616      	mov	r6, r2
 800afac:	fbb5 f1f3 	udiv	r1, r5, r3
 800afb0:	fb03 5711 	mls	r7, r3, r1, r5
 800afb4:	5dc7      	ldrb	r7, [r0, r7]
 800afb6:	f806 7d01 	strb.w	r7, [r6, #-1]!
 800afba:	462f      	mov	r7, r5
 800afbc:	42bb      	cmp	r3, r7
 800afbe:	460d      	mov	r5, r1
 800afc0:	d9f4      	bls.n	800afac <_printf_i+0x110>
 800afc2:	2b08      	cmp	r3, #8
 800afc4:	d10b      	bne.n	800afde <_printf_i+0x142>
 800afc6:	6823      	ldr	r3, [r4, #0]
 800afc8:	07df      	lsls	r7, r3, #31
 800afca:	d508      	bpl.n	800afde <_printf_i+0x142>
 800afcc:	6923      	ldr	r3, [r4, #16]
 800afce:	6861      	ldr	r1, [r4, #4]
 800afd0:	4299      	cmp	r1, r3
 800afd2:	bfde      	ittt	le
 800afd4:	2330      	movle	r3, #48	@ 0x30
 800afd6:	f806 3c01 	strble.w	r3, [r6, #-1]
 800afda:	f106 36ff 	addle.w	r6, r6, #4294967295
 800afde:	1b92      	subs	r2, r2, r6
 800afe0:	6122      	str	r2, [r4, #16]
 800afe2:	f8cd a000 	str.w	sl, [sp]
 800afe6:	464b      	mov	r3, r9
 800afe8:	aa03      	add	r2, sp, #12
 800afea:	4621      	mov	r1, r4
 800afec:	4640      	mov	r0, r8
 800afee:	f7ff fee7 	bl	800adc0 <_printf_common>
 800aff2:	3001      	adds	r0, #1
 800aff4:	d14a      	bne.n	800b08c <_printf_i+0x1f0>
 800aff6:	f04f 30ff 	mov.w	r0, #4294967295
 800affa:	b004      	add	sp, #16
 800affc:	e8bd 87f0 	ldmia.w	sp!, {r4, r5, r6, r7, r8, r9, sl, pc}
 800b000:	6823      	ldr	r3, [r4, #0]
 800b002:	f043 0320 	orr.w	r3, r3, #32
 800b006:	6023      	str	r3, [r4, #0]
 800b008:	4832      	ldr	r0, [pc, #200]	@ (800b0d4 <_printf_i+0x238>)
 800b00a:	2778      	movs	r7, #120	@ 0x78
 800b00c:	f884 7045 	strb.w	r7, [r4, #69]	@ 0x45
 800b010:	6823      	ldr	r3, [r4, #0]
 800b012:	6831      	ldr	r1, [r6, #0]
 800b014:	061f      	lsls	r7, r3, #24
 800b016:	f851 5b04 	ldr.w	r5, [r1], #4
 800b01a:	d402      	bmi.n	800b022 <_printf_i+0x186>
 800b01c:	065f      	lsls	r7, r3, #25
 800b01e:	bf48      	it	mi
 800b020:	b2ad      	uxthmi	r5, r5
 800b022:	6031      	str	r1, [r6, #0]
 800b024:	07d9      	lsls	r1, r3, #31
 800b026:	bf44      	itt	mi
 800b028:	f043 0320 	orrmi.w	r3, r3, #32
 800b02c:	6023      	strmi	r3, [r4, #0]
 800b02e:	b11d      	cbz	r5, 800b038 <_printf_i+0x19c>
 800b030:	2310      	movs	r3, #16
 800b032:	e7ad      	b.n	800af90 <_printf_i+0xf4>
 800b034:	4826      	ldr	r0, [pc, #152]	@ (800b0d0 <_printf_i+0x234>)
 800b036:	e7e9      	b.n	800b00c <_printf_i+0x170>
 800b038:	6823      	ldr	r3, [r4, #0]
 800b03a:	f023 0320 	bic.w	r3, r3, #32
 800b03e:	6023      	str	r3, [r4, #0]
 800b040:	e7f6      	b.n	800b030 <_printf_i+0x194>
 800b042:	4616      	mov	r6, r2
 800b044:	e7bd      	b.n	800afc2 <_printf_i+0x126>
 800b046:	6833      	ldr	r3, [r6, #0]
 800b048:	6825      	ldr	r5, [r4, #0]
 800b04a:	6961      	ldr	r1, [r4, #20]
 800b04c:	1d18      	adds	r0, r3, #4
 800b04e:	6030      	str	r0, [r6, #0]
 800b050:	062e      	lsls	r6, r5, #24
 800b052:	681b      	ldr	r3, [r3, #0]
 800b054:	d501      	bpl.n	800b05a <_printf_i+0x1be>
 800b056:	6019      	str	r1, [r3, #0]
 800b058:	e002      	b.n	800b060 <_printf_i+0x1c4>
 800b05a:	0668      	lsls	r0, r5, #25
 800b05c:	d5fb      	bpl.n	800b056 <_printf_i+0x1ba>
 800b05e:	8019      	strh	r1, [r3, #0]
 800b060:	2300      	movs	r3, #0
 800b062:	6123      	str	r3, [r4, #16]
 800b064:	4616      	mov	r6, r2
 800b066:	e7bc      	b.n	800afe2 <_printf_i+0x146>
 800b068:	6833      	ldr	r3, [r6, #0]
 800b06a:	1d1a      	adds	r2, r3, #4
 800b06c:	6032      	str	r2, [r6, #0]
 800b06e:	681e      	ldr	r6, [r3, #0]
 800b070:	6862      	ldr	r2, [r4, #4]
 800b072:	2100      	movs	r1, #0
 800b074:	4630      	mov	r0, r6
 800b076:	f7f5 f8c3 	bl	8000200 <memchr>
 800b07a:	b108      	cbz	r0, 800b080 <_printf_i+0x1e4>
 800b07c:	1b80      	subs	r0, r0, r6
 800b07e:	6060      	str	r0, [r4, #4]
 800b080:	6863      	ldr	r3, [r4, #4]
 800b082:	6123      	str	r3, [r4, #16]
 800b084:	2300      	movs	r3, #0
 800b086:	f884 3043 	strb.w	r3, [r4, #67]	@ 0x43
 800b08a:	e7aa      	b.n	800afe2 <_printf_i+0x146>
 800b08c:	6923      	ldr	r3, [r4, #16]
 800b08e:	4632      	mov	r2, r6
 800b090:	4649      	mov	r1, r9
 800b092:	4640      	mov	r0, r8
 800b094:	47d0      	blx	sl
 800b096:	3001      	adds	r0, #1
 800b098:	d0ad      	beq.n	800aff6 <_printf_i+0x15a>
 800b09a:	6823      	ldr	r3, [r4, #0]
 800b09c:	079b      	lsls	r3, r3, #30
 800b09e:	d413      	bmi.n	800b0c8 <_printf_i+0x22c>
 800b0a0:	68e0      	ldr	r0, [r4, #12]
 800b0a2:	9b03      	ldr	r3, [sp, #12]
 800b0a4:	4298      	cmp	r0, r3
 800b0a6:	bfb8      	it	lt
 800b0a8:	4618      	movlt	r0, r3
 800b0aa:	e7a6      	b.n	800affa <_printf_i+0x15e>
 800b0ac:	2301      	movs	r3, #1
 800b0ae:	4632      	mov	r2, r6
 800b0b0:	4649      	mov	r1, r9
 800b0b2:	4640      	mov	r0, r8
 800b0b4:	47d0      	blx	sl
 800b0b6:	3001      	adds	r0, #1
 800b0b8:	d09d      	beq.n	800aff6 <_printf_i+0x15a>
 800b0ba:	3501      	adds	r5, #1
 800b0bc:	68e3      	ldr	r3, [r4, #12]
 800b0be:	9903      	ldr	r1, [sp, #12]
 800b0c0:	1a5b      	subs	r3, r3, r1
 800b0c2:	42ab      	cmp	r3, r5
 800b0c4:	dcf2      	bgt.n	800b0ac <_printf_i+0x210>
 800b0c6:	e7eb      	b.n	800b0a0 <_printf_i+0x204>
 800b0c8:	2500      	movs	r5, #0
 800b0ca:	f104 0619 	add.w	r6, r4, #25
 800b0ce:	e7f5      	b.n	800b0bc <_printf_i+0x220>
 800b0d0:	0803378c 	.word	0x0803378c
 800b0d4:	0803379d 	.word	0x0803379d

0800b0d8 <__sflush_r>:
 800b0d8:	f9b1 200c 	ldrsh.w	r2, [r1, #12]
 800b0dc:	e92d 41f0 	stmdb	sp!, {r4, r5, r6, r7, r8, lr}
 800b0e0:	0716      	lsls	r6, r2, #28
 800b0e2:	4605      	mov	r5, r0
 800b0e4:	460c      	mov	r4, r1
 800b0e6:	d454      	bmi.n	800b192 <__sflush_r+0xba>
 800b0e8:	684b      	ldr	r3, [r1, #4]
 800b0ea:	2b00      	cmp	r3, #0
 800b0ec:	dc02      	bgt.n	800b0f4 <__sflush_r+0x1c>
 800b0ee:	6c0b      	ldr	r3, [r1, #64]	@ 0x40
 800b0f0:	2b00      	cmp	r3, #0
 800b0f2:	dd48      	ble.n	800b186 <__sflush_r+0xae>
 800b0f4:	6ae6      	ldr	r6, [r4, #44]	@ 0x2c
 800b0f6:	2e00      	cmp	r6, #0
 800b0f8:	d045      	beq.n	800b186 <__sflush_r+0xae>
 800b0fa:	2300      	movs	r3, #0
 800b0fc:	f412 5280 	ands.w	r2, r2, #4096	@ 0x1000
 800b100:	682f      	ldr	r7, [r5, #0]
 800b102:	6a21      	ldr	r1, [r4, #32]
 800b104:	602b      	str	r3, [r5, #0]
 800b106:	d030      	beq.n	800b16a <__sflush_r+0x92>
 800b108:	6d62      	ldr	r2, [r4, #84]	@ 0x54
 800b10a:	89a3      	ldrh	r3, [r4, #12]
 800b10c:	0759      	lsls	r1, r3, #29
 800b10e:	d505      	bpl.n	800b11c <__sflush_r+0x44>
 800b110:	6863      	ldr	r3, [r4, #4]
 800b112:	1ad2      	subs	r2, r2, r3
 800b114:	6b63      	ldr	r3, [r4, #52]	@ 0x34
 800b116:	b10b      	cbz	r3, 800b11c <__sflush_r+0x44>
 800b118:	6c23      	ldr	r3, [r4, #64]	@ 0x40
 800b11a:	1ad2      	subs	r2, r2, r3
 800b11c:	2300      	movs	r3, #0
 800b11e:	6ae6      	ldr	r6, [r4, #44]	@ 0x2c
 800b120:	6a21      	ldr	r1, [r4, #32]
 800b122:	4628      	mov	r0, r5
 800b124:	47b0      	blx	r6
 800b126:	1c43      	adds	r3, r0, #1
 800b128:	89a3      	ldrh	r3, [r4, #12]
 800b12a:	d106      	bne.n	800b13a <__sflush_r+0x62>
 800b12c:	6829      	ldr	r1, [r5, #0]
 800b12e:	291d      	cmp	r1, #29
 800b130:	d82b      	bhi.n	800b18a <__sflush_r+0xb2>
 800b132:	4a2a      	ldr	r2, [pc, #168]	@ (800b1dc <__sflush_r+0x104>)
 800b134:	40ca      	lsrs	r2, r1
 800b136:	07d6      	lsls	r6, r2, #31
 800b138:	d527      	bpl.n	800b18a <__sflush_r+0xb2>
 800b13a:	2200      	movs	r2, #0
 800b13c:	6062      	str	r2, [r4, #4]
 800b13e:	04d9      	lsls	r1, r3, #19
 800b140:	6922      	ldr	r2, [r4, #16]
 800b142:	6022      	str	r2, [r4, #0]
 800b144:	d504      	bpl.n	800b150 <__sflush_r+0x78>
 800b146:	1c42      	adds	r2, r0, #1
 800b148:	d101      	bne.n	800b14e <__sflush_r+0x76>
 800b14a:	682b      	ldr	r3, [r5, #0]
 800b14c:	b903      	cbnz	r3, 800b150 <__sflush_r+0x78>
 800b14e:	6560      	str	r0, [r4, #84]	@ 0x54
 800b150:	6b61      	ldr	r1, [r4, #52]	@ 0x34
 800b152:	602f      	str	r7, [r5, #0]
 800b154:	b1b9      	cbz	r1, 800b186 <__sflush_r+0xae>
 800b156:	f104 0344 	add.w	r3, r4, #68	@ 0x44
 800b15a:	4299      	cmp	r1, r3
 800b15c:	d002      	beq.n	800b164 <__sflush_r+0x8c>
 800b15e:	4628      	mov	r0, r5
 800b160:	f7fe fc82 	bl	8009a68 <_free_r>
 800b164:	2300      	movs	r3, #0
 800b166:	6363      	str	r3, [r4, #52]	@ 0x34
 800b168:	e00d      	b.n	800b186 <__sflush_r+0xae>
 800b16a:	2301      	movs	r3, #1
 800b16c:	4628      	mov	r0, r5
 800b16e:	47b0      	blx	r6
 800b170:	4602      	mov	r2, r0
 800b172:	1c50      	adds	r0, r2, #1
 800b174:	d1c9      	bne.n	800b10a <__sflush_r+0x32>
 800b176:	682b      	ldr	r3, [r5, #0]
 800b178:	2b00      	cmp	r3, #0
 800b17a:	d0c6      	beq.n	800b10a <__sflush_r+0x32>
 800b17c:	2b1d      	cmp	r3, #29
 800b17e:	d001      	beq.n	800b184 <__sflush_r+0xac>
 800b180:	2b16      	cmp	r3, #22
 800b182:	d11e      	bne.n	800b1c2 <__sflush_r+0xea>
 800b184:	602f      	str	r7, [r5, #0]
 800b186:	2000      	movs	r0, #0
 800b188:	e022      	b.n	800b1d0 <__sflush_r+0xf8>
 800b18a:	f043 0340 	orr.w	r3, r3, #64	@ 0x40
 800b18e:	b21b      	sxth	r3, r3
 800b190:	e01b      	b.n	800b1ca <__sflush_r+0xf2>
 800b192:	690f      	ldr	r7, [r1, #16]
 800b194:	2f00      	cmp	r7, #0
 800b196:	d0f6      	beq.n	800b186 <__sflush_r+0xae>
 800b198:	0793      	lsls	r3, r2, #30
 800b19a:	680e      	ldr	r6, [r1, #0]
 800b19c:	bf08      	it	eq
 800b19e:	694b      	ldreq	r3, [r1, #20]
 800b1a0:	600f      	str	r7, [r1, #0]
 800b1a2:	bf18      	it	ne
 800b1a4:	2300      	movne	r3, #0
 800b1a6:	eba6 0807 	sub.w	r8, r6, r7
 800b1aa:	608b      	str	r3, [r1, #8]
 800b1ac:	f1b8 0f00 	cmp.w	r8, #0
 800b1b0:	dde9      	ble.n	800b186 <__sflush_r+0xae>
 800b1b2:	6a21      	ldr	r1, [r4, #32]
 800b1b4:	6aa6      	ldr	r6, [r4, #40]	@ 0x28
 800b1b6:	4643      	mov	r3, r8
 800b1b8:	463a      	mov	r2, r7
 800b1ba:	4628      	mov	r0, r5
 800b1bc:	47b0      	blx	r6
 800b1be:	2800      	cmp	r0, #0
 800b1c0:	dc08      	bgt.n	800b1d4 <__sflush_r+0xfc>
 800b1c2:	f9b4 300c 	ldrsh.w	r3, [r4, #12]
 800b1c6:	f043 0340 	orr.w	r3, r3, #64	@ 0x40
 800b1ca:	81a3      	strh	r3, [r4, #12]
 800b1cc:	f04f 30ff 	mov.w	r0, #4294967295
 800b1d0:	e8bd 81f0 	ldmia.w	sp!, {r4, r5, r6, r7, r8, pc}
 800b1d4:	4407      	add	r7, r0
 800b1d6:	eba8 0800 	sub.w	r8, r8, r0
 800b1da:	e7e7      	b.n	800b1ac <__sflush_r+0xd4>
 800b1dc:	20400001 	.word	0x20400001

0800b1e0 <_fflush_r>:
 800b1e0:	b538      	push	{r3, r4, r5, lr}
 800b1e2:	690b      	ldr	r3, [r1, #16]
 800b1e4:	4605      	mov	r5, r0
 800b1e6:	460c      	mov	r4, r1
 800b1e8:	b913      	cbnz	r3, 800b1f0 <_fflush_r+0x10>
 800b1ea:	2500      	movs	r5, #0
 800b1ec:	4628      	mov	r0, r5
 800b1ee:	bd38      	pop	{r3, r4, r5, pc}
 800b1f0:	b118      	cbz	r0, 800b1fa <_fflush_r+0x1a>
 800b1f2:	6a03      	ldr	r3, [r0, #32]
 800b1f4:	b90b      	cbnz	r3, 800b1fa <_fflush_r+0x1a>
 800b1f6:	f7fe fab3 	bl	8009760 <__sinit>
 800b1fa:	f9b4 300c 	ldrsh.w	r3, [r4, #12]
 800b1fe:	2b00      	cmp	r3, #0
 800b200:	d0f3      	beq.n	800b1ea <_fflush_r+0xa>
 800b202:	6e62      	ldr	r2, [r4, #100]	@ 0x64
 800b204:	07d0      	lsls	r0, r2, #31
 800b206:	d404      	bmi.n	800b212 <_fflush_r+0x32>
 800b208:	0599      	lsls	r1, r3, #22
 800b20a:	d402      	bmi.n	800b212 <_fflush_r+0x32>
 800b20c:	6da0      	ldr	r0, [r4, #88]	@ 0x58
 800b20e:	f7fe fc0a 	bl	8009a26 <__retarget_lock_acquire_recursive>
 800b212:	4628      	mov	r0, r5
 800b214:	4621      	mov	r1, r4
 800b216:	f7ff ff5f 	bl	800b0d8 <__sflush_r>
 800b21a:	6e63      	ldr	r3, [r4, #100]	@ 0x64
 800b21c:	07da      	lsls	r2, r3, #31
 800b21e:	4605      	mov	r5, r0
 800b220:	d4e4      	bmi.n	800b1ec <_fflush_r+0xc>
 800b222:	89a3      	ldrh	r3, [r4, #12]
 800b224:	059b      	lsls	r3, r3, #22
 800b226:	d4e1      	bmi.n	800b1ec <_fflush_r+0xc>
 800b228:	6da0      	ldr	r0, [r4, #88]	@ 0x58
 800b22a:	f7fe fbfd 	bl	8009a28 <__retarget_lock_release_recursive>
 800b22e:	e7dd      	b.n	800b1ec <_fflush_r+0xc>

0800b230 <memmove>:
 800b230:	4288      	cmp	r0, r1
 800b232:	b510      	push	{r4, lr}
 800b234:	eb01 0402 	add.w	r4, r1, r2
 800b238:	d902      	bls.n	800b240 <memmove+0x10>
 800b23a:	4284      	cmp	r4, r0
 800b23c:	4623      	mov	r3, r4
 800b23e:	d807      	bhi.n	800b250 <memmove+0x20>
 800b240:	1e43      	subs	r3, r0, #1
 800b242:	42a1      	cmp	r1, r4
 800b244:	d008      	beq.n	800b258 <memmove+0x28>
 800b246:	f811 2b01 	ldrb.w	r2, [r1], #1
 800b24a:	f803 2f01 	strb.w	r2, [r3, #1]!
 800b24e:	e7f8      	b.n	800b242 <memmove+0x12>
 800b250:	4402      	add	r2, r0
 800b252:	4601      	mov	r1, r0
 800b254:	428a      	cmp	r2, r1
 800b256:	d100      	bne.n	800b25a <memmove+0x2a>
 800b258:	bd10      	pop	{r4, pc}
 800b25a:	f813 4d01 	ldrb.w	r4, [r3, #-1]!
 800b25e:	f802 4d01 	strb.w	r4, [r2, #-1]!
 800b262:	e7f7      	b.n	800b254 <memmove+0x24>

0800b264 <__assert_func>:
 800b264:	b51f      	push	{r0, r1, r2, r3, r4, lr}
 800b266:	4614      	mov	r4, r2
 800b268:	461a      	mov	r2, r3
 800b26a:	4b09      	ldr	r3, [pc, #36]	@ (800b290 <__assert_func+0x2c>)
 800b26c:	681b      	ldr	r3, [r3, #0]
 800b26e:	4605      	mov	r5, r0
 800b270:	68d8      	ldr	r0, [r3, #12]
 800b272:	b14c      	cbz	r4, 800b288 <__assert_func+0x24>
 800b274:	4b07      	ldr	r3, [pc, #28]	@ (800b294 <__assert_func+0x30>)
 800b276:	9100      	str	r1, [sp, #0]
 800b278:	e9cd 3401 	strd	r3, r4, [sp, #4]
 800b27c:	4906      	ldr	r1, [pc, #24]	@ (800b298 <__assert_func+0x34>)
 800b27e:	462b      	mov	r3, r5
 800b280:	f000 f822 	bl	800b2c8 <fiprintf>
 800b284:	f000 f832 	bl	800b2ec <abort>
 800b288:	4b04      	ldr	r3, [pc, #16]	@ (800b29c <__assert_func+0x38>)
 800b28a:	461c      	mov	r4, r3
 800b28c:	e7f3      	b.n	800b276 <__assert_func+0x12>
 800b28e:	bf00      	nop
 800b290:	20000284 	.word	0x20000284
 800b294:	080337ae 	.word	0x080337ae
 800b298:	080337bb 	.word	0x080337bb
 800b29c:	080337e9 	.word	0x080337e9

0800b2a0 <_calloc_r>:
 800b2a0:	b570      	push	{r4, r5, r6, lr}
 800b2a2:	fba1 5402 	umull	r5, r4, r1, r2
 800b2a6:	b934      	cbnz	r4, 800b2b6 <_calloc_r+0x16>
 800b2a8:	4629      	mov	r1, r5
 800b2aa:	f7fd fafb 	bl	80088a4 <_malloc_r>
 800b2ae:	4606      	mov	r6, r0
 800b2b0:	b928      	cbnz	r0, 800b2be <_calloc_r+0x1e>
 800b2b2:	4630      	mov	r0, r6
 800b2b4:	bd70      	pop	{r4, r5, r6, pc}
 800b2b6:	220c      	movs	r2, #12
 800b2b8:	6002      	str	r2, [r0, #0]
 800b2ba:	2600      	movs	r6, #0
 800b2bc:	e7f9      	b.n	800b2b2 <_calloc_r+0x12>
 800b2be:	462a      	mov	r2, r5
 800b2c0:	4621      	mov	r1, r4
 800b2c2:	f7fe fae7 	bl	8009894 <memset>
 800b2c6:	e7f4      	b.n	800b2b2 <_calloc_r+0x12>

0800b2c8 <fiprintf>:
 800b2c8:	b40e      	push	{r1, r2, r3}
 800b2ca:	b503      	push	{r0, r1, lr}
 800b2cc:	4601      	mov	r1, r0
 800b2ce:	ab03      	add	r3, sp, #12
 800b2d0:	4805      	ldr	r0, [pc, #20]	@ (800b2e8 <fiprintf+0x20>)
 800b2d2:	f853 2b04 	ldr.w	r2, [r3], #4
 800b2d6:	6800      	ldr	r0, [r0, #0]
 800b2d8:	9301      	str	r3, [sp, #4]
 800b2da:	f000 f837 	bl	800b34c <_vfiprintf_r>
 800b2de:	b002      	add	sp, #8
 800b2e0:	f85d eb04 	ldr.w	lr, [sp], #4
 800b2e4:	b003      	add	sp, #12
 800b2e6:	4770      	bx	lr
 800b2e8:	20000284 	.word	0x20000284

0800b2ec <abort>:
 800b2ec:	b508      	push	{r3, lr}
 800b2ee:	2006      	movs	r0, #6
 800b2f0:	f000 fa00 	bl	800b6f4 <raise>
 800b2f4:	2001      	movs	r0, #1
 800b2f6:	f7fa fb39 	bl	800596c <_exit>

0800b2fa <__sfputc_r>:
 800b2fa:	6893      	ldr	r3, [r2, #8]
 800b2fc:	3b01      	subs	r3, #1
 800b2fe:	2b00      	cmp	r3, #0
 800b300:	b410      	push	{r4}
 800b302:	6093      	str	r3, [r2, #8]
 800b304:	da08      	bge.n	800b318 <__sfputc_r+0x1e>
 800b306:	6994      	ldr	r4, [r2, #24]
 800b308:	42a3      	cmp	r3, r4
 800b30a:	db01      	blt.n	800b310 <__sfputc_r+0x16>
 800b30c:	290a      	cmp	r1, #10
 800b30e:	d103      	bne.n	800b318 <__sfputc_r+0x1e>
 800b310:	f85d 4b04 	ldr.w	r4, [sp], #4
 800b314:	f000 b932 	b.w	800b57c <__swbuf_r>
 800b318:	6813      	ldr	r3, [r2, #0]
 800b31a:	1c58      	adds	r0, r3, #1
 800b31c:	6010      	str	r0, [r2, #0]
 800b31e:	7019      	strb	r1, [r3, #0]
 800b320:	4608      	mov	r0, r1
 800b322:	f85d 4b04 	ldr.w	r4, [sp], #4
 800b326:	4770      	bx	lr

0800b328 <__sfputs_r>:
 800b328:	b5f8      	push	{r3, r4, r5, r6, r7, lr}
 800b32a:	4606      	mov	r6, r0
 800b32c:	460f      	mov	r7, r1
 800b32e:	4614      	mov	r4, r2
 800b330:	18d5      	adds	r5, r2, r3
 800b332:	42ac      	cmp	r4, r5
 800b334:	d101      	bne.n	800b33a <__sfputs_r+0x12>
 800b336:	2000      	movs	r0, #0
 800b338:	e007      	b.n	800b34a <__sfputs_r+0x22>
 800b33a:	f814 1b01 	ldrb.w	r1, [r4], #1
 800b33e:	463a      	mov	r2, r7
 800b340:	4630      	mov	r0, r6
 800b342:	f7ff ffda 	bl	800b2fa <__sfputc_r>
 800b346:	1c43      	adds	r3, r0, #1
 800b348:	d1f3      	bne.n	800b332 <__sfputs_r+0xa>
 800b34a:	bdf8      	pop	{r3, r4, r5, r6, r7, pc}

0800b34c <_vfiprintf_r>:
 800b34c:	e92d 4ff0 	stmdb	sp!, {r4, r5, r6, r7, r8, r9, sl, fp, lr}
 800b350:	460d      	mov	r5, r1
 800b352:	b09d      	sub	sp, #116	@ 0x74
 800b354:	4614      	mov	r4, r2
 800b356:	4698      	mov	r8, r3
 800b358:	4606      	mov	r6, r0
 800b35a:	b118      	cbz	r0, 800b364 <_vfiprintf_r+0x18>
 800b35c:	6a03      	ldr	r3, [r0, #32]
 800b35e:	b90b      	cbnz	r3, 800b364 <_vfiprintf_r+0x18>
 800b360:	f7fe f9fe 	bl	8009760 <__sinit>
 800b364:	6e6b      	ldr	r3, [r5, #100]	@ 0x64
 800b366:	07d9      	lsls	r1, r3, #31
 800b368:	d405      	bmi.n	800b376 <_vfiprintf_r+0x2a>
 800b36a:	89ab      	ldrh	r3, [r5, #12]
 800b36c:	059a      	lsls	r2, r3, #22
 800b36e:	d402      	bmi.n	800b376 <_vfiprintf_r+0x2a>
 800b370:	6da8      	ldr	r0, [r5, #88]	@ 0x58
 800b372:	f7fe fb58 	bl	8009a26 <__retarget_lock_acquire_recursive>
 800b376:	89ab      	ldrh	r3, [r5, #12]
 800b378:	071b      	lsls	r3, r3, #28
 800b37a:	d501      	bpl.n	800b380 <_vfiprintf_r+0x34>
 800b37c:	692b      	ldr	r3, [r5, #16]
 800b37e:	b99b      	cbnz	r3, 800b3a8 <_vfiprintf_r+0x5c>
 800b380:	4629      	mov	r1, r5
 800b382:	4630      	mov	r0, r6
 800b384:	f000 f938 	bl	800b5f8 <__swsetup_r>
 800b388:	b170      	cbz	r0, 800b3a8 <_vfiprintf_r+0x5c>
 800b38a:	6e6b      	ldr	r3, [r5, #100]	@ 0x64
 800b38c:	07dc      	lsls	r4, r3, #31
 800b38e:	d504      	bpl.n	800b39a <_vfiprintf_r+0x4e>
 800b390:	f04f 30ff 	mov.w	r0, #4294967295
 800b394:	b01d      	add	sp, #116	@ 0x74
 800b396:	e8bd 8ff0 	ldmia.w	sp!, {r4, r5, r6, r7, r8, r9, sl, fp, pc}
 800b39a:	89ab      	ldrh	r3, [r5, #12]
 800b39c:	0598      	lsls	r0, r3, #22
 800b39e:	d4f7      	bmi.n	800b390 <_vfiprintf_r+0x44>
 800b3a0:	6da8      	ldr	r0, [r5, #88]	@ 0x58
 800b3a2:	f7fe fb41 	bl	8009a28 <__retarget_lock_release_recursive>
 800b3a6:	e7f3      	b.n	800b390 <_vfiprintf_r+0x44>
 800b3a8:	2300      	movs	r3, #0
 800b3aa:	9309      	str	r3, [sp, #36]	@ 0x24
 800b3ac:	2320      	movs	r3, #32
 800b3ae:	f88d 3029 	strb.w	r3, [sp, #41]	@ 0x29
 800b3b2:	f8cd 800c 	str.w	r8, [sp, #12]
 800b3b6:	2330      	movs	r3, #48	@ 0x30
 800b3b8:	f8df 81ac 	ldr.w	r8, [pc, #428]	@ 800b568 <_vfiprintf_r+0x21c>
 800b3bc:	f88d 302a 	strb.w	r3, [sp, #42]	@ 0x2a
 800b3c0:	f04f 0901 	mov.w	r9, #1
 800b3c4:	4623      	mov	r3, r4
 800b3c6:	469a      	mov	sl, r3
 800b3c8:	f813 2b01 	ldrb.w	r2, [r3], #1
 800b3cc:	b10a      	cbz	r2, 800b3d2 <_vfiprintf_r+0x86>
 800b3ce:	2a25      	cmp	r2, #37	@ 0x25
 800b3d0:	d1f9      	bne.n	800b3c6 <_vfiprintf_r+0x7a>
 800b3d2:	ebba 0b04 	subs.w	fp, sl, r4
 800b3d6:	d00b      	beq.n	800b3f0 <_vfiprintf_r+0xa4>
 800b3d8:	465b      	mov	r3, fp
 800b3da:	4622      	mov	r2, r4
 800b3dc:	4629      	mov	r1, r5
 800b3de:	4630      	mov	r0, r6
 800b3e0:	f7ff ffa2 	bl	800b328 <__sfputs_r>
 800b3e4:	3001      	adds	r0, #1
 800b3e6:	f000 80a7 	beq.w	800b538 <_vfiprintf_r+0x1ec>
 800b3ea:	9a09      	ldr	r2, [sp, #36]	@ 0x24
 800b3ec:	445a      	add	r2, fp
 800b3ee:	9209      	str	r2, [sp, #36]	@ 0x24
 800b3f0:	f89a 3000 	ldrb.w	r3, [sl]
 800b3f4:	2b00      	cmp	r3, #0
 800b3f6:	f000 809f 	beq.w	800b538 <_vfiprintf_r+0x1ec>
 800b3fa:	2300      	movs	r3, #0
 800b3fc:	f04f 32ff 	mov.w	r2, #4294967295
 800b400:	e9cd 2305 	strd	r2, r3, [sp, #20]
 800b404:	f10a 0a01 	add.w	sl, sl, #1
 800b408:	9304      	str	r3, [sp, #16]
 800b40a:	9307      	str	r3, [sp, #28]
 800b40c:	f88d 3053 	strb.w	r3, [sp, #83]	@ 0x53
 800b410:	931a      	str	r3, [sp, #104]	@ 0x68
 800b412:	4654      	mov	r4, sl
 800b414:	2205      	movs	r2, #5
 800b416:	f814 1b01 	ldrb.w	r1, [r4], #1
 800b41a:	4853      	ldr	r0, [pc, #332]	@ (800b568 <_vfiprintf_r+0x21c>)
 800b41c:	f7f4 fef0 	bl	8000200 <memchr>
 800b420:	9a04      	ldr	r2, [sp, #16]
 800b422:	b9d8      	cbnz	r0, 800b45c <_vfiprintf_r+0x110>
 800b424:	06d1      	lsls	r1, r2, #27
 800b426:	bf44      	itt	mi
 800b428:	2320      	movmi	r3, #32
 800b42a:	f88d 3053 	strbmi.w	r3, [sp, #83]	@ 0x53
 800b42e:	0713      	lsls	r3, r2, #28
 800b430:	bf44      	itt	mi
 800b432:	232b      	movmi	r3, #43	@ 0x2b
 800b434:	f88d 3053 	strbmi.w	r3, [sp, #83]	@ 0x53
 800b438:	f89a 3000 	ldrb.w	r3, [sl]
 800b43c:	2b2a      	cmp	r3, #42	@ 0x2a
 800b43e:	d015      	beq.n	800b46c <_vfiprintf_r+0x120>
 800b440:	9a07      	ldr	r2, [sp, #28]
 800b442:	4654      	mov	r4, sl
 800b444:	2000      	movs	r0, #0
 800b446:	f04f 0c0a 	mov.w	ip, #10
 800b44a:	4621      	mov	r1, r4
 800b44c:	f811 3b01 	ldrb.w	r3, [r1], #1
 800b450:	3b30      	subs	r3, #48	@ 0x30
 800b452:	2b09      	cmp	r3, #9
 800b454:	d94b      	bls.n	800b4ee <_vfiprintf_r+0x1a2>
 800b456:	b1b0      	cbz	r0, 800b486 <_vfiprintf_r+0x13a>
 800b458:	9207      	str	r2, [sp, #28]
 800b45a:	e014      	b.n	800b486 <_vfiprintf_r+0x13a>
 800b45c:	eba0 0308 	sub.w	r3, r0, r8
 800b460:	fa09 f303 	lsl.w	r3, r9, r3
 800b464:	4313      	orrs	r3, r2
 800b466:	9304      	str	r3, [sp, #16]
 800b468:	46a2      	mov	sl, r4
 800b46a:	e7d2      	b.n	800b412 <_vfiprintf_r+0xc6>
 800b46c:	9b03      	ldr	r3, [sp, #12]
 800b46e:	1d19      	adds	r1, r3, #4
 800b470:	681b      	ldr	r3, [r3, #0]
 800b472:	9103      	str	r1, [sp, #12]
 800b474:	2b00      	cmp	r3, #0
 800b476:	bfbb      	ittet	lt
 800b478:	425b      	neglt	r3, r3
 800b47a:	f042 0202 	orrlt.w	r2, r2, #2
 800b47e:	9307      	strge	r3, [sp, #28]
 800b480:	9307      	strlt	r3, [sp, #28]
 800b482:	bfb8      	it	lt
 800b484:	9204      	strlt	r2, [sp, #16]
 800b486:	7823      	ldrb	r3, [r4, #0]
 800b488:	2b2e      	cmp	r3, #46	@ 0x2e
 800b48a:	d10a      	bne.n	800b4a2 <_vfiprintf_r+0x156>
 800b48c:	7863      	ldrb	r3, [r4, #1]
 800b48e:	2b2a      	cmp	r3, #42	@ 0x2a
 800b490:	d132      	bne.n	800b4f8 <_vfiprintf_r+0x1ac>
 800b492:	9b03      	ldr	r3, [sp, #12]
 800b494:	1d1a      	adds	r2, r3, #4
 800b496:	681b      	ldr	r3, [r3, #0]
 800b498:	9203      	str	r2, [sp, #12]
 800b49a:	ea43 73e3 	orr.w	r3, r3, r3, asr #31
 800b49e:	3402      	adds	r4, #2
 800b4a0:	9305      	str	r3, [sp, #20]
 800b4a2:	f8df a0d4 	ldr.w	sl, [pc, #212]	@ 800b578 <_vfiprintf_r+0x22c>
 800b4a6:	7821      	ldrb	r1, [r4, #0]
 800b4a8:	2203      	movs	r2, #3
 800b4aa:	4650      	mov	r0, sl
 800b4ac:	f7f4 fea8 	bl	8000200 <memchr>
 800b4b0:	b138      	cbz	r0, 800b4c2 <_vfiprintf_r+0x176>
 800b4b2:	9b04      	ldr	r3, [sp, #16]
 800b4b4:	eba0 000a 	sub.w	r0, r0, sl
 800b4b8:	2240      	movs	r2, #64	@ 0x40
 800b4ba:	4082      	lsls	r2, r0
 800b4bc:	4313      	orrs	r3, r2
 800b4be:	3401      	adds	r4, #1
 800b4c0:	9304      	str	r3, [sp, #16]
 800b4c2:	f814 1b01 	ldrb.w	r1, [r4], #1
 800b4c6:	4829      	ldr	r0, [pc, #164]	@ (800b56c <_vfiprintf_r+0x220>)
 800b4c8:	f88d 1028 	strb.w	r1, [sp, #40]	@ 0x28
 800b4cc:	2206      	movs	r2, #6
 800b4ce:	f7f4 fe97 	bl	8000200 <memchr>
 800b4d2:	2800      	cmp	r0, #0
 800b4d4:	d03f      	beq.n	800b556 <_vfiprintf_r+0x20a>
 800b4d6:	4b26      	ldr	r3, [pc, #152]	@ (800b570 <_vfiprintf_r+0x224>)
 800b4d8:	bb1b      	cbnz	r3, 800b522 <_vfiprintf_r+0x1d6>
 800b4da:	9b03      	ldr	r3, [sp, #12]
 800b4dc:	3307      	adds	r3, #7
 800b4de:	f023 0307 	bic.w	r3, r3, #7
 800b4e2:	3308      	adds	r3, #8
 800b4e4:	9303      	str	r3, [sp, #12]
 800b4e6:	9b09      	ldr	r3, [sp, #36]	@ 0x24
 800b4e8:	443b      	add	r3, r7
 800b4ea:	9309      	str	r3, [sp, #36]	@ 0x24
 800b4ec:	e76a      	b.n	800b3c4 <_vfiprintf_r+0x78>
 800b4ee:	fb0c 3202 	mla	r2, ip, r2, r3
 800b4f2:	460c      	mov	r4, r1
 800b4f4:	2001      	movs	r0, #1
 800b4f6:	e7a8      	b.n	800b44a <_vfiprintf_r+0xfe>
 800b4f8:	2300      	movs	r3, #0
 800b4fa:	3401      	adds	r4, #1
 800b4fc:	9305      	str	r3, [sp, #20]
 800b4fe:	4619      	mov	r1, r3
 800b500:	f04f 0c0a 	mov.w	ip, #10
 800b504:	4620      	mov	r0, r4
 800b506:	f810 2b01 	ldrb.w	r2, [r0], #1
 800b50a:	3a30      	subs	r2, #48	@ 0x30
 800b50c:	2a09      	cmp	r2, #9
 800b50e:	d903      	bls.n	800b518 <_vfiprintf_r+0x1cc>
 800b510:	2b00      	cmp	r3, #0
 800b512:	d0c6      	beq.n	800b4a2 <_vfiprintf_r+0x156>
 800b514:	9105      	str	r1, [sp, #20]
 800b516:	e7c4      	b.n	800b4a2 <_vfiprintf_r+0x156>
 800b518:	fb0c 2101 	mla	r1, ip, r1, r2
 800b51c:	4604      	mov	r4, r0
 800b51e:	2301      	movs	r3, #1
 800b520:	e7f0      	b.n	800b504 <_vfiprintf_r+0x1b8>
 800b522:	ab03      	add	r3, sp, #12
 800b524:	9300      	str	r3, [sp, #0]
 800b526:	462a      	mov	r2, r5
 800b528:	4b12      	ldr	r3, [pc, #72]	@ (800b574 <_vfiprintf_r+0x228>)
 800b52a:	a904      	add	r1, sp, #16
 800b52c:	4630      	mov	r0, r6
 800b52e:	f3af 8000 	nop.w
 800b532:	4607      	mov	r7, r0
 800b534:	1c78      	adds	r0, r7, #1
 800b536:	d1d6      	bne.n	800b4e6 <_vfiprintf_r+0x19a>
 800b538:	6e6b      	ldr	r3, [r5, #100]	@ 0x64
 800b53a:	07d9      	lsls	r1, r3, #31
 800b53c:	d405      	bmi.n	800b54a <_vfiprintf_r+0x1fe>
 800b53e:	89ab      	ldrh	r3, [r5, #12]
 800b540:	059a      	lsls	r2, r3, #22
 800b542:	d402      	bmi.n	800b54a <_vfiprintf_r+0x1fe>
 800b544:	6da8      	ldr	r0, [r5, #88]	@ 0x58
 800b546:	f7fe fa6f 	bl	8009a28 <__retarget_lock_release_recursive>
 800b54a:	89ab      	ldrh	r3, [r5, #12]
 800b54c:	065b      	lsls	r3, r3, #25
 800b54e:	f53f af1f 	bmi.w	800b390 <_vfiprintf_r+0x44>
 800b552:	9809      	ldr	r0, [sp, #36]	@ 0x24
 800b554:	e71e      	b.n	800b394 <_vfiprintf_r+0x48>
 800b556:	ab03      	add	r3, sp, #12
 800b558:	9300      	str	r3, [sp, #0]
 800b55a:	462a      	mov	r2, r5
 800b55c:	4b05      	ldr	r3, [pc, #20]	@ (800b574 <_vfiprintf_r+0x228>)
 800b55e:	a904      	add	r1, sp, #16
 800b560:	4630      	mov	r0, r6
 800b562:	f7ff fc9b 	bl	800ae9c <_printf_i>
 800b566:	e7e4      	b.n	800b532 <_vfiprintf_r+0x1e6>
 800b568:	0803377b 	.word	0x0803377b
 800b56c:	08033785 	.word	0x08033785
 800b570:	00000000 	.word	0x00000000
 800b574:	0800b329 	.word	0x0800b329
 800b578:	08033781 	.word	0x08033781

0800b57c <__swbuf_r>:
 800b57c:	b5f8      	push	{r3, r4, r5, r6, r7, lr}
 800b57e:	460e      	mov	r6, r1
 800b580:	4614      	mov	r4, r2
 800b582:	4605      	mov	r5, r0
 800b584:	b118      	cbz	r0, 800b58e <__swbuf_r+0x12>
 800b586:	6a03      	ldr	r3, [r0, #32]
 800b588:	b90b      	cbnz	r3, 800b58e <__swbuf_r+0x12>
 800b58a:	f7fe f8e9 	bl	8009760 <__sinit>
 800b58e:	69a3      	ldr	r3, [r4, #24]
 800b590:	60a3      	str	r3, [r4, #8]
 800b592:	89a3      	ldrh	r3, [r4, #12]
 800b594:	071a      	lsls	r2, r3, #28
 800b596:	d501      	bpl.n	800b59c <__swbuf_r+0x20>
 800b598:	6923      	ldr	r3, [r4, #16]
 800b59a:	b943      	cbnz	r3, 800b5ae <__swbuf_r+0x32>
 800b59c:	4621      	mov	r1, r4
 800b59e:	4628      	mov	r0, r5
 800b5a0:	f000 f82a 	bl	800b5f8 <__swsetup_r>
 800b5a4:	b118      	cbz	r0, 800b5ae <__swbuf_r+0x32>
 800b5a6:	f04f 37ff 	mov.w	r7, #4294967295
 800b5aa:	4638      	mov	r0, r7
 800b5ac:	bdf8      	pop	{r3, r4, r5, r6, r7, pc}
 800b5ae:	6823      	ldr	r3, [r4, #0]
 800b5b0:	6922      	ldr	r2, [r4, #16]
 800b5b2:	1a98      	subs	r0, r3, r2
 800b5b4:	6963      	ldr	r3, [r4, #20]
 800b5b6:	b2f6      	uxtb	r6, r6
 800b5b8:	4283      	cmp	r3, r0
 800b5ba:	4637      	mov	r7, r6
 800b5bc:	dc05      	bgt.n	800b5ca <__swbuf_r+0x4e>
 800b5be:	4621      	mov	r1, r4
 800b5c0:	4628      	mov	r0, r5
 800b5c2:	f7ff fe0d 	bl	800b1e0 <_fflush_r>
 800b5c6:	2800      	cmp	r0, #0
 800b5c8:	d1ed      	bne.n	800b5a6 <__swbuf_r+0x2a>
 800b5ca:	68a3      	ldr	r3, [r4, #8]
 800b5cc:	3b01      	subs	r3, #1
 800b5ce:	60a3      	str	r3, [r4, #8]
 800b5d0:	6823      	ldr	r3, [r4, #0]
 800b5d2:	1c5a      	adds	r2, r3, #1
 800b5d4:	6022      	str	r2, [r4, #0]
 800b5d6:	701e      	strb	r6, [r3, #0]
 800b5d8:	6962      	ldr	r2, [r4, #20]
 800b5da:	1c43      	adds	r3, r0, #1
 800b5dc:	429a      	cmp	r2, r3
 800b5de:	d004      	beq.n	800b5ea <__swbuf_r+0x6e>
 800b5e0:	89a3      	ldrh	r3, [r4, #12]
 800b5e2:	07db      	lsls	r3, r3, #31
 800b5e4:	d5e1      	bpl.n	800b5aa <__swbuf_r+0x2e>
 800b5e6:	2e0a      	cmp	r6, #10
 800b5e8:	d1df      	bne.n	800b5aa <__swbuf_r+0x2e>
 800b5ea:	4621      	mov	r1, r4
 800b5ec:	4628      	mov	r0, r5
 800b5ee:	f7ff fdf7 	bl	800b1e0 <_fflush_r>
 800b5f2:	2800      	cmp	r0, #0
 800b5f4:	d0d9      	beq.n	800b5aa <__swbuf_r+0x2e>
 800b5f6:	e7d6      	b.n	800b5a6 <__swbuf_r+0x2a>

0800b5f8 <__swsetup_r>:
 800b5f8:	b538      	push	{r3, r4, r5, lr}
 800b5fa:	4b29      	ldr	r3, [pc, #164]	@ (800b6a0 <__swsetup_r+0xa8>)
 800b5fc:	4605      	mov	r5, r0
 800b5fe:	6818      	ldr	r0, [r3, #0]
 800b600:	460c      	mov	r4, r1
 800b602:	b118      	cbz	r0, 800b60c <__swsetup_r+0x14>
 800b604:	6a03      	ldr	r3, [r0, #32]
 800b606:	b90b      	cbnz	r3, 800b60c <__swsetup_r+0x14>
 800b608:	f7fe f8aa 	bl	8009760 <__sinit>
 800b60c:	f9b4 300c 	ldrsh.w	r3, [r4, #12]
 800b610:	0719      	lsls	r1, r3, #28
 800b612:	d422      	bmi.n	800b65a <__swsetup_r+0x62>
 800b614:	06da      	lsls	r2, r3, #27
 800b616:	d407      	bmi.n	800b628 <__swsetup_r+0x30>
 800b618:	2209      	movs	r2, #9
 800b61a:	602a      	str	r2, [r5, #0]
 800b61c:	f043 0340 	orr.w	r3, r3, #64	@ 0x40
 800b620:	81a3      	strh	r3, [r4, #12]
 800b622:	f04f 30ff 	mov.w	r0, #4294967295
 800b626:	e033      	b.n	800b690 <__swsetup_r+0x98>
 800b628:	0758      	lsls	r0, r3, #29
 800b62a:	d512      	bpl.n	800b652 <__swsetup_r+0x5a>
 800b62c:	6b61      	ldr	r1, [r4, #52]	@ 0x34
 800b62e:	b141      	cbz	r1, 800b642 <__swsetup_r+0x4a>
 800b630:	f104 0344 	add.w	r3, r4, #68	@ 0x44
 800b634:	4299      	cmp	r1, r3
 800b636:	d002      	beq.n	800b63e <__swsetup_r+0x46>
 800b638:	4628      	mov	r0, r5
 800b63a:	f7fe fa15 	bl	8009a68 <_free_r>
 800b63e:	2300      	movs	r3, #0
 800b640:	6363      	str	r3, [r4, #52]	@ 0x34
 800b642:	89a3      	ldrh	r3, [r4, #12]
 800b644:	f023 0324 	bic.w	r3, r3, #36	@ 0x24
 800b648:	81a3      	strh	r3, [r4, #12]
 800b64a:	2300      	movs	r3, #0
 800b64c:	6063      	str	r3, [r4, #4]
 800b64e:	6923      	ldr	r3, [r4, #16]
 800b650:	6023      	str	r3, [r4, #0]
 800b652:	89a3      	ldrh	r3, [r4, #12]
 800b654:	f043 0308 	orr.w	r3, r3, #8
 800b658:	81a3      	strh	r3, [r4, #12]
 800b65a:	6923      	ldr	r3, [r4, #16]
 800b65c:	b94b      	cbnz	r3, 800b672 <__swsetup_r+0x7a>
 800b65e:	89a3      	ldrh	r3, [r4, #12]
 800b660:	f403 7320 	and.w	r3, r3, #640	@ 0x280
 800b664:	f5b3 7f00 	cmp.w	r3, #512	@ 0x200
 800b668:	d003      	beq.n	800b672 <__swsetup_r+0x7a>
 800b66a:	4621      	mov	r1, r4
 800b66c:	4628      	mov	r0, r5
 800b66e:	f000 f883 	bl	800b778 <__smakebuf_r>
 800b672:	f9b4 300c 	ldrsh.w	r3, [r4, #12]
 800b676:	f013 0201 	ands.w	r2, r3, #1
 800b67a:	d00a      	beq.n	800b692 <__swsetup_r+0x9a>
 800b67c:	2200      	movs	r2, #0
 800b67e:	60a2      	str	r2, [r4, #8]
 800b680:	6962      	ldr	r2, [r4, #20]
 800b682:	4252      	negs	r2, r2
 800b684:	61a2      	str	r2, [r4, #24]
 800b686:	6922      	ldr	r2, [r4, #16]
 800b688:	b942      	cbnz	r2, 800b69c <__swsetup_r+0xa4>
 800b68a:	f013 0080 	ands.w	r0, r3, #128	@ 0x80
 800b68e:	d1c5      	bne.n	800b61c <__swsetup_r+0x24>
 800b690:	bd38      	pop	{r3, r4, r5, pc}
 800b692:	0799      	lsls	r1, r3, #30
 800b694:	bf58      	it	pl
 800b696:	6962      	ldrpl	r2, [r4, #20]
 800b698:	60a2      	str	r2, [r4, #8]
 800b69a:	e7f4      	b.n	800b686 <__swsetup_r+0x8e>
 800b69c:	2000      	movs	r0, #0
 800b69e:	e7f7      	b.n	800b690 <__swsetup_r+0x98>
 800b6a0:	20000284 	.word	0x20000284

0800b6a4 <_raise_r>:
 800b6a4:	291f      	cmp	r1, #31
 800b6a6:	b538      	push	{r3, r4, r5, lr}
 800b6a8:	4605      	mov	r5, r0
 800b6aa:	460c      	mov	r4, r1
 800b6ac:	d904      	bls.n	800b6b8 <_raise_r+0x14>
 800b6ae:	2316      	movs	r3, #22
 800b6b0:	6003      	str	r3, [r0, #0]
 800b6b2:	f04f 30ff 	mov.w	r0, #4294967295
 800b6b6:	bd38      	pop	{r3, r4, r5, pc}
 800b6b8:	6bc2      	ldr	r2, [r0, #60]	@ 0x3c
 800b6ba:	b112      	cbz	r2, 800b6c2 <_raise_r+0x1e>
 800b6bc:	f852 3021 	ldr.w	r3, [r2, r1, lsl #2]
 800b6c0:	b94b      	cbnz	r3, 800b6d6 <_raise_r+0x32>
 800b6c2:	4628      	mov	r0, r5
 800b6c4:	f000 f830 	bl	800b728 <_getpid_r>
 800b6c8:	4622      	mov	r2, r4
 800b6ca:	4601      	mov	r1, r0
 800b6cc:	4628      	mov	r0, r5
 800b6ce:	e8bd 4038 	ldmia.w	sp!, {r3, r4, r5, lr}
 800b6d2:	f000 b817 	b.w	800b704 <_kill_r>
 800b6d6:	2b01      	cmp	r3, #1
 800b6d8:	d00a      	beq.n	800b6f0 <_raise_r+0x4c>
 800b6da:	1c59      	adds	r1, r3, #1
 800b6dc:	d103      	bne.n	800b6e6 <_raise_r+0x42>
 800b6de:	2316      	movs	r3, #22
 800b6e0:	6003      	str	r3, [r0, #0]
 800b6e2:	2001      	movs	r0, #1
 800b6e4:	e7e7      	b.n	800b6b6 <_raise_r+0x12>
 800b6e6:	2100      	movs	r1, #0
 800b6e8:	f842 1024 	str.w	r1, [r2, r4, lsl #2]
 800b6ec:	4620      	mov	r0, r4
 800b6ee:	4798      	blx	r3
 800b6f0:	2000      	movs	r0, #0
 800b6f2:	e7e0      	b.n	800b6b6 <_raise_r+0x12>

0800b6f4 <raise>:
 800b6f4:	4b02      	ldr	r3, [pc, #8]	@ (800b700 <raise+0xc>)
 800b6f6:	4601      	mov	r1, r0
 800b6f8:	6818      	ldr	r0, [r3, #0]
 800b6fa:	f7ff bfd3 	b.w	800b6a4 <_raise_r>
 800b6fe:	bf00      	nop
 800b700:	20000284 	.word	0x20000284

0800b704 <_kill_r>:
 800b704:	b538      	push	{r3, r4, r5, lr}
 800b706:	4d07      	ldr	r5, [pc, #28]	@ (800b724 <_kill_r+0x20>)
 800b708:	2300      	movs	r3, #0
 800b70a:	4604      	mov	r4, r0
 800b70c:	4608      	mov	r0, r1
 800b70e:	4611      	mov	r1, r2
 800b710:	602b      	str	r3, [r5, #0]
 800b712:	f7fa f91b 	bl	800594c <_kill>
 800b716:	1c43      	adds	r3, r0, #1
 800b718:	d102      	bne.n	800b720 <_kill_r+0x1c>
 800b71a:	682b      	ldr	r3, [r5, #0]
 800b71c:	b103      	cbz	r3, 800b720 <_kill_r+0x1c>
 800b71e:	6023      	str	r3, [r4, #0]
 800b720:	bd38      	pop	{r3, r4, r5, pc}
 800b722:	bf00      	nop
 800b724:	20000d80 	.word	0x20000d80

0800b728 <_getpid_r>:
 800b728:	f7fa b908 	b.w	800593c <_getpid>

0800b72c <__swhatbuf_r>:
 800b72c:	b570      	push	{r4, r5, r6, lr}
 800b72e:	460c      	mov	r4, r1
 800b730:	f9b1 100e 	ldrsh.w	r1, [r1, #14]
 800b734:	2900      	cmp	r1, #0
 800b736:	b096      	sub	sp, #88	@ 0x58
 800b738:	4615      	mov	r5, r2
 800b73a:	461e      	mov	r6, r3
 800b73c:	da0d      	bge.n	800b75a <__swhatbuf_r+0x2e>
 800b73e:	89a3      	ldrh	r3, [r4, #12]
 800b740:	f013 0f80 	tst.w	r3, #128	@ 0x80
 800b744:	f04f 0100 	mov.w	r1, #0
 800b748:	bf14      	ite	ne
 800b74a:	2340      	movne	r3, #64	@ 0x40
 800b74c:	f44f 6380 	moveq.w	r3, #1024	@ 0x400
 800b750:	2000      	movs	r0, #0
 800b752:	6031      	str	r1, [r6, #0]
 800b754:	602b      	str	r3, [r5, #0]
 800b756:	b016      	add	sp, #88	@ 0x58
 800b758:	bd70      	pop	{r4, r5, r6, pc}
 800b75a:	466a      	mov	r2, sp
 800b75c:	f000 f848 	bl	800b7f0 <_fstat_r>
 800b760:	2800      	cmp	r0, #0
 800b762:	dbec      	blt.n	800b73e <__swhatbuf_r+0x12>
 800b764:	9901      	ldr	r1, [sp, #4]
 800b766:	f401 4170 	and.w	r1, r1, #61440	@ 0xf000
 800b76a:	f5a1 5300 	sub.w	r3, r1, #8192	@ 0x2000
 800b76e:	4259      	negs	r1, r3
 800b770:	4159      	adcs	r1, r3
 800b772:	f44f 6380 	mov.w	r3, #1024	@ 0x400
 800b776:	e7eb      	b.n	800b750 <__swhatbuf_r+0x24>

0800b778 <__smakebuf_r>:
 800b778:	898b      	ldrh	r3, [r1, #12]
 800b77a:	b5f7      	push	{r0, r1, r2, r4, r5, r6, r7, lr}
 800b77c:	079d      	lsls	r5, r3, #30
 800b77e:	4606      	mov	r6, r0
 800b780:	460c      	mov	r4, r1
 800b782:	d507      	bpl.n	800b794 <__smakebuf_r+0x1c>
 800b784:	f104 0347 	add.w	r3, r4, #71	@ 0x47
 800b788:	6023      	str	r3, [r4, #0]
 800b78a:	6123      	str	r3, [r4, #16]
 800b78c:	2301      	movs	r3, #1
 800b78e:	6163      	str	r3, [r4, #20]
 800b790:	b003      	add	sp, #12
 800b792:	bdf0      	pop	{r4, r5, r6, r7, pc}
 800b794:	ab01      	add	r3, sp, #4
 800b796:	466a      	mov	r2, sp
 800b798:	f7ff ffc8 	bl	800b72c <__swhatbuf_r>
 800b79c:	9f00      	ldr	r7, [sp, #0]
 800b79e:	4605      	mov	r5, r0
 800b7a0:	4639      	mov	r1, r7
 800b7a2:	4630      	mov	r0, r6
 800b7a4:	f7fd f87e 	bl	80088a4 <_malloc_r>
 800b7a8:	b948      	cbnz	r0, 800b7be <__smakebuf_r+0x46>
 800b7aa:	f9b4 300c 	ldrsh.w	r3, [r4, #12]
 800b7ae:	059a      	lsls	r2, r3, #22
 800b7b0:	d4ee      	bmi.n	800b790 <__smakebuf_r+0x18>
 800b7b2:	f023 0303 	bic.w	r3, r3, #3
 800b7b6:	f043 0302 	orr.w	r3, r3, #2
 800b7ba:	81a3      	strh	r3, [r4, #12]
 800b7bc:	e7e2      	b.n	800b784 <__smakebuf_r+0xc>
 800b7be:	89a3      	ldrh	r3, [r4, #12]
 800b7c0:	6020      	str	r0, [r4, #0]
 800b7c2:	f043 0380 	orr.w	r3, r3, #128	@ 0x80
 800b7c6:	81a3      	strh	r3, [r4, #12]
 800b7c8:	9b01      	ldr	r3, [sp, #4]
 800b7ca:	e9c4 0704 	strd	r0, r7, [r4, #16]
 800b7ce:	b15b      	cbz	r3, 800b7e8 <__smakebuf_r+0x70>
 800b7d0:	f9b4 100e 	ldrsh.w	r1, [r4, #14]
 800b7d4:	4630      	mov	r0, r6
 800b7d6:	f000 f81d 	bl	800b814 <_isatty_r>
 800b7da:	b128      	cbz	r0, 800b7e8 <__smakebuf_r+0x70>
 800b7dc:	89a3      	ldrh	r3, [r4, #12]
 800b7de:	f023 0303 	bic.w	r3, r3, #3
 800b7e2:	f043 0301 	orr.w	r3, r3, #1
 800b7e6:	81a3      	strh	r3, [r4, #12]
 800b7e8:	89a3      	ldrh	r3, [r4, #12]
 800b7ea:	431d      	orrs	r5, r3
 800b7ec:	81a5      	strh	r5, [r4, #12]
 800b7ee:	e7cf      	b.n	800b790 <__smakebuf_r+0x18>

0800b7f0 <_fstat_r>:
 800b7f0:	b538      	push	{r3, r4, r5, lr}
 800b7f2:	4d07      	ldr	r5, [pc, #28]	@ (800b810 <_fstat_r+0x20>)
 800b7f4:	2300      	movs	r3, #0
 800b7f6:	4604      	mov	r4, r0
 800b7f8:	4608      	mov	r0, r1
 800b7fa:	4611      	mov	r1, r2
 800b7fc:	602b      	str	r3, [r5, #0]
 800b7fe:	f7fa f905 	bl	8005a0c <_fstat>
 800b802:	1c43      	adds	r3, r0, #1
 800b804:	d102      	bne.n	800b80c <_fstat_r+0x1c>
 800b806:	682b      	ldr	r3, [r5, #0]
 800b808:	b103      	cbz	r3, 800b80c <_fstat_r+0x1c>
 800b80a:	6023      	str	r3, [r4, #0]
 800b80c:	bd38      	pop	{r3, r4, r5, pc}
 800b80e:	bf00      	nop
 800b810:	20000d80 	.word	0x20000d80

0800b814 <_isatty_r>:
 800b814:	b538      	push	{r3, r4, r5, lr}
 800b816:	4d06      	ldr	r5, [pc, #24]	@ (800b830 <_isatty_r+0x1c>)
 800b818:	2300      	movs	r3, #0
 800b81a:	4604      	mov	r4, r0
 800b81c:	4608      	mov	r0, r1
 800b81e:	602b      	str	r3, [r5, #0]
 800b820:	f7fa f904 	bl	8005a2c <_isatty>
 800b824:	1c43      	adds	r3, r0, #1
 800b826:	d102      	bne.n	800b82e <_isatty_r+0x1a>
 800b828:	682b      	ldr	r3, [r5, #0]
 800b82a:	b103      	cbz	r3, 800b82e <_isatty_r+0x1a>
 800b82c:	6023      	str	r3, [r4, #0]
 800b82e:	bd38      	pop	{r3, r4, r5, pc}
 800b830:	20000d80 	.word	0x20000d80

0800b834 <_init>:
 800b834:	b5f8      	push	{r3, r4, r5, r6, r7, lr}
 800b836:	bf00      	nop
 800b838:	bcf8      	pop	{r3, r4, r5, r6, r7}
 800b83a:	bc08      	pop	{r3}
 800b83c:	469e      	mov	lr, r3
 800b83e:	4770      	bx	lr

0800b840 <_fini>:
 800b840:	b5f8      	push	{r3, r4, r5, r6, r7, lr}
 800b842:	bf00      	nop
 800b844:	bcf8      	pop	{r3, r4, r5, r6, r7}
 800b846:	bc08      	pop	{r3}
 800b848:	469e      	mov	lr, r3
 800b84a:	4770      	bx	lr
